 CCforLiveVisuals

 Timestamp is 5166c43e (Thu Apr 11 17:10:06 2013)

 Preferred load address is 00400000

 Start         Length     Name                   Class
 0001:00000000 0007836eH .text                   CODE
 0001:00078370 00003123H .text$x                 CODE
 0001:0007b4a0 0000098cH .text$yc                CODE
 0001:0007be30 0000036aH .text$yd                CODE
 0002:00000000 000002e0H .idata$5                DATA
 0002:000002e0 00000004H .CRT$XCA                DATA
 0002:000002e4 0000000cH .CRT$XCC                DATA
 0002:000002f0 00000008H .CRT$XCL                DATA
 0002:000002f8 000001ecH .CRT$XCU                DATA
 0002:000004e4 00000004H .CRT$XCZ                DATA
 0002:000004e8 00000004H .CRT$XIA                DATA
 0002:000004ec 00000014H .CRT$XIC                DATA
 0002:00000500 00000004H .CRT$XID                DATA
 0002:00000504 00000004H .CRT$XIU                DATA
 0002:00000508 00000004H .CRT$XIY                DATA
 0002:0000050c 00000004H .CRT$XIZ                DATA
 0002:00000510 00000004H .CRT$XLA                DATA
 0002:00000514 00000004H .CRT$XLC                DATA
 0002:00000518 00000004H .CRT$XLZ                DATA
 0002:0000051c 00000004H .CRT$XPA                DATA
 0002:00000520 00000004H .CRT$XPX                DATA
 0002:00000524 00000004H .CRT$XPXA               DATA
 0002:00000528 00000004H .CRT$XPZ                DATA
 0002:0000052c 00000004H .CRT$XTA                DATA
 0002:00000530 00000004H .CRT$XTU                DATA
 0002:00000534 00000004H .CRT$XTZ                DATA
 0002:00000540 0001abb0H .rdata                  DATA
 0002:0001b0f0 00000018H .rdata$T                DATA
 0002:0001b108 00002ad8H .rdata$r                DATA
 0002:0001dbe0 00000380H .rdata$sxdata           DATA
 0002:0001df60 00000004H .rtc$IAA                DATA
 0002:0001df64 00000004H .rtc$IZZ                DATA
 0002:0001df68 00000004H .rtc$TAA                DATA
 0002:0001df6c 00000004H .rtc$TZZ                DATA
 0002:0001df70 00004328H .xdata$x                DATA
 0002:00022298 000000a0H .idata$2                DATA
 0002:00022338 00000014H .idata$3                DATA
 0002:0002234c 000002dcH .idata$4                DATA
 0002:00022628 00000c88H .idata$6                DATA
 0002:000232b0 00000000H .edata                  DATA
 0003:00000000 0000ea54H .data                   DATA
 0003:0000ea60 000035bcH .bss                    DATA
 0004:00000000 00000001H .tls                    DATA
 0004:00000001 00000001H .tls$ZZZ                DATA
 0005:00000000 00000258H .rsrc$01                DATA
 0005:00000260 0000aeb8H .rsrc$02                DATA

  Address         Publics by Value              Rva+Base       Lib:Object

 0000:00000000       __except_list              00000000     <absolute>
 0000:000000e0       ___safe_se_handler_count   000000e0     <absolute>
 0000:00000000       ___ImageBase               00400000     <linker-defined>
 0001:00000000       ??1bad_alloc@std@@UAE@XZ   00401000 f i CCforLiveVisualsApp.obj
 0001:00000010       ??_Ebad_alloc@std@@UAEPAXI@Z 00401010 f i  CIL library: CIL module
 0001:00000010       ??_Gbad_alloc@std@@UAEPAXI@Z 00401010 f i CCforLiveVisualsApp.obj
 0001:00000040       ??_EResizeEvent@app@cinder@@UAEPAXI@Z 00401040 f i cinder:App.obj
 0001:00000040       ??_GMouseEvent@app@cinder@@UAEPAXI@Z 00401040 f i CCforLiveVisualsApp.obj
 0001:00000040       ??_EKeyEvent@app@cinder@@UAEPAXI@Z 00401040 f i cinder:App.obj
 0001:00000040       ??_GKeyEvent@app@cinder@@UAEPAXI@Z 00401040 f i cinder:App.obj
 0001:00000040       ??_GEvent@app@cinder@@UAEPAXI@Z 00401040 f i CCforLiveVisualsApp.obj
 0001:00000040       ??_EMouseEvent@app@cinder@@UAEPAXI@Z 00401040 f i  CIL library: CIL module
 0001:00000040       ??_EEvent@app@cinder@@UAEPAXI@Z 00401040 f i  CIL library: CIL module
 0001:00000040       ??_GResizeEvent@app@cinder@@UAEPAXI@Z 00401040 f i cinder:App.obj
 0001:00000070       ??1FileDropEvent@app@cinder@@UAE@XZ 00401070 f i CCforLiveVisualsApp.obj
 0001:000000c0       ??1Event@app@cinder@@UAE@XZ 004010c0 f i CCforLiveVisualsApp.obj
 0001:000000c0       ??1KeyEvent@app@cinder@@UAE@XZ 004010c0 f i CCforLiveVisualsApp.obj
 0001:000000c0       ??1ResizeEvent@app@cinder@@UAE@XZ 004010c0 f i CCforLiveVisualsApp.obj
 0001:000000c0       ??1MouseEvent@app@cinder@@UAE@XZ 004010c0 f i CCforLiveVisualsApp.obj
 0001:000000d0       ?resize@App@app@cinder@@UAEXVResizeEvent@23@@Z 004010d0 f i CCforLiveVisualsApp.obj
 0001:000000e0       ?fileDrop@App@app@cinder@@UAEXVFileDropEvent@23@@Z 004010e0 f i CCforLiveVisualsApp.obj
 0001:00000110       ??1TouchEvent@app@cinder@@UAE@XZ 00401110 f i CCforLiveVisualsApp.obj
 0001:00000140       ?touchesEnded@AppBasic@app@cinder@@UAEXVTouchEvent@23@@Z 00401140 f i CCforLiveVisualsApp.obj
 0001:00000140       ?touchesBegan@AppBasic@app@cinder@@UAEXVTouchEvent@23@@Z 00401140 f i CCforLiveVisualsApp.obj
 0001:00000140       ?touchesMoved@AppBasic@app@cinder@@UAEXVTouchEvent@23@@Z 00401140 f i CCforLiveVisualsApp.obj
 0001:00000160       ?getSettings@AppBasic@app@cinder@@UBEABVSettings@123@XZ 00401160 f i CCforLiveVisualsApp.obj
 0001:00000170       ?prepareSettings@CCforLiveVisualsApp@@UAEXPAVSettings@AppBasic@app@cinder@@@Z 00401170 f   CCforLiveVisualsApp.obj
 0001:000001a0       ?setup@CCforLiveVisualsApp@@UAEXXZ 004011a0 f   CCforLiveVisualsApp.obj
 0001:00000330       ?mouseDown@CCforLiveVisualsApp@@UAEXVMouseEvent@app@cinder@@@Z 00401330 f   CCforLiveVisualsApp.obj
 0001:00000340       ?mouseUp@CCforLiveVisualsApp@@UAEXVMouseEvent@app@cinder@@@Z 00401340 f   CCforLiveVisualsApp.obj
 0001:00000350       ?mouseMove@CCforLiveVisualsApp@@UAEXVMouseEvent@app@cinder@@@Z 00401350 f   CCforLiveVisualsApp.obj
 0001:000003a0       ?mouseDrag@CCforLiveVisualsApp@@UAEXVMouseEvent@app@cinder@@@Z 004013a0 f   CCforLiveVisualsApp.obj
 0001:00000420       ?keyDown@CCforLiveVisualsApp@@UAEXVKeyEvent@app@cinder@@@Z 00401420 f   CCforLiveVisualsApp.obj
 0001:000004b0       ?update@CCforLiveVisualsApp@@UAEXXZ 004014b0 f   CCforLiveVisualsApp.obj
 0001:000006d0       ?draw@CCforLiveVisualsApp@@UAEXXZ 004016d0 f   CCforLiveVisualsApp.obj
 0001:00000ad0       _WinMain@16                00401ad0 f   CCforLiveVisualsApp.obj
 0001:00000b30       ??0CCforLiveVisualsApp@@QAE@XZ 00401b30 f i CCforLiveVisualsApp.obj
 0001:00000c00       ??_GCCforLiveVisualsApp@@UAEPAXI@Z 00401c00 f i CCforLiveVisualsApp.obj
 0001:00000c00       ??_ECCforLiveVisualsApp@@UAEPAXI@Z 00401c00 f i  CIL library: CIL module
 0001:00000c30       ??1CCforLiveVisualsApp@@UAE@XZ 00401c30 f i CCforLiveVisualsApp.obj
 0001:00000c90       ??1?$basic_string@_WU?$char_traits@_W@std@@V?$allocator@_W@2@@std@@QAE@XZ 00401c90 f i CCforLiveVisualsApp.obj
 0001:00000c90       ??1path@filesystem3@boost@@QAE@XZ 00401c90 f i CCforLiveVisualsApp.obj
 0001:00000cc0       ??1?$vector@Vpath@filesystem3@boost@@V?$allocator@Vpath@filesystem3@boost@@@std@@@std@@QAE@XZ 00401cc0 f i CCforLiveVisualsApp.obj
 0001:00000cc0       ?_Tidy@?$vector@Vpath@filesystem3@boost@@V?$allocator@Vpath@filesystem3@boost@@@std@@@std@@IAEXXZ 00401cc0 f i CCforLiveVisualsApp.obj
 0001:00000d00       ??1?$vector@DV?$allocator@D@std@@@std@@QAE@XZ 00401d00 f i cinder:Utilities.obj
 0001:00000d00       ?_Tidy@?$vector@VTouch@TouchEvent@app@cinder@@V?$allocator@VTouch@TouchEvent@app@cinder@@@std@@@std@@IAEXXZ 00401d00 f i CCforLiveVisualsApp.obj
 0001:00000d00       ??1?$vector@VTouch@TouchEvent@app@cinder@@V?$allocator@VTouch@TouchEvent@app@cinder@@@std@@@std@@QAE@XZ 00401d00 f i CCforLiveVisualsApp.obj
 0001:00000d00       ??1?$vector@_WV?$allocator@_W@std@@@std@@QAE@XZ 00401d00 f i cinder:Utilities.obj
 0001:00000d30       ?_Tidy@?$basic_string@_WU?$char_traits@_W@std@@V?$allocator@_W@2@@std@@QAEX_NI@Z 00401d30 f i CCforLiveVisualsApp.obj
 0001:00000d80       ?_Destroy@?$vector@Vpath@filesystem3@boost@@V?$allocator@Vpath@filesystem3@boost@@@std@@@std@@IAEXPAVpath@filesystem3@boost@@0@Z 00401d80 f i CCforLiveVisualsApp.obj
 0001:00000dd0       ??0bad_alloc@std@@QAE@ABV01@@Z 00401dd0 f i CCforLiveVisualsApp.obj
 0001:00000df0       ??$_Buynode@VParticle@@@?$_List_val@VParticle@@V?$allocator@VParticle@@@std@@@std@@QAEPAU_Node@?$_List_nod@VParticle@@V?$allocator@VParticle@@@std@@@1@PAU231@0$$QAVParticle@@@Z 00401df0 f i CCforLiveVisualsApp.obj
 0001:00000e70       ??$_Destroy_range@V?$allocator@Vpath@filesystem3@boost@@@std@@@std@@YAXPAVpath@filesystem3@boost@@0AAV?$allocator@Vpath@filesystem3@boost@@@0@U_Nonscalar_ptr_iterator_tag@0@@Z 00401e70 f i CCforLiveVisualsApp.obj
 0001:00000eb0       ??$generate_uniform_real@V?$mersenne_twister_engine@I$0CA@$0CHA@$0BIN@$0BP@$0JJAILANP@$0L@$0PPPPPPPP@$06$0JNCMFGIA@$0P@$0OPMGAAAA@$0BC@$0GMAHIJGF@@random@boost@@M@detail@random@boost@@YAMAAV?$mersenne_twister_engine@I$0CA@$0CHA@$0BIN@$0BP@$0JJAILANP@$0L@$0PPPPPPPP@$06$0JNCMFGIA@$0P@$0OPMGAAAA@$0BC@$0GMAHIJGF@@12@MMU?$bool_@$00@mpl@2@@Z 00401eb0 f i CCforLiveVisualsApp.obj
 0001:00000f40       ??$_Dest_val@V?$allocator@Vpath@filesystem3@boost@@@std@@Vpath@filesystem3@boost@@@std@@YAXAAV?$allocator@Vpath@filesystem3@boost@@@0@PAVpath@filesystem3@boost@@@Z 00401f40 f i CCforLiveVisualsApp.obj
 0001:00000f70       ?twist@?$mersenne_twister_engine@I$0CA@$0CHA@$0BIN@$0BP@$0JJAILANP@$0L@$0PPPPPPPP@$06$0JNCMFGIA@$0P@$0OPMGAAAA@$0BC@$0GMAHIJGF@@random@boost@@AAEXXZ 00401f70 f i CCforLiveVisualsApp.obj
 0001:000012a0       ?getSeconds@Timer@cinder@@QBENXZ 004022a0 f   cinder:Timer.obj
 0001:000012e0       ??0Timer@cinder@@QAE@_N@Z  004022e0 f   cinder:Timer.obj
 0001:00001340       ?seed@?$mersenne_twister_engine@I$0CA@$0CHA@$0BIN@$0BP@$0JJAILANP@$0L@$0PPPPPPPP@$06$0JNCMFGIA@$0P@$0OPMGAAAA@$0BC@$0GMAHIJGF@@random@boost@@QAEXABI@Z 00402340 f i cinder:Rand.obj
 0001:000013a0       ?randomize@Rand@cinder@@SAXXZ 004023a0 f   cinder:Rand.obj
 0001:00001400       ?sp_enable_shared_from_this@detail@boost@@YAXZZ 00402400 f i cinder:CinderMsw.obj
 0001:00001400       ?on_process_enter@boost@@YAXXZ 00402400 f i libboost_thread-vc100-mt-s-1_48:thread.obj
 0001:00001400       ?prepareToggleFullScreen@Renderer@app@cinder@@UAEXXZ 00402400 f i cinder:Renderer.obj
 0001:00001400       ?startDraw@Renderer@app@cinder@@UAEXXZ 00402400 f i cinder:Renderer.obj
 0001:00001400       ?defaultResize@Renderer@app@cinder@@UAEXXZ 00402400 f i cinder:Renderer.obj
 0001:00001400       ?run@externally_launched_thread@?A0x3c55b58b@boost@@UAEXXZ 00402400 f i libboost_thread-vc100-mt-s-1_48:thread.obj
 0001:00001400       ?draw@App@app@cinder@@UAEXXZ 00402400 f i cinder:AppBasic.obj
 0001:00001400       ?setup@App@app@cinder@@UAEXXZ 00402400 f i cinder:AppBasic.obj
 0001:00001400       ??3@YAXPAX0@Z              00402400 f i CCforLiveVisualsApp.obj
 0001:00001400       ?kill@Renderer@app@cinder@@UAEXXZ 00402400 f i cinder:Renderer.obj
 0001:00001400       ?shutdown@App@app@cinder@@UAEXXZ 00402400 f i CCforLiveVisualsApp.obj
 0001:00001400       ?prepareLaunch@App@app@cinder@@KAXXZ 00402400 f i cinder:App.obj
 0001:00001400       ?tss_cleanup_implemented@boost@@YAXXZ 00402400 f i libboost_thread-vc100-mt-s-1_48:tss_pe.obj
 0001:00001400       ?loopStart@TimelineItem@cinder@@UAEXXZ 00402400 f i cinder:Timeline.obj
 0001:00001400       ?finishDraw@Renderer@app@cinder@@UAEXXZ 00402400 f i cinder:Renderer.obj
 0001:00001400       ?finalize@ImageTarget@cinder@@UAEXXZ 00402400 f i cinder:Surface.obj
 0001:00001400       ?cleanupLaunch@App@app@cinder@@KAXXZ 00402400 f i cinder:App.obj
 0001:00001400       ?update@App@app@cinder@@UAEXXZ 00402400 f i cinder:AppBasic.obj
 0001:00001400       ?toggleFullScreen@AppImplMsw@app@cinder@@UAEXXZ 00402400 f i cinder:AppImplMsw.obj
 0001:00001400       ?finishToggleFullScreen@Renderer@app@cinder@@UAEXXZ 00402400 f i cinder:Renderer.obj
 0001:00001410       ??_GRenderer@app@cinder@@UAEPAXI@Z 00402410 f i cinder:Renderer.obj
 0001:00001410       ??_ERenderer@app@cinder@@UAEPAXI@Z 00402410 f i cinder:Renderer.obj
 0001:00001440       ?getHwnd@RendererGl@app@cinder@@UAEPAUHWND__@@XZ 00402440 f i cinder:Renderer.obj
 0001:00001450       ?setAntiAliasing@RendererGl@app@cinder@@QAEXH@Z 00402450 f   cinder:Renderer.obj
 0001:00001460       ?setup@RendererGl@app@cinder@@UAEXPAVApp@23@PAUHWND__@@PAUHDC__@@@Z 00402460 f   cinder:Renderer.obj
 0001:000014f0       ?kill@RendererGl@app@cinder@@UAEXXZ 004024f0 f   cinder:Renderer.obj
 0001:00001500       ?prepareToggleFullScreen@RendererGl@app@cinder@@UAEXXZ 00402500 f   cinder:Renderer.obj
 0001:00001510       ?finishToggleFullScreen@RendererGl@app@cinder@@UAEXXZ 00402510 f   cinder:Renderer.obj
 0001:00001520       ?startDraw@RendererGl@app@cinder@@UAEXXZ 00402520 f   cinder:Renderer.obj
 0001:00001530       ?finishDraw@RendererGl@app@cinder@@UAEXXZ 00402530 f   cinder:Renderer.obj
 0001:00001540       ?defaultResize@RendererGl@app@cinder@@UAEXXZ 00402540 f   cinder:Renderer.obj
 0001:00001550       ??0RendererGl@app@cinder@@QAE@XZ 00402550 f   cinder:Renderer.obj
 0001:00001570       ??_ERendererGl@app@cinder@@UAEPAXI@Z 00402570 f i cinder:Renderer.obj
 0001:00001570       ??_GRendererGl@app@cinder@@UAEPAXI@Z 00402570 f i cinder:Renderer.obj
 0001:000015b0       ?copyWindowSurface@RendererGl@app@cinder@@UAE?AV?$SurfaceT@E@3@ABV?$AreaT@H@3@@Z 004025b0 f   cinder:Renderer.obj
 0001:000016b0       ?getWindowWidth@AppBasic@app@cinder@@UBEHXZ 004026b0 f   cinder:AppBasic.obj
 0001:000016c0       ?getWindowHeight@AppBasic@app@cinder@@UBEHXZ 004026c0 f   cinder:AppBasic.obj
 0001:000016d0       ?setWindowWidth@AppBasic@app@cinder@@UAEXH@Z 004026d0 f   cinder:AppBasic.obj
 0001:000016f0       ?setWindowHeight@AppBasic@app@cinder@@UAEXH@Z 004026f0 f   cinder:AppBasic.obj
 0001:00001710       ?setWindowSize@AppBasic@app@cinder@@UAEXHH@Z 00402710 f   cinder:AppBasic.obj
 0001:00001730       ?setWindowPos@AppBasic@app@cinder@@UAEXABV?$Vec2@H@3@@Z 00402730 f   cinder:AppBasic.obj
 0001:00001740       ?getFrameRate@AppBasic@app@cinder@@UBEMXZ 00402740 f   cinder:AppBasic.obj
 0001:00001750       ?setFrameRate@AppBasic@app@cinder@@UAEXM@Z 00402750 f   cinder:AppBasic.obj
 0001:00001770       ?isFullScreen@AppBasic@app@cinder@@UBE_NXZ 00402770 f   cinder:AppBasic.obj
 0001:00001780       ?setFullScreen@AppBasic@app@cinder@@UAEX_N@Z 00402780 f   cinder:AppBasic.obj
 0001:000017b0       ?isBorderless@AppBasic@app@cinder@@UBE_NXZ 004027b0 f   cinder:AppBasic.obj
 0001:000017c0       ?setBorderless@AppBasic@app@cinder@@UAEX_N@Z 004027c0 f   cinder:AppBasic.obj
 0001:000017d0       ?isAlwaysOnTop@AppBasic@app@cinder@@UBE_NXZ 004027d0 f   cinder:AppBasic.obj
 0001:000017e0       ?setAlwaysOnTop@AppBasic@app@cinder@@UAEX_N@Z 004027e0 f   cinder:AppBasic.obj
 0001:000017f0       ?quit@AppBasic@app@cinder@@UAEXXZ 004027f0 f   cinder:AppBasic.obj
 0001:00001800       ?privateResize__@AppBasic@app@cinder@@UAEXABVResizeEvent@23@@Z 00402800 f   cinder:AppBasic.obj
 0001:00001810       ?getWindowPos@AppBasic@app@cinder@@UBE?AV?$Vec2@H@3@XZ 00402810 f   cinder:AppBasic.obj
 0001:00001830       ?allocate@?$allocator@D@std@@QAEPADI@Z 00402830 f i cinder:AppBasic.obj
 0001:00001880       ?allocate@?$allocator@_W@std@@QAEPA_WI@Z 00402880 f i cinder:AppBasic.obj
 0001:000018e0       ?erase@?$basic_string@_WU?$char_traits@_W@std@@V?$allocator@_W@2@@std@@QAEAAV12@II@Z 004028e0 f i cinder:AppBasic.obj
 0001:00001970       ?allocate@?$allocator@VTouch@TouchEvent@app@cinder@@@std@@QAEPAVTouch@TouchEvent@app@cinder@@I@Z 00402970 f i cinder:AppBasic.obj
 0001:000019d0       ?_Copy@?$basic_string@_WU?$char_traits@_W@std@@V?$allocator@_W@2@@std@@QAEXII@Z 004029d0 f i cinder:AppBasic.obj
 0001:00001b50       ?_Tidy@?$basic_string@DU?$char_traits@D@std@@V?$allocator@D@2@@std@@QAEX_NI@Z 00402b50 f i cinder:AppBasic.obj
 0001:00001ba0       ?_Buy@?$vector@VTouch@TouchEvent@app@cinder@@V?$allocator@VTouch@TouchEvent@app@cinder@@@std@@@std@@IAE_NI@Z 00402ba0 f i cinder:AppBasic.obj
 0001:00001c00       ?erase@?$basic_string@DU?$char_traits@D@std@@V?$allocator@D@2@@std@@QAEAAV12@II@Z 00402c00 f i cinder:AppBasic.obj
 0001:00001c90       ?_Grow@?$basic_string@_WU?$char_traits@_W@std@@V?$allocator@_W@2@@std@@QAE_NI_N@Z 00402c90 f i cinder:AppBasic.obj
 0001:00001d50       ?_Copy@?$basic_string@DU?$char_traits@D@std@@V?$allocator@D@2@@std@@QAEXII@Z 00402d50 f i cinder:AppBasic.obj
 0001:00001ec0       ?getAppPath@AppBasic@app@cinder@@UAE?AVpath@filesystem3@boost@@XZ 00402ec0 f   cinder:AppBasic.obj
 0001:00001ef0       ??1?$pair@$$CBV?$basic_string@DU?$char_traits@D@std@@V?$allocator@D@2@@std@@PBU_GUID@@@std@@QAE@XZ 00402ef0 f i cinder:ImageTargetFileWic.obj
 0001:00001ef0       ??1?$basic_string@DU?$char_traits@D@std@@V?$allocator@D@2@@std@@QAE@XZ 00402ef0 f i cinder:AppBasic.obj
 0001:00001f20       ?assign@?$basic_string@_WU?$char_traits@_W@std@@V?$allocator@_W@2@@std@@QAEAAV12@ABV12@II@Z 00402f20 f i cinder:AppBasic.obj
 0001:00002020       ?_Grow@?$basic_string@DU?$char_traits@D@std@@V?$allocator@D@2@@std@@QAE_NI_N@Z 00403020 f i cinder:AppBasic.obj
 0001:000020d0       ?assign@?$basic_string@_WU?$char_traits@_W@std@@V?$allocator@_W@2@@std@@QAEAAV12@PB_WI@Z 004030d0 f i cinder:AppBasic.obj
 0001:000021c0       ??1Settings@AppBasic@app@cinder@@UAE@XZ 004031c0 f i cinder:AppBasic.obj
 0001:000021c0       ??1Settings@App@app@cinder@@MAE@XZ 004031c0 f i cinder:AppBasic.obj
 0001:000021f0       ??0Settings@AppBasic@app@cinder@@QAE@XZ 004031f0 f   cinder:AppBasic.obj
 0001:00002290       ??_GSettings@AppBasic@app@cinder@@UAEPAXI@Z 00403290 f i cinder:AppBasic.obj
 0001:00002290       ??_GSettings@App@app@cinder@@MAEPAXI@Z 00403290 f i cinder:AppBasic.obj
 0001:00002290       ??_ESettings@App@app@cinder@@MAEPAXI@Z 00403290 f i cinder:AppBasic.obj
 0001:00002290       ??_ESettings@AppBasic@app@cinder@@UAEPAXI@Z 00403290 f i cinder:AppBasic.obj
 0001:000022e0       ?assign@?$basic_string@DU?$char_traits@D@std@@V?$allocator@D@2@@std@@QAEAAV12@ABV12@II@Z 004032e0 f i cinder:AppBasic.obj
 0001:000023d0       ?assign@?$basic_string@DU?$char_traits@D@std@@V?$allocator@D@2@@std@@QAEAAV12@PBDI@Z 004033d0 f i cinder:AppBasic.obj
 0001:000024d0       ??$_Uninit_copy@V?$_Vector_const_iterator@V?$_Vector_val@VTouch@TouchEvent@app@cinder@@V?$allocator@VTouch@TouchEvent@app@cinder@@@std@@@std@@@std@@PAVTouch@TouchEvent@app@cinder@@V?$allocator@VTouch@TouchEvent@app@cinder@@@2@@std@@YAPAVTouch@TouchEvent@app@cinder@@V?$_Vector_const_iterator@V?$_Vector_val@VTouch@TouchEvent@app@cinder@@V?$allocator@VTouch@TouchEvent@app@cinder@@@std@@@std@@@0@0PAV1234@AAV?$allocator@VTouch@TouchEvent@app@cinder@@@0@U_Nonscalar_ptr_iterator_tag@0@@Z 004034d0 f i cinder:AppBasic.obj
 0001:00002520       ??0?$basic_string@_WU?$char_traits@_W@std@@V?$allocator@_W@2@@std@@QAE@PB_W@Z 00403520 f i cinder:AppBasic.obj
 0001:00002570       ??0?$basic_string@DU?$char_traits@D@std@@V?$allocator@D@2@@std@@QAE@PBD@Z 00403570 f i cinder:AppBasic.obj
 0001:000025b0       ?assign@?$basic_string@DU?$char_traits@D@std@@V?$allocator@D@2@@std@@QAEAAV12@$$QAV12@@Z 004035b0 f i cinder:AppBasic.obj
 0001:00002630       ??0?$vector@VTouch@TouchEvent@app@cinder@@V?$allocator@VTouch@TouchEvent@app@cinder@@@std@@@std@@QAE@ABV01@@Z 00403630 f i cinder:AppBasic.obj
 0001:00002710       ??$_Destroy_range@V?$allocator@V?$basic_string@DU?$char_traits@D@std@@V?$allocator@D@2@@std@@@std@@@std@@YAXPAV?$basic_string@DU?$char_traits@D@std@@V?$allocator@D@2@@0@0AAV?$allocator@V?$basic_string@DU?$char_traits@D@std@@V?$allocator@D@2@@std@@@0@U_Nonscalar_ptr_iterator_tag@0@@Z 00403710 f i cinder:AppBasic.obj
 0001:00002750       ??$_Destroy_range@V?$allocator@U?$pair@IV?$function@$$A6A_NVKeyEvent@app@cinder@@@Z@tr1@std@@@std@@@std@@@std@@YAXPAU?$pair@IV?$function@$$A6A_NVKeyEvent@app@cinder@@@Z@tr1@std@@@0@0AAV?$allocator@U?$pair@IV?$function@$$A6A_NVKeyEvent@app@cinder@@@Z@tr1@std@@@std@@@0@U_Nonscalar_ptr_iterator_tag@0@@Z 00403750 f i cinder:App.obj
 0001:00002750       ??$_Destroy_range@V?$allocator@U?$pair@IV?$function@$$A6A_NVMouseEvent@app@cinder@@@Z@tr1@std@@@std@@@std@@@std@@YAXPAU?$pair@IV?$function@$$A6A_NVMouseEvent@app@cinder@@@Z@tr1@std@@@0@0AAV?$allocator@U?$pair@IV?$function@$$A6A_NVMouseEvent@app@cinder@@@Z@tr1@std@@@std@@@0@U_Nonscalar_ptr_iterator_tag@0@@Z 00403750 f i cinder:App.obj
 0001:00002750       ??$_Destroy_range@V?$allocator@U?$pair@IV?$function@$$A6A_NVResizeEvent@app@cinder@@@Z@tr1@std@@@std@@@std@@@std@@YAXPAU?$pair@IV?$function@$$A6A_NVResizeEvent@app@cinder@@@Z@tr1@std@@@0@0AAV?$allocator@U?$pair@IV?$function@$$A6A_NVResizeEvent@app@cinder@@@Z@tr1@std@@@std@@@0@U_Nonscalar_ptr_iterator_tag@0@@Z 00403750 f i cinder:App.obj
 0001:00002750       ??$_Destroy_range@V?$allocator@U?$pair@IV?$function@$$A6A_NVFileDropEvent@app@cinder@@@Z@tr1@std@@@std@@@std@@@std@@YAXPAU?$pair@IV?$function@$$A6A_NVFileDropEvent@app@cinder@@@Z@tr1@std@@@0@0AAV?$allocator@U?$pair@IV?$function@$$A6A_NVFileDropEvent@app@cinder@@@Z@tr1@std@@@std@@@0@U_Nonscalar_ptr_iterator_tag@0@@Z 00403750 f i cinder:App.obj
 0001:00002750       ??$_Destroy_range@V?$allocator@U?$pair@IV?$function@$$A6A_NVTouchEvent@app@cinder@@@Z@tr1@std@@@std@@@std@@@std@@YAXPAU?$pair@IV?$function@$$A6A_NVTouchEvent@app@cinder@@@Z@tr1@std@@@0@0AAV?$allocator@U?$pair@IV?$function@$$A6A_NVTouchEvent@app@cinder@@@Z@tr1@std@@@std@@@0@U_Nonscalar_ptr_iterator_tag@0@@Z 00403750 f i cinder:AppBasic.obj
 0001:00002790       ??_ETouchEvent@app@cinder@@UAEPAXI@Z 00403790 f i cinder:AppBasic.obj
 0001:00002790       ??_GTouchEvent@app@cinder@@UAEPAXI@Z 00403790 f i cinder:AppBasic.obj
 0001:000027e0       ??$_Uninit_move@PAV?$basic_string@DU?$char_traits@D@std@@V?$allocator@D@2@@std@@PAV12@V?$allocator@V?$basic_string@DU?$char_traits@D@std@@V?$allocator@D@2@@std@@@2@V12@@std@@YAPAV?$basic_string@DU?$char_traits@D@std@@V?$allocator@D@2@@0@PAV10@00AAV?$allocator@V?$basic_string@DU?$char_traits@D@std@@V?$allocator@D@2@@std@@@0@0U_Nonscalar_ptr_iterator_tag@0@@Z 004037e0 f i cinder:AppBasic.obj
 0001:000028a0       ?privateTouchesBegan__@AppBasic@app@cinder@@QAEXABVTouchEvent@23@@Z 004038a0 f   cinder:AppBasic.obj
 0001:00002a00       ?privateTouchesMoved__@AppBasic@app@cinder@@QAEXABVTouchEvent@23@@Z 00403a00 f   cinder:AppBasic.obj
 0001:00002b60       ?privateTouchesEnded__@AppBasic@app@cinder@@QAEXABVTouchEvent@23@@Z 00403b60 f   cinder:AppBasic.obj
 0001:00002cc0       ??1?$vector@V?$basic_string@DU?$char_traits@D@std@@V?$allocator@D@2@@std@@V?$allocator@V?$basic_string@DU?$char_traits@D@std@@V?$allocator@D@2@@std@@@2@@std@@QAE@XZ 00403cc0 f i cinder:AppBasic.obj
 0001:00002d10       ?reserve@?$vector@V?$basic_string@DU?$char_traits@D@std@@V?$allocator@D@2@@std@@V?$allocator@V?$basic_string@DU?$char_traits@D@std@@V?$allocator@D@2@@std@@@2@@std@@QAEXI@Z 00403d10 f i cinder:AppBasic.obj
 0001:00002e30       ??1AppBasic@app@cinder@@UAE@XZ 00403e30 f   cinder:AppBasic.obj
 0001:00003010       ?mouseDown@App@app@cinder@@UAEXVMouseEvent@23@@Z 00404010 f i cinder:AppBasic.obj
 0001:00003010       ?mouseMove@App@app@cinder@@UAEXVMouseEvent@23@@Z 00404010 f i cinder:AppBasic.obj
 0001:00003010       ?mouseWheel@App@app@cinder@@UAEXVMouseEvent@23@@Z 00404010 f i CCforLiveVisualsApp.obj
 0001:00003010       ?mouseDrag@App@app@cinder@@UAEXVMouseEvent@23@@Z 00404010 f i cinder:AppBasic.obj
 0001:00003010       ?mouseUp@App@app@cinder@@UAEXVMouseEvent@23@@Z 00404010 f i cinder:AppBasic.obj
 0001:00003020       ?keyDown@App@app@cinder@@UAEXVKeyEvent@23@@Z 00404020 f i cinder:AppBasic.obj
 0001:00003020       ?keyUp@App@app@cinder@@UAEXVKeyEvent@23@@Z 00404020 f i CCforLiveVisualsApp.obj
 0001:00003030       ?_Reserve@?$vector@V?$basic_string@DU?$char_traits@D@std@@V?$allocator@D@2@@std@@V?$allocator@V?$basic_string@DU?$char_traits@D@std@@V?$allocator@D@2@@std@@@2@@std@@IAEXI@Z 00404030 f i cinder:AppBasic.obj
 0001:000030b0       ??0AppBasic@app@cinder@@QAE@XZ 004040b0 f   cinder:AppBasic.obj
 0001:00003170       ??_GAppBasic@app@cinder@@UAEPAXI@Z 00404170 f i cinder:AppBasic.obj
 0001:00003170       ??_EAppBasic@app@cinder@@UAEPAXI@Z 00404170 f i cinder:AppBasic.obj
 0001:000031a0       ?push_back@?$vector@V?$basic_string@DU?$char_traits@D@std@@V?$allocator@D@2@@std@@V?$allocator@V?$basic_string@DU?$char_traits@D@std@@V?$allocator@D@2@@std@@@2@@std@@QAEX$$QAV?$basic_string@DU?$char_traits@D@std@@V?$allocator@D@2@@2@@Z 004041a0 f i cinder:AppBasic.obj
 0001:00003270       ?executeLaunch@AppBasic@app@cinder@@SAXPAV123@PAVRenderer@23@PBD@Z 00404270 f   cinder:AppBasic.obj
 0001:00003480       ?launch@AppBasic@app@cinder@@UAEXPBDHQBQAD@Z 00404480 f   cinder:AppBasic.obj
 0001:00003600       ?_Get_deleter@_Ref_count_base@tr1@std@@UBEPAXABVtype_info@@@Z 00404600 f i cinder:App.obj
 0001:00003610       ??1runtime_error@std@@UAE@XZ 00404610 f i cinder:App.obj
 0001:00003620       ??Bid@locale@std@@QAEIXZ   00404620 f i cinder:App.obj
 0001:00003660       ?_Incref@facet@locale@std@@QAEXXZ 00404660 f i cinder:App.obj
 0001:00003690       ?_Decref@facet@locale@std@@QAEPAV123@XZ 00404690 f i cinder:App.obj
 0001:000036d0       ??1locale@std@@QAE@XZ      004046d0 f i cinder:App.obj
 0001:00003720       ?_Getfacet@locale@std@@QBEPBVfacet@12@I@Z 00404720 f i cinder:App.obj
 0001:00003760       ??_Efacet@locale@std@@UAEPAXI@Z 00404760 f i cinder:App.obj
 0001:00003760       ??_Gfacet@locale@std@@UAEPAXI@Z 00404760 f i cinder:App.obj
 0001:00003790       ?getloc@ios_base@std@@QBE?AVlocale@2@XZ 00404790 f i cinder:App.obj
 0001:000037d0       ?privateDraw__@App@app@cinder@@UAEXXZ 004047d0 f   cinder:App.obj
 0001:000037e0       ?privateShutdown__@App@app@cinder@@UAEXXZ 004047e0 f   cinder:App.obj
 0001:000037f0       ?setWindowSize@Settings@App@app@cinder@@QAEXHH@Z 004047f0 f   cinder:App.obj
 0001:00003810       ?setFrameRate@Settings@App@app@cinder@@QAEXM@Z 00404810 f   cinder:App.obj
 0001:00003820       ?_Destroy@?$_Ref_count@VTimeline@cinder@@@tr1@std@@EAEXXZ 00404820 f i cinder:App.obj
 0001:00003820       ?_Destroy@?$_Ref_count@VRenderer@app@cinder@@@tr1@std@@EAEXXZ 00404820 f i cinder:App.obj
 0001:00003830       ??0?$ctype@D@std@@QAE@ABV_Locinfo@1@I@Z 00404830 f i cinder:App.obj
 0001:00003880       ?do_tolower@?$ctype@D@std@@MBEDD@Z 00404880 f i cinder:App.obj
 0001:000038a0       ?do_tolower@?$ctype@D@std@@MBEPBDPADPBD@Z 004048a0 f i cinder:App.obj
 0001:000038d0       ?do_toupper@?$ctype@D@std@@MBEDD@Z 004048d0 f i cinder:App.obj
 0001:000038f0       ?do_toupper@?$ctype@D@std@@MBEPBDPADPBD@Z 004048f0 f i cinder:App.obj
 0001:00003920       ?do_widen@?$ctype@D@std@@MBEDD@Z 00404920 f i cinder:App.obj
 0001:00003930       ?do_widen@?$ctype@D@std@@MBEPBDPBD0PAD@Z 00404930 f i cinder:App.obj
 0001:00003960       ?do_narrow@?$ctype@D@std@@MBEDDD@Z 00404960 f i cinder:App.obj
 0001:00003970       ?do_narrow@?$ctype@D@std@@MBEPBDPBD0DPAD@Z 00404970 f i cinder:App.obj
 0001:000039a0       ??_E?$ctype@D@std@@MAEPAXI@Z 004049a0 f i cinder:App.obj
 0001:000039a0       ??_G?$ctype@D@std@@MAEPAXI@Z 004049a0 f i cinder:App.obj
 0001:000039f0       ??0runtime_error@std@@QAE@ABV01@@Z 004049f0 f i cinder:App.obj
 0001:00003a10       ??1?$_Yarn@D@std@@QAE@XZ   00404a10 f i cinder:App.obj
 0001:00003a30       ?allocate@?$allocator@V?$basic_string@DU?$char_traits@D@std@@V?$allocator@D@2@@std@@@std@@QAEPAV?$basic_string@DU?$char_traits@D@std@@V?$allocator@D@2@@2@I@Z 00404a30 f i cinder:AppBasic.obj
 0001:00003a30       ?allocate@?$allocator@Vpath@filesystem3@boost@@@std@@QAEPAVpath@filesystem3@boost@@I@Z 00404a30 f i cinder:App.obj
 0001:00003a90       ??_E?$_Ref_count_del@UIWICImagingFactory@@P6AXPAX@Z@tr1@std@@UAEPAXI@Z 00404a90 f i cinder:ImageSourceFileWic.obj
 0001:00003a90       ??_G?$_Ref_count@UObj@?$SurfaceT@E@cinder@@@tr1@std@@UAEPAXI@Z 00404a90 f i cinder:Surface.obj
 0001:00003a90       ??_G?$_Ref_count@VDisplay@cinder@@@tr1@std@@UAEPAXI@Z 00404a90 f i cinder:Display.obj
 0001:00003a90       ??_E?$_Ref_count@UObj@?$SurfaceT@E@cinder@@@tr1@std@@UAEPAXI@Z 00404a90 f i cinder:Surface.obj
 0001:00003a90       ??_E?$_Ref_count_del@UIWICBitmapFrameDecode@@P6AXPAX@Z@tr1@std@@UAEPAXI@Z 00404a90 f i cinder:ImageSourceFileWic.obj
 0001:00003a90       ??_E?$_Ref_count@VDisplay@cinder@@@tr1@std@@UAEPAXI@Z 00404a90 f i cinder:Display.obj
 0001:00003a90       ??_G?$_Ref_count_del@UIWICFormatConverter@@P6AXPAX@Z@tr1@std@@UAEPAXI@Z 00404a90 f i cinder:ImageSourceFileWic.obj
 0001:00003a90       ??_E?$_Ref_count@VRenderer@app@cinder@@@tr1@std@@UAEPAXI@Z 00404a90 f i cinder:App.obj
 0001:00003a90       ??_G?$_Ref_count_del@UtagTOUCHINPUT@@U?$checked_array_deleter@UtagTOUCHINPUT@@@boost@@@tr1@std@@UAEPAXI@Z 00404a90 f i cinder:AppImplMswBasic.obj
 0001:00003a90       ??_G?$_Ref_count@VImageSourceFileWic@cinder@@@tr1@std@@UAEPAXI@Z 00404a90 f i cinder:ImageSourceFileWic.obj
 0001:00003a90       ??_E?$_Ref_count_del@EP6AXPAE@Z@tr1@std@@UAEPAXI@Z 00404a90 f i cinder:Texture.obj
 0001:00003a90       ??_E?$_Ref_count@UObj@?$ChannelT@E@cinder@@@tr1@std@@UAEPAXI@Z 00404a90 f i cinder:Channel.obj
 0001:00003a90       ??_E?$_Ref_count@VImageTargetFileWic@cinder@@@tr1@std@@UAEPAXI@Z 00404a90 f i cinder:ImageTargetFileWic.obj
 0001:00003a90       ??_E?$_Ref_count@UInst@ImageIoRegistrar@cinder@@@tr1@std@@UAEPAXI@Z 00404a90 f i cinder:ImageIo.obj
 0001:00003a90       ??_E?$_Ref_count_del@VComOStream@msw@cinder@@P6AXPAX@Z@tr1@std@@UAEPAXI@Z 00404a90 f i cinder:ImageTargetFileWic.obj
 0001:00003a90       ??_E?$_Ref_count_del@UIWICBitmapDecoder@@P6AXPAX@Z@tr1@std@@UAEPAXI@Z 00404a90 f i cinder:ImageSourceFileWic.obj
 0001:00003a90       ??_G?$_Ref_count_del@EP6AXPAE@Z@tr1@std@@UAEPAXI@Z 00404a90 f i cinder:Texture.obj
 0001:00003a90       ??_G?$_Ref_count_del@UIWICStream@@P6AXPAX@Z@tr1@std@@UAEPAXI@Z 00404a90 f i cinder:ImageSourceFileWic.obj
 0001:00003a90       ??_G?$_Ref_count@VTimeline@cinder@@@tr1@std@@UAEPAXI@Z 00404a90 f i cinder:App.obj
 0001:00003a90       ??_E?$_Ref_count_del@UtagTOUCHINPUT@@U?$checked_array_deleter@UtagTOUCHINPUT@@@boost@@@tr1@std@@UAEPAXI@Z 00404a90 f i cinder:AppImplMswBasic.obj
 0001:00003a90       ??_G?$_Ref_count_del@UIWICBitmapFrameEncode@@P6AXPAX@Z@tr1@std@@UAEPAXI@Z 00404a90 f i cinder:ImageTargetFileWic.obj
 0001:00003a90       ??_E?$_Ref_count_del@UIWICBitmapFrameEncode@@P6AXPAX@Z@tr1@std@@UAEPAXI@Z 00404a90 f i cinder:ImageTargetFileWic.obj
 0001:00003a90       ??_G?$_Ref_count@VRenderer@app@cinder@@@tr1@std@@UAEPAXI@Z 00404a90 f i cinder:App.obj
 0001:00003a90       ??_G?$_Ref_count_del@UIWICBitmapDecoder@@P6AXPAX@Z@tr1@std@@UAEPAXI@Z 00404a90 f i cinder:ImageSourceFileWic.obj
 0001:00003a90       ??_G?$_Ref_count@UInst@ImageIoRegistrar@cinder@@@tr1@std@@UAEPAXI@Z 00404a90 f i cinder:ImageIo.obj
 0001:00003a90       ??_G?$_Ref_count_del@UIWICImagingFactory@@P6AXPAX@Z@tr1@std@@UAEPAXI@Z 00404a90 f i cinder:ImageSourceFileWic.obj
 0001:00003a90       ??_E?$_Ref_count@V?$map@V?$basic_string@DU?$char_traits@D@std@@V?$allocator@D@2@@std@@PBU_GUID@@U?$less@V?$basic_string@DU?$char_traits@D@std@@V?$allocator@D@2@@std@@@2@V?$allocator@U?$pair@$$CBV?$basic_string@DU?$char_traits@D@std@@V?$allocator@D@2@@std@@PBU_GUID@@@std@@@2@@std@@@tr1@std@@UAEPAXI@Z 00404a90 f i cinder:ImageTargetFileWic.obj
 0001:00003a90       ??_E?$_Ref_count_del@UIWICFormatConverter@@P6AXPAX@Z@tr1@std@@UAEPAXI@Z 00404a90 f i cinder:ImageSourceFileWic.obj
 0001:00003a90       ??_G_Ref_count_base@tr1@std@@UAEPAXI@Z 00404a90 f i cinder:App.obj
 0001:00003a90       ??_G?$_Ref_count@VImageTargetFileWic@cinder@@@tr1@std@@UAEPAXI@Z 00404a90 f i cinder:ImageTargetFileWic.obj
 0001:00003a90       ??_E_Ref_count_base@tr1@std@@UAEPAXI@Z 00404a90 f i cinder:App.obj
 0001:00003a90       ??_E?$_Ref_count@VTimeline@cinder@@@tr1@std@@UAEPAXI@Z 00404a90 f i cinder:App.obj
 0001:00003a90       ??_E?$_Ref_count_del@UIWICStream@@P6AXPAX@Z@tr1@std@@UAEPAXI@Z 00404a90 f i cinder:ImageSourceFileWic.obj
 0001:00003a90       ??_G?$_Ref_count_del@UIWICBitmapEncoder@@P6AXPAX@Z@tr1@std@@UAEPAXI@Z 00404a90 f i cinder:ImageTargetFileWic.obj
 0001:00003a90       ??_G?$_Ref_count_del@UIWICBitmapFrameDecode@@P6AXPAX@Z@tr1@std@@UAEPAXI@Z 00404a90 f i cinder:ImageSourceFileWic.obj
 0001:00003a90       ??_E?$_Ref_count@VImageSourceFileWic@cinder@@@tr1@std@@UAEPAXI@Z 00404a90 f i cinder:ImageSourceFileWic.obj
 0001:00003a90       ??_E?$_Ref_count_del@UIWICBitmapEncoder@@P6AXPAX@Z@tr1@std@@UAEPAXI@Z 00404a90 f i cinder:ImageTargetFileWic.obj
 0001:00003a90       ??_G?$_Ref_count_del@VComOStream@msw@cinder@@P6AXPAX@Z@tr1@std@@UAEPAXI@Z 00404a90 f i cinder:ImageTargetFileWic.obj
 0001:00003a90       ??_G?$_Ref_count@V?$map@V?$basic_string@DU?$char_traits@D@std@@V?$allocator@D@2@@std@@PBU_GUID@@U?$less@V?$basic_string@DU?$char_traits@D@std@@V?$allocator@D@2@@std@@@2@V?$allocator@U?$pair@$$CBV?$basic_string@DU?$char_traits@D@std@@V?$allocator@D@2@@std@@PBU_GUID@@@std@@@2@@std@@@tr1@std@@UAEPAXI@Z 00404a90 f i cinder:ImageTargetFileWic.obj
 0001:00003a90       ??_G?$_Ref_count@UObj@?$ChannelT@E@cinder@@@tr1@std@@UAEPAXI@Z 00404a90 f i cinder:Channel.obj
 0001:00003ac0       ??$_Do_enable@VTimeline@cinder@@VTimelineItem@2@@tr1@std@@YAXPAVTimeline@cinder@@PAV?$enable_shared_from_this@VTimelineItem@cinder@@@01@PAV_Ref_count_base@01@@Z 00404ac0 f i cinder:App.obj
 0001:00003b20       ??0_Locinfo@std@@QAE@PBD@Z 00404b20 f i cinder:App.obj
 0001:00003bd0       ??1_Locinfo@std@@QAE@XZ    00404bd0 f i cinder:App.obj
 0001:00003c80       ?_Getcat@?$ctype@D@std@@SAIPAPBVfacet@locale@2@PBV42@@Z 00404c80 f i cinder:App.obj
 0001:00003d60       ?privateSetup__@App@app@cinder@@UAEXXZ 00404d60 f   cinder:App.obj
 0001:00003d90       ?privateUpdate__@App@app@cinder@@UAEXXZ 00404d90 f   cinder:App.obj
 0001:00003e10       ??$use_facet@V?$ctype@D@std@@@std@@YAABV?$ctype@D@0@ABVlocale@0@@Z 00404e10 f i cinder:App.obj
 0001:00003f50       ??$?0V?$basic_string@DU?$char_traits@D@std@@V?$allocator@D@2@@std@@@path@filesystem3@boost@@QAE@ABV?$basic_string@DU?$char_traits@D@std@@V?$allocator@D@2@@std@@PAX@Z 00404f50 f i cinder:App.obj
 0001:00003fe0       ??$_Resetp@VRenderer@app@cinder@@@?$shared_ptr@VRenderer@app@cinder@@@tr1@std@@AAEXPAVRenderer@app@cinder@@@Z 00404fe0 f i cinder:App.obj
 0001:00004080       ?privateMouseDown__@App@app@cinder@@QAEXABVMouseEvent@23@@Z 00405080 f   cinder:App.obj
 0001:000041c0       ?privateMouseUp__@App@app@cinder@@QAEXABVMouseEvent@23@@Z 004051c0 f   cinder:App.obj
 0001:00004300       ?privateMouseWheel__@App@app@cinder@@QAEXABVMouseEvent@23@@Z 00405300 f   cinder:App.obj
 0001:00004440       ?privateMouseMove__@App@app@cinder@@QAEXABVMouseEvent@23@@Z 00405440 f   cinder:App.obj
 0001:00004580       ?privateMouseDrag__@App@app@cinder@@QAEXABVMouseEvent@23@@Z 00405580 f   cinder:App.obj
 0001:000046c0       ?privateKeyDown__@App@app@cinder@@QAEXABVKeyEvent@23@@Z 004056c0 f   cinder:App.obj
 0001:000047e0       ?privateKeyUp__@App@app@cinder@@QAEXABVKeyEvent@23@@Z 004057e0 f   cinder:App.obj
 0001:00004900       ?privateResize__@App@app@cinder@@UAEXABVResizeEvent@23@@Z 00405900 f   cinder:App.obj
 0001:00004a00       ??0Settings@App@app@cinder@@IAE@XZ 00405a00 f   cinder:App.obj
 0001:00004a50       ??0?$basic_string@_WU?$char_traits@_W@std@@V?$allocator@_W@2@@std@@QAE@ABV01@@Z 00405a50 f i cinder:App.obj
 0001:00004a80       ??$_Resetp@VTimeline@cinder@@@?$shared_ptr@VTimeline@cinder@@@tr1@std@@AAEXPAVTimeline@cinder@@@Z 00405a80 f i cinder:App.obj
 0001:00004a80       ??$_Resetp@VTimeline@cinder@@@?$shared_ptr@VTimelineItem@cinder@@@tr1@std@@AAEXPAVTimeline@cinder@@@Z 00405a80 f i cinder:Timeline.obj
 0001:00004b20       ??0?$basic_string@DU?$char_traits@D@std@@V?$allocator@D@2@@std@@QAE@ABV01@@Z 00405b20 f i cinder:App.obj
 0001:00004b50       ?create@Timeline@cinder@@SA?AV?$shared_ptr@VTimeline@cinder@@@tr1@std@@XZ 00405b50 f i cinder:App.obj
 0001:00004be0       ?executeLaunch@App@app@cinder@@KAXPAV123@PAVRenderer@23@PBDHQBQAD@Z 00405be0 f   cinder:App.obj
 0001:00004ca0       ??$_Uninit_copy@V?$_Vector_const_iterator@V?$_Vector_val@Vpath@filesystem3@boost@@V?$allocator@Vpath@filesystem3@boost@@@std@@@std@@@std@@PAVpath@filesystem3@boost@@V?$allocator@Vpath@filesystem3@boost@@@2@@std@@YAPAVpath@filesystem3@boost@@V?$_Vector_const_iterator@V?$_Vector_val@Vpath@filesystem3@boost@@V?$allocator@Vpath@filesystem3@boost@@@std@@@std@@@0@0PAV123@AAV?$allocator@Vpath@filesystem3@boost@@@0@U_Nonscalar_ptr_iterator_tag@0@@Z 00405ca0 f i cinder:App.obj
 0001:00004d60       ??$_Uninit_move@PAVpath@filesystem3@boost@@PAV123@V?$allocator@Vpath@filesystem3@boost@@@std@@V123@@std@@YAPAVpath@filesystem3@boost@@PAV123@00AAV?$allocator@Vpath@filesystem3@boost@@@0@0U_Nonscalar_ptr_iterator_tag@0@@Z 00405d60 f i cinder:App.obj
 0001:00004e20       ?string@path@filesystem3@boost@@QBE?BV?$basic_string@DU?$char_traits@D@std@@V?$allocator@D@2@@std@@ABV?$codecvt@_WDH@5@@Z 00405e20 f i cinder:App.obj
 0001:00004eb0       ?string@path@filesystem3@boost@@QBE?BV?$basic_string@DU?$char_traits@D@std@@V?$allocator@D@2@@std@@XZ 00405eb0 f i cinder:App.obj
 0001:00004ee0       ?reserve@?$vector@Vpath@filesystem3@boost@@V?$allocator@Vpath@filesystem3@boost@@@std@@@std@@QAEXI@Z 00405ee0 f i cinder:App.obj
 0001:00005000       ??0?$vector@Vpath@filesystem3@boost@@V?$allocator@Vpath@filesystem3@boost@@@std@@@std@@QAE@ABV01@@Z 00406000 f i cinder:App.obj
 0001:000050e0       ?_Reserve@?$vector@Vpath@filesystem3@boost@@V?$allocator@Vpath@filesystem3@boost@@@std@@@std@@IAEXI@Z 004060e0 f i cinder:App.obj
 0001:00005160       ??1?$CallbackMgr@$$A6A_NVMouseEvent@app@cinder@@@Z@cinder@@QAE@XZ 00406160 f i cinder:App.obj
 0001:00005160       ??1?$CallbackMgr@$$A6A_NVKeyEvent@app@cinder@@@Z@cinder@@QAE@XZ 00406160 f i cinder:App.obj
 0001:00005160       ??1?$CallbackMgr@$$A6A_NVResizeEvent@app@cinder@@@Z@cinder@@QAE@XZ 00406160 f i cinder:App.obj
 0001:00005160       ??1?$CallbackMgr@$$A6A_NVTouchEvent@app@cinder@@@Z@cinder@@QAE@XZ 00406160 f i cinder:AppBasic.obj
 0001:000051b0       ??1App@app@cinder@@UAE@XZ  004061b0 f   cinder:App.obj
 0001:00005530       ?setBorderless@App@app@cinder@@UAEX_N@Z 00406530 f i cinder:App.obj
 0001:00005530       ?prepareSettings@AppBasic@app@cinder@@UAEXPAVSettings@123@@Z 00406530 f i cinder:AppBasic.obj
 0001:00005530       ?setAlwaysOnTop@App@app@cinder@@UAEX_N@Z 00406530 f i cinder:App.obj
 0001:00005530       ?start@Timeline@cinder@@MAEX_N@Z 00406530 f i cinder:Timeline.obj
 0001:00005530       ?setWindowPos@App@app@cinder@@UAEXABV?$Vec2@H@3@@Z 00406530 f i cinder:App.obj
 0001:00005530       ?complete@Timeline@cinder@@MAEX_N@Z 00406530 f i cinder:Timeline.obj
 0001:00005530       ?setWindowWidth@AppImplMsw@app@cinder@@UAEXH@Z 00406530 f i cinder:AppImplMsw.obj
 0001:00005530       ?setWindowHeight@AppImplMsw@app@cinder@@UAEXH@Z 00406530 f i cinder:AppImplMsw.obj
 0001:00005540       ?getWindowPos@App@app@cinder@@UBE?AV?$Vec2@H@3@XZ 00406540 f i cinder:App.obj
 0001:00005560       ??R?$_Function_impl1@_NVFileDropEvent@app@cinder@@@tr1@std@@QBE_NVFileDropEvent@app@cinder@@@Z 00406560 f i cinder:App.obj
 0001:00005620       ??_EFileDropEvent@app@cinder@@UAEPAXI@Z 00406620 f i cinder:App.obj
 0001:00005620       ??_GFileDropEvent@app@cinder@@UAEPAXI@Z 00406620 f i cinder:App.obj
 0001:00005680       ??0App@app@cinder@@QAE@XZ  00406680 f   cinder:App.obj
 0001:000057b0       ??_GApp@app@cinder@@UAEPAXI@Z 004067b0 f i cinder:App.obj
 0001:000057b0       ??_EApp@app@cinder@@UAEPAXI@Z 004067b0 f i cinder:App.obj
 0001:000057e0       ?privateFileDrop__@App@app@cinder@@QAEXABVFileDropEvent@23@@Z 004067e0 f   cinder:App.obj
 0001:000058e0       ??0Exception@cinder@@QAE@ABV01@@Z 004068e0 f i cinder:App.obj
 0001:00005900       ?compare@?$char_traits@D@std@@SAHPBD0I@Z 00406900 f i cinder:gl.obj
 0001:00005980       ??_ECameraPersp@cinder@@UAEPAXI@Z 00406980 f i cinder:Camera.obj
 0001:00005980       ??_GCamera@cinder@@UAEPAXI@Z 00406980 f i cinder:gl.obj
 0001:00005980       ??_GCameraPersp@cinder@@UAEPAXI@Z 00406980 f i cinder:Camera.obj
 0001:00005980       ??_ECamera@cinder@@UAEPAXI@Z 00406980 f i cinder:gl.obj
 0001:000059b0       ?clear@gl@cinder@@YAXABV?$ColorAT@M@2@_N@Z 004069b0 f   cinder:gl.obj
 0001:00005a10       ??1CameraPersp@cinder@@UAE@XZ 00406a10 f i cinder:gl.obj
 0001:00005a10       ??1Camera@cinder@@UAE@XZ   00406a10 f i cinder:gl.obj
 0001:00005a20       ?drawLine@gl@cinder@@YAXABV?$Vec2@M@2@0@Z 00406a20 f   cinder:gl.obj
 0001:00005a90       ?drawSolidCircle@gl@cinder@@YAXABV?$Vec2@M@2@MH@Z 00406a90 f   cinder:gl.obj
 0001:00005bb0       ?compare@?$basic_string@DU?$char_traits@D@std@@V?$allocator@D@2@@std@@QBEHIIPBDI@Z 00406bb0 f i cinder:gl.obj
 0001:00005c20       ??R?$less@V?$basic_string@DU?$char_traits@D@std@@V?$allocator@D@2@@std@@@std@@QBE_NABV?$basic_string@DU?$char_traits@D@std@@V?$allocator@D@2@@1@0@Z 00406c20 f i cinder:gl.obj
 0001:00005c50       ??0AppImplMswRendererGl@app@cinder@@QAE@PAVApp@12@PAVRendererGl@12@@Z 00406c50 f   cinder:AppImplMswRendererGl.obj
 0001:00005c80       ?prepareToggleFullScreen@AppImplMswRendererGl@app@cinder@@UAEXXZ 00406c80 f   cinder:AppImplMswRendererGl.obj
 0001:00005c90       ?finishToggleFullScreen@AppImplMswRendererGl@app@cinder@@UAEXXZ 00406c90 f   cinder:AppImplMswRendererGl.obj
 0001:00005ca0       ?swapBuffers@AppImplMswRendererGl@app@cinder@@UBEXXZ 00406ca0 f   cinder:AppImplMswRendererGl.obj
 0001:00005cb0       ?makeCurrentContext@AppImplMswRendererGl@app@cinder@@UAEXXZ 00406cb0 f   cinder:AppImplMswRendererGl.obj
 0001:00005cc0       ?createDummyWindow@app@cinder@@YAPAUHWND__@@PAH0_N@Z 00406cc0 f   cinder:AppImplMswRendererGl.obj
 0001:00005e50       ?initMultisample@AppImplMswRendererGl@app@cinder@@IAEHUtagPIXELFORMATDESCRIPTOR@@HPAUHDC__@@@Z 00406e50 f   cinder:AppImplMswRendererGl.obj
 0001:00005f80       ?kill@AppImplMswRendererGl@app@cinder@@UAEXXZ 00406f80 f   cinder:AppImplMswRendererGl.obj
 0001:00005fb0       ?defaultResize@AppImplMswRendererGl@app@cinder@@UBEXXZ 00406fb0 f   cinder:AppImplMswRendererGl.obj
 0001:000060c0       ?initializeInternal@AppImplMswRendererGl@app@cinder@@IAE_NPAUHWND__@@PAUHDC__@@@Z 004070c0 f   cinder:AppImplMswRendererGl.obj
 0001:000061c0       ?initialize@AppImplMswRendererGl@app@cinder@@UAE_NPAUHWND__@@PAUHDC__@@@Z 004071c0 f   cinder:AppImplMswRendererGl.obj
 0001:00006280       ??$flipVertical@E@ip@cinder@@YAXPAV?$SurfaceT@E@1@@Z 00407280 f i cinder:Flip.obj
 0001:00006320       ?hasAlpha@ImageIo@cinder@@UBE_NXZ 00407320 f i cinder:Surface.obj
 0001:00006330       ??1ImageSource@cinder@@UAE@XZ 00407330 f i cinder:Surface.obj
 0001:00006340       ??_GImageSource@cinder@@UAEPAXI@Z 00407340 f i cinder:Surface.obj
 0001:00006340       ??_EImageSource@cinder@@UAEPAXI@Z 00407340 f i cinder:Surface.obj
 0001:00006370       ??1ImageTarget@cinder@@UAE@XZ 00407370 f i cinder:Surface.obj
 0001:00006380       ?setRow@ImageTarget@cinder@@UAEXHPBX@Z 00407380 f i cinder:Surface.obj
 0001:00006380       ?getDc@Renderer@app@cinder@@UAEPAUHDC__@@XZ 00407380 f i cinder:Renderer.obj
 0001:00006390       ??_EImageTarget@cinder@@UAEPAXI@Z 00407390 f i cinder:Surface.obj
 0001:00006390       ??_GImageTarget@cinder@@UAEPAXI@Z 00407390 f i cinder:Surface.obj
 0001:000063c0       ??0SurfaceChannelOrder@cinder@@QAE@H@Z 004073c0 f   cinder:Surface.obj
 0001:000064c0       ?_Reset0@?$_Ptr_base@UObj@?$SurfaceT@E@cinder@@@tr1@std@@QAEXPAUObj@?$SurfaceT@E@cinder@@PAV_Ref_count_base@23@@Z 004074c0 f i cinder:Renderer.obj
 0001:000064c0       ?_Reset0@?$_Ptr_base@UIWICBitmapFrameDecode@@@tr1@std@@QAEXPAUIWICBitmapFrameDecode@@PAV_Ref_count_base@23@@Z 004074c0 f i cinder:ImageSourceFileWic.obj
 0001:000064c0       ?_Reset0@?$_Ptr_base@VTimeline@cinder@@@tr1@std@@QAEXPAVTimeline@cinder@@PAV_Ref_count_base@23@@Z 004074c0 f i cinder:App.obj
 0001:000064c0       ?_Reset0@?$_Ptr_base@UIWICStream@@@tr1@std@@QAEXPAUIWICStream@@PAV_Ref_count_base@23@@Z 004074c0 f i cinder:ImageSourceFileWic.obj
 0001:000064c0       ?_Reset0@?$_Ptr_base@E@tr1@std@@QAEXPAEPAV_Ref_count_base@23@@Z 004074c0 f i cinder:Texture.obj
 0001:000064c0       ?_Reset0@?$_Ptr_base@UIWICFormatConverter@@@tr1@std@@QAEXPAUIWICFormatConverter@@PAV_Ref_count_base@23@@Z 004074c0 f i cinder:ImageSourceFileWic.obj
 0001:000064c0       ?_Reset0@?$_Ptr_base@UIWICBitmapDecoder@@@tr1@std@@QAEXPAUIWICBitmapDecoder@@PAV_Ref_count_base@23@@Z 004074c0 f i cinder:ImageSourceFileWic.obj
 0001:000064c0       ?_Reset0@?$_Ptr_base@UObj@Buffer@cinder@@@tr1@std@@QAEXPAUObj@Buffer@cinder@@PAV_Ref_count_base@23@@Z 004074c0 f i cinder:DataSource.obj
 0001:000064c0       ?_Reset0@?$_Ptr_base@VTimelineItem@cinder@@@tr1@std@@QAEXPAVTimelineItem@cinder@@PAV_Ref_count_base@23@@Z 004074c0 f i cinder:Timeline.obj
 0001:000064c0       ?_Reset0@?$_Ptr_base@UIWICBitmapFrameEncode@@@tr1@std@@QAEXPAUIWICBitmapFrameEncode@@PAV_Ref_count_base@23@@Z 004074c0 f i cinder:ImageTargetFileWic.obj
 0001:000064c0       ?_Reset0@?$_Ptr_base@UtagTOUCHINPUT@@@tr1@std@@QAEXPAUtagTOUCHINPUT@@PAV_Ref_count_base@23@@Z 004074c0 f i cinder:AppImplMswBasic.obj
 0001:000064c0       ?_Reset0@?$_Ptr_base@VOStream@cinder@@@tr1@std@@QAEXPAVOStream@cinder@@PAV_Ref_count_base@23@@Z 004074c0 f i cinder:ImageTargetFileWic.obj
 0001:000064c0       ?_Reset0@?$_Ptr_base@VDataTarget@cinder@@@tr1@std@@QAEXPAVDataTarget@cinder@@PAV_Ref_count_base@23@@Z 004074c0 f i cinder:ImageIo.obj
 0001:000064c0       ?_Reset0@?$_Ptr_base@UIWICImagingFactory@@@tr1@std@@QAEXPAUIWICImagingFactory@@PAV_Ref_count_base@23@@Z 004074c0 f i cinder:ImageSourceFileWic.obj
 0001:000064c0       ?_Reset0@?$_Ptr_base@VImageSourceFileWic@cinder@@@tr1@std@@QAEXPAVImageSourceFileWic@cinder@@PAV_Ref_count_base@23@@Z 004074c0 f i cinder:ImageSourceFileWic.obj
 0001:000064c0       ?_Reset0@?$_Ptr_base@VImageSource@cinder@@@tr1@std@@QAEXPAVImageSource@cinder@@PAV_Ref_count_base@23@@Z 004074c0 f i cinder:Surface.obj
 0001:000064c0       ?_Reset0@?$_Ptr_base@UIWICBitmapEncoder@@@tr1@std@@QAEXPAUIWICBitmapEncoder@@PAV_Ref_count_base@23@@Z 004074c0 f i cinder:ImageTargetFileWic.obj
 0001:000064c0       ?_Reset0@?$_Ptr_base@UInst@ImageIoRegistrar@cinder@@@tr1@std@@QAEXPAUInst@ImageIoRegistrar@cinder@@PAV_Ref_count_base@23@@Z 004074c0 f i cinder:ImageIo.obj
 0001:000064c0       ?_Reset0@?$_Ptr_base@VComOStream@msw@cinder@@@tr1@std@@QAEXPAVComOStream@msw@cinder@@PAV_Ref_count_base@23@@Z 004074c0 f i cinder:ImageTargetFileWic.obj
 0001:000064c0       ?_Reset0@?$_Ptr_base@VRenderer@app@cinder@@@tr1@std@@QAEXPAVRenderer@app@cinder@@PAV_Ref_count_base@23@@Z 004074c0 f i cinder:App.obj
 0001:000064c0       ?_Reset0@?$_Ptr_base@V?$map@V?$basic_string@DU?$char_traits@D@std@@V?$allocator@D@2@@std@@PBU_GUID@@U?$less@V?$basic_string@DU?$char_traits@D@std@@V?$allocator@D@2@@std@@@2@V?$allocator@U?$pair@$$CBV?$basic_string@DU?$char_traits@D@std@@V?$allocator@D@2@@std@@PBU_GUID@@@std@@@2@@std@@@tr1@std@@QAEXPAV?$map@V?$basic_string@DU?$char_traits@D@std@@V?$allocator@D@2@@std@@PBU_GUID@@U?$less@V?$basic_string@DU?$char_traits@D@std@@V?$allocator@D@2@@std@@@2@V?$allocator@U?$pair@$$CBV?$basic_string@DU?$char_traits@D@std@@V?$allocator@D@2@@std@@PBU_GUID@@@std@@@2@@3@PAV_Ref_count_base@23@@Z 004074c0 f i cinder:ImageTargetFileWic.obj
 0001:000064c0       ?_Reset0@?$_Ptr_base@VImageTarget@cinder@@@tr1@std@@QAEXPAVImageTarget@cinder@@PAV_Ref_count_base@23@@Z 004074c0 f i cinder:Surface.obj
 0001:000064c0       ?_Reset0@?$_Ptr_base@VDisplay@cinder@@@tr1@std@@QAEXPAVDisplay@cinder@@PAV_Ref_count_base@23@@Z 004074c0 f i cinder:Display.obj
 0001:000064c0       ?_Reset0@?$_Ptr_base@UObj@?$ChannelT@E@cinder@@@tr1@std@@QAEXPAUObj@?$ChannelT@E@cinder@@PAV_Ref_count_base@23@@Z 004074c0 f i cinder:Surface.obj
 0001:000064c0       ?_Reset0@?$_Ptr_base@VDataSource@cinder@@@tr1@std@@QAEXPAVDataSource@cinder@@PAV_Ref_count_base@23@@Z 004074c0 f i cinder:Utilities.obj
 0001:00006530       ??1?$shared_ptr@VImageSource@cinder@@@tr1@std@@QAE@XZ 00407530 f i cinder:Surface.obj
 0001:00006530       ??1?$shared_ptr@VOStream@cinder@@@tr1@std@@QAE@XZ 00407530 f i cinder:CinderMsw.obj
 0001:00006530       ??1?$shared_ptr@E@tr1@std@@QAE@XZ 00407530 f i cinder:Texture.obj
 0001:00006530       ??1?$shared_ptr@VImageTarget@cinder@@@tr1@std@@QAE@XZ 00407530 f i cinder:Surface.obj
 0001:00006530       ??1?$shared_ptr@VDisplay@cinder@@@tr1@std@@QAE@XZ 00407530 f i cinder:AppBasic.obj
 0001:00006530       ??1?$shared_ptr@VTimelineItem@cinder@@@tr1@std@@QAE@XZ 00407530 f i cinder:Timeline.obj
 0001:00006530       ??1?$shared_ptr@UIWICStream@@@tr1@std@@QAE@XZ 00407530 f i cinder:ImageSourceFileWic.obj
 0001:00006530       ??1?$shared_ptr@UInst@ImageIoRegistrar@cinder@@@tr1@std@@QAE@XZ 00407530 f i cinder:ImageIo.obj
 0001:00006530       ??1?$shared_ptr@UObj@?$SurfaceT@E@cinder@@@tr1@std@@QAE@XZ 00407530 f i cinder:Renderer.obj
 0001:00006530       ??1?$shared_ptr@UIWICBitmapFrameEncode@@@tr1@std@@QAE@XZ 00407530 f i cinder:ImageTargetFileWic.obj
 0001:00006530       ??1?$shared_ptr@V?$basic_dostream@DU?$char_traits@D@std@@@msw@cinder@@@tr1@std@@QAE@XZ 00407530 f i cinder:App.obj
 0001:00006530       ??1?$shared_ptr@UIWICImagingFactory@@@tr1@std@@QAE@XZ 00407530 f i cinder:ImageSourceFileWic.obj
 0001:00006530       ??1?$shared_ptr@UtagTOUCHINPUT@@@tr1@std@@QAE@XZ 00407530 f i cinder:AppImplMswBasic.obj
 0001:00006530       ??1?$shared_ptr@UIWICBitmapFrameDecode@@@tr1@std@@QAE@XZ 00407530 f i cinder:ImageSourceFileWic.obj
 0001:00006530       ??1?$shared_ptr@VTimeline@cinder@@@tr1@std@@QAE@XZ 00407530 f i cinder:App.obj
 0001:00006530       ??1?$shared_ptr@VImageSourceFileWic@cinder@@@tr1@std@@QAE@XZ 00407530 f i cinder:ImageSourceFileWic.obj
 0001:00006530       ??1?$shared_ptr@V?$map@V?$basic_string@DU?$char_traits@D@std@@V?$allocator@D@2@@std@@PBU_GUID@@U?$less@V?$basic_string@DU?$char_traits@D@std@@V?$allocator@D@2@@std@@@2@V?$allocator@U?$pair@$$CBV?$basic_string@DU?$char_traits@D@std@@V?$allocator@D@2@@std@@PBU_GUID@@@std@@@2@@std@@@tr1@std@@QAE@XZ 00407530 f i cinder:ImageTargetFileWic.obj
 0001:00006530       ??1?$shared_ptr@VRenderer@app@cinder@@@tr1@std@@QAE@XZ 00407530 f i cinder:App.obj
 0001:00006530       ??1?$shared_ptr@VComOStream@msw@cinder@@@tr1@std@@QAE@XZ 00407530 f i cinder:ImageTargetFileWic.obj
 0001:00006530       ??1?$shared_ptr@UIWICBitmapDecoder@@@tr1@std@@QAE@XZ 00407530 f i cinder:ImageSourceFileWic.obj
 0001:00006530       ??1?$shared_ptr@VDataTarget@cinder@@@tr1@std@@QAE@XZ 00407530 f i cinder:ImageIo.obj
 0001:00006530       ??1Buffer@cinder@@QAE@XZ   00407530 f i cinder:App.obj
 0001:00006530       ??1?$ChannelT@E@cinder@@QAE@XZ 00407530 f i cinder:Surface.obj
 0001:00006530       ??1?$shared_ptr@UIWICFormatConverter@@@tr1@std@@QAE@XZ 00407530 f i cinder:ImageSourceFileWic.obj
 0001:00006530       ??1?$shared_ptr@VDataSource@cinder@@@tr1@std@@QAE@XZ 00407530 f i cinder:App.obj
 0001:00006530       ??1?$SurfaceT@E@cinder@@QAE@XZ 00407530 f i cinder:Renderer.obj
 0001:00006530       ??1?$shared_ptr@UIWICBitmapEncoder@@@tr1@std@@QAE@XZ 00407530 f i cinder:ImageTargetFileWic.obj
 0001:00006570       ??0?$ChannelT@E@cinder@@QAE@XZ 00407570 f i cinder:Surface.obj
 0001:00006580       ??_GObj@?$SurfaceT@E@cinder@@QAEPAXI@Z 00407580 f i cinder:Surface.obj
 0001:00006610       ?_Destroy@?$_Ref_count@UObj@?$SurfaceT@E@cinder@@@tr1@std@@EAEXXZ 00407610 f i cinder:Surface.obj
 0001:000066a0       ??4?$shared_ptr@UObj@?$ChannelT@E@cinder@@@tr1@std@@QAEAAV012@ABV012@@Z 004076a0 f i cinder:Surface.obj
 0001:00006710       ??$_Resetp@UObj@?$SurfaceT@E@cinder@@@?$shared_ptr@UObj@?$SurfaceT@E@cinder@@@tr1@std@@AAEXPAUObj@?$SurfaceT@E@cinder@@@Z 00407710 f i cinder:Surface.obj
 0001:000067b0       ?initChannels@Obj@?$SurfaceT@E@cinder@@QAEXXZ 004077b0 f i cinder:Surface.obj
 0001:000069a0       ??0Obj@?$SurfaceT@E@cinder@@QAE@HHVSurfaceChannelOrder@2@PAE_NH@Z 004079a0 f i cinder:Surface.obj
 0001:00006a60       ??0?$SurfaceT@E@cinder@@QAE@HH_NVSurfaceChannelOrder@1@@Z 00407a60 f i cinder:Surface.obj
 0001:00006bd0       ?sleep@AppImplMswBasic@app@cinder@@IAEXN@Z 00407bd0 f   cinder:AppImplMswBasic.obj
 0001:00006cc0       ?setBorderless@AppImplMswBasic@app@cinder@@QAEX_N@Z 00407cc0 f   cinder:AppImplMswBasic.obj
 0001:00006de0       ?setAlwaysOnTop@AppImplMswBasic@app@cinder@@QAEX_N@Z 00407de0 f   cinder:AppImplMswBasic.obj
 0001:00006e60       ?enableMultiTouch@AppImplMswBasic@app@cinder@@IAEXXZ 00407e60 f   cinder:AppImplMswBasic.obj
 0001:00006ea0       ?setWindowPos@AppImplMswBasic@app@cinder@@QAEXABV?$Vec2@H@3@@Z 00407ea0 f   cinder:AppImplMswBasic.obj
 0001:00006f30       ?setFrameRate@AppImplMswBasic@app@cinder@@UAEMM@Z 00407f30 f   cinder:AppImplMswBasic.obj
 0001:00006f40       ?prepMouseEventModifiers@app@cinder@@YAII@Z 00407f40 f   cinder:AppImplMswBasic.obj
 0001:00006fa0       ?prepNativeKeyCode@app@cinder@@YAHI@Z 00407fa0 f   cinder:AppImplMswBasic.obj
 0001:00007010       ?mapVirtualKey@app@cinder@@YADI@Z 00408010 f   cinder:AppImplMswBasic.obj
 0001:00007080       ?prepKeyEventModifiers@app@cinder@@YAIXZ 00408080 f   cinder:AppImplMswBasic.obj
 0001:000070f0       ?_Min@?$_Tree_val@V?$_Tmap_traits@PAXV?$shared_ptr@VTimelineItem@cinder@@@tr1@std@@U?$less@PAX@3@V?$allocator@U?$pair@QAXV?$shared_ptr@VTimelineItem@cinder@@@tr1@std@@@std@@@3@$00@std@@@std@@SAPAU_Node@?$_Tree_nod@V?$_Tmap_traits@PAXV?$shared_ptr@VTimelineItem@cinder@@@tr1@std@@U?$less@PAX@3@V?$allocator@U?$pair@QAXV?$shared_ptr@VTimelineItem@cinder@@@tr1@std@@@std@@@3@$00@std@@@2@PAU342@@Z 004080f0 f i cinder:Timeline.obj
 0001:000070f0       ?_Min@?$_Tree_val@V?$_Tmap_traits@KV?$Vec2@M@cinder@@U?$less@K@std@@V?$allocator@U?$pair@$$CBKV?$Vec2@M@cinder@@@std@@@4@$0A@@std@@@std@@SAPAU_Node@?$_Tree_nod@V?$_Tmap_traits@KV?$Vec2@M@cinder@@U?$less@K@std@@V?$allocator@U?$pair@$$CBKV?$Vec2@M@cinder@@@std@@@4@$0A@@std@@@2@PAU342@@Z 004080f0 f i cinder:AppImplMswBasic.obj
 0001:00007110       ??F?$_Tree_unchecked_const_iterator@V?$_Tree_val@V?$_Tmap_traits@KV?$Vec2@M@cinder@@U?$less@K@std@@V?$allocator@U?$pair@$$CBKV?$Vec2@M@cinder@@@std@@@4@$0A@@std@@@std@@U_Iterator_base0@2@@std@@QAEAAV01@XZ 00408110 f i cinder:AppImplMswBasic.obj
 0001:00007170       ?_Get_deleter@?$_Ref_count_del@UtagTOUCHINPUT@@U?$checked_array_deleter@UtagTOUCHINPUT@@@boost@@@tr1@std@@UBEPAXABVtype_info@@@Z 00408170 f i cinder:AppImplMswBasic.obj
 0001:000071a0       ?setWindowWidth@AppImplMswBasic@app@cinder@@UAEXH@Z 004081a0 f   cinder:AppImplMswBasic.obj
 0001:00007220       ?setWindowHeight@AppImplMswBasic@app@cinder@@UAEXH@Z 00408220 f   cinder:AppImplMswBasic.obj
 0001:000072a0       ?setWindowSize@AppImplMswBasic@app@cinder@@UAEXHH@Z 004082a0 f   cinder:AppImplMswBasic.obj
 0001:00007320       ?_Rrotate@?$_Tree@V?$_Tmap_traits@KV?$Vec2@M@cinder@@U?$less@K@std@@V?$allocator@U?$pair@$$CBKV?$Vec2@M@cinder@@@std@@@4@$0A@@std@@@std@@IAEXPAU_Node@?$_Tree_nod@V?$_Tmap_traits@KV?$Vec2@M@cinder@@U?$less@K@std@@V?$allocator@U?$pair@$$CBKV?$Vec2@M@cinder@@@std@@@4@$0A@@std@@@2@@Z 00408320 f i cinder:AppImplMswBasic.obj
 0001:00007320       ?_Rrotate@?$_Tree@V?$_Tmap_traits@PAXV?$shared_ptr@VTimelineItem@cinder@@@tr1@std@@U?$less@PAX@3@V?$allocator@U?$pair@QAXV?$shared_ptr@VTimelineItem@cinder@@@tr1@std@@@std@@@3@$00@std@@@std@@IAEXPAU_Node@?$_Tree_nod@V?$_Tmap_traits@PAXV?$shared_ptr@VTimelineItem@cinder@@@tr1@std@@U?$less@PAX@3@V?$allocator@U?$pair@QAXV?$shared_ptr@VTimelineItem@cinder@@@tr1@std@@@std@@@3@$00@std@@@2@@Z 00408320 f i cinder:Timeline.obj
 0001:00007380       ??$_Move@PAVTouch@TouchEvent@app@cinder@@PAV1234@@std@@YAPAVTouch@TouchEvent@app@cinder@@PAV1234@00U_Nonscalar_ptr_iterator_tag@0@@Z 00408380 f i cinder:AppImplMswBasic.obj
 0001:00007380       ??$_Copy_impl@PAVTouch@TouchEvent@app@cinder@@PAV1234@@std@@YAPAVTouch@TouchEvent@app@cinder@@PAV1234@00U_Nonscalar_ptr_iterator_tag@0@@Z 00408380 f i cinder:AppImplMswBasic.obj
 0001:000073e0       ?_Destroy@?$_Ref_count_del@UtagTOUCHINPUT@@U?$checked_array_deleter@UtagTOUCHINPUT@@@boost@@@tr1@std@@EAEXXZ 004083e0 f i cinder:AppImplMswBasic.obj
 0001:000073f0       ?killWindow@AppImplMswBasic@app@cinder@@IAEX_N@Z 004083f0 f   cinder:AppImplMswBasic.obj
 0001:00007470       ?_Lrotate@?$_Tree@V?$_Tmap_traits@PAXV?$shared_ptr@VTimelineItem@cinder@@@tr1@std@@U?$less@PAX@3@V?$allocator@U?$pair@QAXV?$shared_ptr@VTimelineItem@cinder@@@tr1@std@@@std@@@3@$00@std@@@std@@IAEXPAU_Node@?$_Tree_nod@V?$_Tmap_traits@PAXV?$shared_ptr@VTimelineItem@cinder@@@tr1@std@@U?$less@PAX@3@V?$allocator@U?$pair@QAXV?$shared_ptr@VTimelineItem@cinder@@@tr1@std@@@std@@@3@$00@std@@@2@@Z 00408470 f i cinder:Timeline.obj
 0001:00007470       ?_Lrotate@?$_Tree@V?$_Tmap_traits@KV?$Vec2@M@cinder@@U?$less@K@std@@V?$allocator@U?$pair@$$CBKV?$Vec2@M@cinder@@@std@@@4@$0A@@std@@@std@@IAEXPAU_Node@?$_Tree_nod@V?$_Tmap_traits@KV?$Vec2@M@cinder@@U?$less@K@std@@V?$allocator@U?$pair@$$CBKV?$Vec2@M@cinder@@@std@@@4@$0A@@std@@@2@@Z 00408470 f i cinder:AppImplMswBasic.obj
 0001:000074d0       ?_Insert@?$_Tree@V?$_Tmap_traits@KV?$Vec2@M@cinder@@U?$less@K@std@@V?$allocator@U?$pair@$$CBKV?$Vec2@M@cinder@@@std@@@4@$0A@@std@@@std@@IAE?AV?$_Tree_iterator@V?$_Tree_val@V?$_Tmap_traits@KV?$Vec2@M@cinder@@U?$less@K@std@@V?$allocator@U?$pair@$$CBKV?$Vec2@M@cinder@@@std@@@4@$0A@@std@@@std@@@2@_NPAU_Node@?$_Tree_nod@V?$_Tmap_traits@KV?$Vec2@M@cinder@@U?$less@K@std@@V?$allocator@U?$pair@$$CBKV?$Vec2@M@cinder@@@std@@@4@$0A@@std@@@2@1@Z 004084d0 f i cinder:AppImplMswBasic.obj
 0001:00007700       ??$_Uninit_copy@PAVTouch@TouchEvent@app@cinder@@PAV1234@V?$allocator@VTouch@TouchEvent@app@cinder@@@std@@@std@@YAPAVTouch@TouchEvent@app@cinder@@PAV1234@00AAV?$allocator@VTouch@TouchEvent@app@cinder@@@0@U_Nonscalar_ptr_iterator_tag@0@@Z 00408700 f i cinder:AppImplMswBasic.obj
 0001:00007700       ??$_Uninit_move@PAVTouch@TouchEvent@app@cinder@@PAV1234@V?$allocator@VTouch@TouchEvent@app@cinder@@@std@@V1234@@std@@YAPAVTouch@TouchEvent@app@cinder@@PAV1234@00AAV?$allocator@VTouch@TouchEvent@app@cinder@@@0@0U_Nonscalar_ptr_iterator_tag@0@@Z 00408700 f i cinder:AppImplMswBasic.obj
 0001:00007760       ?erase@?$_Tree@V?$_Tmap_traits@KV?$Vec2@M@cinder@@U?$less@K@std@@V?$allocator@U?$pair@$$CBKV?$Vec2@M@cinder@@@std@@@4@$0A@@std@@@std@@QAE?AV?$_Tree_iterator@V?$_Tree_val@V?$_Tmap_traits@KV?$Vec2@M@cinder@@U?$less@K@std@@V?$allocator@U?$pair@$$CBKV?$Vec2@M@cinder@@@std@@@4@$0A@@std@@@std@@@2@V?$_Tree_const_iterator@V?$_Tree_val@V?$_Tmap_traits@KV?$Vec2@M@cinder@@U?$less@K@std@@V?$allocator@U?$pair@$$CBKV?$Vec2@M@cinder@@@std@@@4@$0A@@std@@@std@@@2@@Z 00408760 f i cinder:AppImplMswBasic.obj
 0001:000079b0       ?_Eqrange@?$_Tree@V?$_Tmap_traits@KV?$Vec2@M@cinder@@U?$less@K@std@@V?$allocator@U?$pair@$$CBKV?$Vec2@M@cinder@@@std@@@4@$0A@@std@@@std@@IAE?AU?$pair@V?$_Tree_iterator@V?$_Tree_val@V?$_Tmap_traits@KV?$Vec2@M@cinder@@U?$less@K@std@@V?$allocator@U?$pair@$$CBKV?$Vec2@M@cinder@@@std@@@4@$0A@@std@@@std@@@std@@V12@@2@ABK@Z 004089b0 f i cinder:AppImplMswBasic.obj
 0001:00007a40       ?_Erase@?$_Tree@V?$_Tmap_traits@KV?$Vec2@M@cinder@@U?$less@K@std@@V?$allocator@U?$pair@$$CBKV?$Vec2@M@cinder@@@std@@@4@$0A@@std@@@std@@IAEXPAU_Node@?$_Tree_nod@V?$_Tmap_traits@KV?$Vec2@M@cinder@@U?$less@K@std@@V?$allocator@U?$pair@$$CBKV?$Vec2@M@cinder@@@std@@@4@$0A@@std@@@2@@Z 00408a40 f i cinder:AppImplMswBasic.obj
 0001:00007a80       ?_Linsert@?$_Tree@V?$_Tmap_traits@KV?$Vec2@M@cinder@@U?$less@K@std@@V?$allocator@U?$pair@$$CBKV?$Vec2@M@cinder@@@std@@@4@$0A@@std@@@std@@QAE?AU?$pair@V?$_Tree_iterator@V?$_Tree_val@V?$_Tmap_traits@KV?$Vec2@M@cinder@@U?$less@K@std@@V?$allocator@U?$pair@$$CBKV?$Vec2@M@cinder@@@std@@@4@$0A@@std@@@std@@@std@@_N@2@PAU_Node@?$_Tree_nod@V?$_Tmap_traits@KV?$Vec2@M@cinder@@U?$less@K@std@@V?$allocator@U?$pair@$$CBKV?$Vec2@M@cinder@@@std@@@4@$0A@@std@@@2@_N@Z 00408a80 f i cinder:AppImplMswBasic.obj
 0001:00007b60       ??$_Resetp@UtagTOUCHINPUT@@U?$checked_array_deleter@UtagTOUCHINPUT@@@boost@@@?$shared_ptr@UtagTOUCHINPUT@@@tr1@std@@AAEXPAUtagTOUCHINPUT@@U?$checked_array_deleter@UtagTOUCHINPUT@@@boost@@@Z 00408b60 f i cinder:AppImplMswBasic.obj
 0001:00007c00       ?clear@?$_Tree@V?$_Tmap_traits@KV?$Vec2@M@cinder@@U?$less@K@std@@V?$allocator@U?$pair@$$CBKV?$Vec2@M@cinder@@@std@@@4@$0A@@std@@@std@@QAEXXZ 00408c00 f i cinder:AppImplMswBasic.obj
 0001:00007c50       ?_Insert@?$_Tree@V?$_Tmap_traits@KV?$Vec2@M@cinder@@U?$less@K@std@@V?$allocator@U?$pair@$$CBKV?$Vec2@M@cinder@@@std@@@4@$0A@@std@@@std@@QAE?AV?$_Tree_iterator@V?$_Tree_val@V?$_Tmap_traits@KV?$Vec2@M@cinder@@U?$less@K@std@@V?$allocator@U?$pair@$$CBKV?$Vec2@M@cinder@@@std@@@4@$0A@@std@@@std@@@2@V?$_Tree_const_iterator@V?$_Tree_val@V?$_Tmap_traits@KV?$Vec2@M@cinder@@U?$less@K@std@@V?$allocator@U?$pair@$$CBKV?$Vec2@M@cinder@@@std@@@4@$0A@@std@@@std@@@2@PAU_Node@?$_Tree_nod@V?$_Tmap_traits@KV?$Vec2@M@cinder@@U?$less@K@std@@V?$allocator@U?$pair@$$CBKV?$Vec2@M@cinder@@@std@@@4@$0A@@std@@@2@@Z 00408c50 f i cinder:AppImplMswBasic.obj
 0001:00007db0       ?erase@?$_Tree@V?$_Tmap_traits@KV?$Vec2@M@cinder@@U?$less@K@std@@V?$allocator@U?$pair@$$CBKV?$Vec2@M@cinder@@@std@@@4@$0A@@std@@@std@@QAE?AV?$_Tree_iterator@V?$_Tree_val@V?$_Tmap_traits@KV?$Vec2@M@cinder@@U?$less@K@std@@V?$allocator@U?$pair@$$CBKV?$Vec2@M@cinder@@@std@@@4@$0A@@std@@@std@@@2@V?$_Tree_const_iterator@V?$_Tree_val@V?$_Tmap_traits@KV?$Vec2@M@cinder@@U?$less@K@std@@V?$allocator@U?$pair@$$CBKV?$Vec2@M@cinder@@@std@@@4@$0A@@std@@@std@@@2@0@Z 00408db0 f i cinder:AppImplMswBasic.obj
 0001:00007e50       ?reserve@?$vector@VTouch@TouchEvent@app@cinder@@V?$allocator@VTouch@TouchEvent@app@cinder@@@std@@@std@@QAEXI@Z 00408e50 f i cinder:AppImplMswBasic.obj
 0001:00007f50       ??$_Ucopy@PAVTouch@TouchEvent@app@cinder@@@?$vector@VTouch@TouchEvent@app@cinder@@V?$allocator@VTouch@TouchEvent@app@cinder@@@std@@@std@@IAEPAVTouch@TouchEvent@app@cinder@@PAV2345@00@Z 00408f50 f i cinder:AppImplMswBasic.obj
 0001:00007f80       ??$_Buynode@U?$pair@$$CBKV?$Vec2@M@cinder@@@std@@@?$_Tree_val@V?$_Tmap_traits@KV?$Vec2@M@cinder@@U?$less@K@std@@V?$allocator@U?$pair@$$CBKV?$Vec2@M@cinder@@@std@@@4@$0A@@std@@@std@@QAEPAU_Node@?$_Tree_nod@V?$_Tmap_traits@KV?$Vec2@M@cinder@@U?$less@K@std@@V?$allocator@U?$pair@$$CBKV?$Vec2@M@cinder@@@std@@@4@$0A@@std@@@1@$$QAU?$pair@$$CBKV?$Vec2@M@cinder@@@1@@Z 00408f80 f i cinder:AppImplMswBasic.obj
 0001:00008000       ?_Reserve@?$vector@VTouch@TouchEvent@app@cinder@@V?$allocator@VTouch@TouchEvent@app@cinder@@@std@@@std@@IAEXI@Z 00409000 f i cinder:AppImplMswBasic.obj
 0001:00008080       ??A?$map@KV?$Vec2@M@cinder@@U?$less@K@std@@V?$allocator@U?$pair@$$CBKV?$Vec2@M@cinder@@@std@@@4@@std@@QAEAAV?$Vec2@M@cinder@@ABK@Z 00409080 f i cinder:AppImplMswBasic.obj
 0001:00008100       ?push_back@?$vector@VTouch@TouchEvent@app@cinder@@V?$allocator@VTouch@TouchEvent@app@cinder@@@std@@@std@@QAEX$$QAVTouch@TouchEvent@app@cinder@@@Z 00409100 f i cinder:AppImplMswBasic.obj
 0001:00008100       ?push_back@?$vector@VTouch@TouchEvent@app@cinder@@V?$allocator@VTouch@TouchEvent@app@cinder@@@std@@@std@@QAEXABVTouch@TouchEvent@app@cinder@@@Z 00409100 f i cinder:AppImplMswBasic.obj
 0001:000081c0       ??4?$vector@VTouch@TouchEvent@app@cinder@@V?$allocator@VTouch@TouchEvent@app@cinder@@@std@@@std@@QAEAAV01@ABV01@@Z 004091c0 f i cinder:AppImplMswBasic.obj
 0001:00008310       ??0AppImplMswBasic@app@cinder@@QAE@PAVAppBasic@12@@Z 00409310 f   cinder:AppImplMswBasic.obj
 0001:000083d0       ?quit@AppImplMswBasic@app@cinder@@UAEXXZ 004093d0 f i cinder:AppImplMswBasic.obj
 0001:000083e0       ?privateSetWindowOffset__@AppImplMsw@app@cinder@@UAEXABV?$Vec2@H@3@@Z 004093e0 f i cinder:AppImplMswBasic.obj
 0001:00008400       ??_GAppImplMswBasic@app@cinder@@UAEPAXI@Z 00409400 f i cinder:AppImplMswBasic.obj
 0001:00008400       ??_EAppImplMswBasic@app@cinder@@UAEPAXI@Z 00409400 f i cinder:AppImplMswBasic.obj
 0001:00008490       ?onTouch@AppImplMswBasic@app@cinder@@IAEXPAUHWND__@@IJ@Z 00409490 f   cinder:AppImplMswBasic.obj
 0001:000089a0       ?push_back@?$vector@Vpath@filesystem3@boost@@V?$allocator@Vpath@filesystem3@boost@@@std@@@std@@QAEX$$QAVpath@filesystem3@boost@@@Z 004099a0 f i cinder:AppImplMswBasic.obj
 0001:00008a90       _WndProc@16                00409a90 f   cinder:AppImplMswBasic.obj
 0001:00009400       ?createWindow@AppImplMswBasic@app@cinder@@IAE_NPAH0@Z 0040a400 f   cinder:AppImplMswBasic.obj
 0001:000096f0       ?toggleFullScreen@AppImplMswBasic@app@cinder@@UAEXXZ 0040a6f0 f   cinder:AppImplMswBasic.obj
 0001:000098a0       ?run@AppImplMswBasic@app@cinder@@QAEXXZ 0040a8a0 f   cinder:AppImplMswBasic.obj
 0001:00009c10       ??1AppImplMsw@app@cinder@@UAE@XZ 0040ac10 f   cinder:AppImplMsw.obj
 0001:00009c20       ?setWindowSize@AppImplMsw@app@cinder@@UAEXHH@Z 0040ac20 f i cinder:AppImplMsw.obj
 0001:00009c30       ?setFrameRate@AppImplMsw@app@cinder@@UAEMM@Z 0040ac30 f i cinder:AppImplMsw.obj
 0001:00009c40       ??0AppImplMsw@app@cinder@@QAE@PAVApp@12@@Z 0040ac40 f   cinder:AppImplMsw.obj
 0001:00009c90       ??_GAppImplMsw@app@cinder@@UAEPAXI@Z 0040ac90 f i cinder:AppImplMsw.obj
 0001:00009c90       ??_EAppImplMsw@app@cinder@@UAEPAXI@Z 0040ac90 f i cinder:AppImplMsw.obj
 0001:00009cc0       ?mouseLocation@AppImplMsw@app@cinder@@UAE?AV?$Vec2@H@3@XZ 0040acc0 f   cinder:AppImplMsw.obj
 0001:00009cf0       ?getAppPath@AppImplMsw@app@cinder@@SA?AVpath@filesystem3@boost@@XZ 0040acf0 f   cinder:AppImplMsw.obj
 0001:00009e40       ?_Destroy@?$_Ref_count@VDisplay@cinder@@@tr1@std@@EAEXXZ 0040ae40 f i cinder:Display.obj
 0001:00009e50       ?allocate@?$allocator@V?$shared_ptr@VDisplay@cinder@@@tr1@std@@@std@@QAEPAV?$shared_ptr@VDisplay@cinder@@@tr1@2@I@Z 0040ae50 f i cinder:Display.obj
 0001:00009eb0       ??$_Resetp@VDisplay@cinder@@@?$shared_ptr@VDisplay@cinder@@@tr1@std@@AAEXPAVDisplay@cinder@@@Z 0040aeb0 f i cinder:Display.obj
 0001:00009f50       ??$_Reset@UObj@?$ChannelT@E@cinder@@@?$_Ptr_base@UObj@?$ChannelT@E@cinder@@@tr1@std@@QAEXABV012@@Z 0040af50 f i cinder:Surface.obj
 0001:00009f50       ??$_Reset@VImageTarget@cinder@@@?$_Ptr_base@VImageTarget@cinder@@@tr1@std@@QAEXABV012@@Z 0040af50 f i cinder:Surface.obj
 0001:00009f50       ??$_Reset@VDataTarget@cinder@@@?$_Ptr_base@VDataTarget@cinder@@@tr1@std@@QAEXABV012@@Z 0040af50 f i cinder:ImageIo.obj
 0001:00009f50       ??$_Reset@VOStream@cinder@@@?$_Ptr_base@VOStream@cinder@@@tr1@std@@QAEXABV012@@Z 0040af50 f i cinder:ImageTargetFileWic.obj
 0001:00009f50       ??$_Reset@VDisplay@cinder@@@?$_Ptr_base@VDisplay@cinder@@@tr1@std@@QAEXABV012@@Z 0040af50 f i cinder:Display.obj
 0001:00009f50       ??$_Reset@VImageSource@cinder@@@?$_Ptr_base@VImageSource@cinder@@@tr1@std@@QAEXABV012@@Z 0040af50 f i cinder:Surface.obj
 0001:00009f50       ??$_Reset@UObj@Buffer@cinder@@@?$_Ptr_base@UObj@Buffer@cinder@@@tr1@std@@QAEXABV012@@Z 0040af50 f i cinder:DataSource.obj
 0001:00009f50       ??$_Reset@VDataSource@cinder@@@?$_Ptr_base@VDataSource@cinder@@@tr1@std@@QAEXABV012@@Z 0040af50 f i cinder:Utilities.obj
 0001:00009fb0       ??$_Destroy_range@V?$allocator@V?$shared_ptr@VDisplay@cinder@@@tr1@std@@@std@@@std@@YAXPAV?$shared_ptr@VDisplay@cinder@@@tr1@0@0AAV?$allocator@V?$shared_ptr@VDisplay@cinder@@@tr1@std@@@0@U_Nonscalar_ptr_iterator_tag@0@@Z 0040afb0 f i cinder:Display.obj
 0001:0000a010       ??$_Uninit_move@PAV?$shared_ptr@VDisplay@cinder@@@tr1@std@@PAV123@V?$allocator@V?$shared_ptr@VDisplay@cinder@@@tr1@std@@@3@V123@@std@@YAPAV?$shared_ptr@VDisplay@cinder@@@tr1@0@PAV120@00AAV?$allocator@V?$shared_ptr@VDisplay@cinder@@@tr1@std@@@0@0U_Nonscalar_ptr_iterator_tag@0@@Z 0040b010 f i cinder:Display.obj
 0001:0000a060       ?reserve@?$vector@V?$shared_ptr@VDisplay@cinder@@@tr1@std@@V?$allocator@V?$shared_ptr@VDisplay@cinder@@@tr1@std@@@3@@std@@QAEXI@Z 0040b060 f i cinder:Display.obj
 0001:0000a150       ?_Reserve@?$vector@V?$shared_ptr@VDisplay@cinder@@@tr1@std@@V?$allocator@V?$shared_ptr@VDisplay@cinder@@@tr1@std@@@3@@std@@IAEXI@Z 0040b150 f i cinder:Display.obj
 0001:0000a1b0       ?push_back@?$vector@V?$shared_ptr@VDisplay@cinder@@@tr1@std@@V?$allocator@V?$shared_ptr@VDisplay@cinder@@@tr1@std@@@3@@std@@QAEXABV?$shared_ptr@VDisplay@cinder@@@tr1@2@@Z 0040b1b0 f i cinder:Display.obj
 0001:0000a260       ?enumMonitorProc@Display@cinder@@SGHPAUHMONITOR__@@PAUHDC__@@PAUtagRECT@@J@Z 0040b260 f   cinder:Display.obj
 0001:0000a3c0       ?enumerateDisplays@Display@cinder@@CAXXZ 0040b3c0 f   cinder:Display.obj
 0001:0000a440       ?getMainDisplay@Display@cinder@@SA?AV?$shared_ptr@VDisplay@cinder@@@tr1@std@@XZ 0040b440 f   cinder:Display.obj
 0001:0000a480       ?findFromHmonitor@Display@cinder@@SA?AV?$shared_ptr@VDisplay@cinder@@@tr1@std@@PAUHMONITOR__@@@Z 0040b480 f   cinder:Display.obj
 0001:0000a520       _wmemset                   0040b520 f i cinder:Utilities.obj
 0001:0000a560       ??1clone_base@exception_detail@boost@@UAE@XZ 0040b560 f i cinder:Utilities.obj
 0001:0000a570       ??_Gclone_base@exception_detail@boost@@UAEPAXI@Z 0040b570 f i cinder:Utilities.obj
 0001:0000a570       ??_Eclone_base@exception_detail@boost@@UAEPAXI@Z 0040b570 f i cinder:Utilities.obj
 0001:0000a5a0       ?_Chassign@?$basic_string@_WU?$char_traits@_W@std@@V?$allocator@_W@2@@std@@QAEXII_W@Z 0040b5a0 f i cinder:Utilities.obj
 0001:0000a600       ??1?$refcount_ptr@Uerror_info_container@exception_detail@boost@@@exception_detail@boost@@QAE@XZ 0040b600 f i cinder:Utilities.obj
 0001:0000a620       ?_Chassign@?$basic_string@DU?$char_traits@D@std@@V?$allocator@D@2@@std@@QAEXIID@Z 0040b620 f i cinder:Utilities.obj
 0001:0000a660       ??0exception@boost@@QAE@ABV01@@Z 0040b660 f i cinder:Utilities.obj
 0001:0000a6a0       ?copy_boost_exception@exception_detail@boost@@YAXPAVexception@2@PBV32@@Z 0040b6a0 f i cinder:Utilities.obj
 0001:0000a780       ?reserve@?$vector@_WV?$allocator@_W@std@@@std@@QAEXI@Z 0040b780 f i cinder:Utilities.obj
 0001:0000a800       ?reserve@?$vector@DV?$allocator@D@std@@@std@@QAEXI@Z 0040b800 f i cinder:Utilities.obj
 0001:0000a870       ?append@?$basic_string@_WU?$char_traits@_W@std@@V?$allocator@_W@2@@std@@QAEAAV12@I_W@Z 0040b870 f i cinder:Utilities.obj
 0001:0000a930       ??0clone_base@exception_detail@boost@@QAE@ABV012@@Z 0040b930 f i cinder:Utilities.obj
 0001:0000a940       ?assign@?$basic_string@DU?$char_traits@D@std@@V?$allocator@D@2@@std@@QAEAAV12@ID@Z 0040b940 f i cinder:Utilities.obj
 0001:0000aa00       ?append@?$basic_string@DU?$char_traits@D@std@@V?$allocator@D@2@@std@@QAEAAV12@ABV12@II@Z 0040ba00 f i cinder:Utilities.obj
 0001:0000aaf0       ?append@?$basic_string@DU?$char_traits@D@std@@V?$allocator@D@2@@std@@QAEAAV12@PBDI@Z 0040baf0 f i cinder:Utilities.obj
 0001:0000ac10       ?_Reserve@?$vector@_WV?$allocator@_W@std@@@std@@IAEXI@Z 0040bc10 f i cinder:Utilities.obj
 0001:0000ac70       ?_Reserve@?$vector@DV?$allocator@D@std@@@std@@IAEXI@Z 0040bc70 f i cinder:Utilities.obj
 0001:0000acd0       ?resize@?$vector@_WV?$allocator@_W@std@@@std@@QAEXI@Z 0040bcd0 f i cinder:Utilities.obj
 0001:0000ad60       ?resize@?$vector@DV?$allocator@D@std@@@std@@QAEXI@Z 0040bd60 f i cinder:Utilities.obj
 0001:0000add0       ?toUtf16@cinder@@YA?AV?$basic_string@_WU?$char_traits@_W@std@@V?$allocator@_W@2@@std@@ABV?$basic_string@DU?$char_traits@D@std@@V?$allocator@D@2@@3@@Z 0040bdd0 f   cinder:Utilities.obj
 0001:0000af00       ?toUtf8@cinder@@YA?AV?$basic_string@DU?$char_traits@D@std@@V?$allocator@D@2@@std@@ABV?$basic_string@_WU?$char_traits@_W@std@@V?$allocator@_W@2@@3@@Z 0040bf00 f   cinder:Utilities.obj
 0001:0000b040       ?set@?$AreaT@H@cinder@@QAEXHHHH@Z 0040c040 f i cinder:Area.obj
 0001:0000b080       ??_Glogic_error@std@@UAEPAXI@Z 0040c080 f i cinder:Area.obj
 0001:0000b080       ??_Eruntime_error@std@@UAEPAXI@Z 0040c080 f i cinder:App.obj
 0001:0000b080       ??_Elogic_error@std@@UAEPAXI@Z 0040c080 f i cinder:Area.obj
 0001:0000b080       ??_Gruntime_error@std@@UAEPAXI@Z 0040c080 f i cinder:App.obj
 0001:0000b0b0       ??0logic_error@std@@QAE@ABV01@@Z 0040c0b0 f i cinder:Area.obj
 0001:0000b0d0       ?reset@TimelineItem@cinder@@UAEX_N@Z 0040c0d0 f i cinder:Timeline.obj
 0001:0000b0f0       ?loopStart@Timeline@cinder@@MAEXXZ 0040c0f0 f   cinder:Timeline.obj
 0001:0000b100       ?_Max@?$_Tree_val@V?$_Tmap_traits@KV?$Vec2@M@cinder@@U?$less@K@std@@V?$allocator@U?$pair@$$CBKV?$Vec2@M@cinder@@@std@@@4@$0A@@std@@@std@@SAPAU_Node@?$_Tree_nod@V?$_Tmap_traits@KV?$Vec2@M@cinder@@U?$less@K@std@@V?$allocator@U?$pair@$$CBKV?$Vec2@M@cinder@@@std@@@4@$0A@@std@@@2@PAU342@@Z 0040c100 f i cinder:AppImplMswBasic.obj
 0001:0000b100       ?_Max@?$_Tree_val@V?$_Tmap_traits@PAXV?$shared_ptr@VTimelineItem@cinder@@@tr1@std@@U?$less@PAX@3@V?$allocator@U?$pair@QAXV?$shared_ptr@VTimelineItem@cinder@@@tr1@std@@@std@@@3@$00@std@@@std@@SAPAU_Node@?$_Tree_nod@V?$_Tmap_traits@PAXV?$shared_ptr@VTimelineItem@cinder@@@tr1@std@@U?$less@PAX@3@V?$allocator@U?$pair@QAXV?$shared_ptr@VTimelineItem@cinder@@@tr1@std@@@std@@@3@$00@std@@@2@PAU342@@Z 0040c100 f i cinder:Timeline.obj
 0001:0000b120       ??E?$_Tree_unchecked_const_iterator@V?$_Tree_val@V?$_Tmap_traits@PAXV?$shared_ptr@VTimelineItem@cinder@@@tr1@std@@U?$less@PAX@3@V?$allocator@U?$pair@QAXV?$shared_ptr@VTimelineItem@cinder@@@tr1@std@@@std@@@3@$00@std@@@std@@U_Iterator_base0@2@@std@@QAEAAV01@XZ 0040c120 f i cinder:Timeline.obj
 0001:0000b120       ??E?$_Tree_unchecked_const_iterator@V?$_Tree_val@V?$_Tmap_traits@KV?$Vec2@M@cinder@@U?$less@K@std@@V?$allocator@U?$pair@$$CBKV?$Vec2@M@cinder@@@std@@@4@$0A@@std@@@std@@U_Iterator_base0@2@@std@@QAEAAV01@XZ 0040c120 f i cinder:AppImplMswBasic.obj
 0001:0000b170       ??1TimelineItem@cinder@@UAE@XZ 0040c170 f i cinder:Timeline.obj
 0001:0000b1a0       ?calcDuration@TimelineItem@cinder@@UBEMXZ 0040c1a0 f i cinder:Timeline.obj
 0001:0000b1b0       ??_GTimelineItem@cinder@@UAEPAXI@Z 0040c1b0 f i cinder:Timeline.obj
 0001:0000b1b0       ??_ETimelineItem@cinder@@UAEPAXI@Z 0040c1b0 f i cinder:Timeline.obj
 0001:0000b1f0       ??0TimelineItem@cinder@@QAE@ABV01@@Z 0040c1f0 f i cinder:Timeline.obj
 0001:0000b280       ?calcDuration@Timeline@cinder@@MBEMXZ 0040c280 f   cinder:Timeline.obj
 0001:0000b310       ?reset@Timeline@cinder@@UAEX_N@Z 0040c310 f   cinder:Timeline.obj
 0001:0000b390       ?reverse@Timeline@cinder@@MAEXXZ 0040c390 f   cinder:Timeline.obj
 0001:0000b400       ??1?$pair@PAXV?$shared_ptr@VTimelineItem@cinder@@@tr1@std@@@std@@QAE@XZ 0040c400 f i cinder:Timeline.obj
 0001:0000b440       ??$make_pair@PAXV?$shared_ptr@VTimelineItem@cinder@@@tr1@std@@@std@@YA?AU?$pair@PAXV?$shared_ptr@VTimelineItem@cinder@@@tr1@std@@@0@ABQAX$$QAV?$shared_ptr@VTimelineItem@cinder@@@tr1@0@@Z 0040c440 f i cinder:Timeline.obj
 0001:0000b480       ?_Insert@?$_Tree@V?$_Tmap_traits@PAXV?$shared_ptr@VTimelineItem@cinder@@@tr1@std@@U?$less@PAX@3@V?$allocator@U?$pair@QAXV?$shared_ptr@VTimelineItem@cinder@@@tr1@std@@@std@@@3@$00@std@@@std@@IAE?AV?$_Tree_iterator@V?$_Tree_val@V?$_Tmap_traits@PAXV?$shared_ptr@VTimelineItem@cinder@@@tr1@std@@U?$less@PAX@3@V?$allocator@U?$pair@QAXV?$shared_ptr@VTimelineItem@cinder@@@tr1@std@@@std@@@3@$00@std@@@std@@@2@_NPAU_Node@?$_Tree_nod@V?$_Tmap_traits@PAXV?$shared_ptr@VTimelineItem@cinder@@@tr1@std@@U?$less@PAX@3@V?$allocator@U?$pair@QAXV?$shared_ptr@VTimelineItem@cinder@@@tr1@std@@@std@@@3@$00@std@@@2@1@Z 0040c480 f i cinder:Timeline.obj
 0001:0000b6d0       ?erase@?$_Tree@V?$_Tmap_traits@PAXV?$shared_ptr@VTimelineItem@cinder@@@tr1@std@@U?$less@PAX@3@V?$allocator@U?$pair@QAXV?$shared_ptr@VTimelineItem@cinder@@@tr1@std@@@std@@@3@$00@std@@@std@@QAE?AV?$_Tree_iterator@V?$_Tree_val@V?$_Tmap_traits@PAXV?$shared_ptr@VTimelineItem@cinder@@@tr1@std@@U?$less@PAX@3@V?$allocator@U?$pair@QAXV?$shared_ptr@VTimelineItem@cinder@@@tr1@std@@@std@@@3@$00@std@@@std@@@2@V?$_Tree_const_iterator@V?$_Tree_val@V?$_Tmap_traits@PAXV?$shared_ptr@VTimelineItem@cinder@@@tr1@std@@U?$less@PAX@3@V?$allocator@U?$pair@QAXV?$shared_ptr@VTimelineItem@cinder@@@tr1@std@@@std@@@3@$00@std@@@std@@@2@@Z 0040c6d0 f i cinder:Timeline.obj
 0001:0000b950       ?_Erase@?$_Tree@V?$_Tmap_traits@PAXV?$shared_ptr@VTimelineItem@cinder@@@tr1@std@@U?$less@PAX@3@V?$allocator@U?$pair@QAXV?$shared_ptr@VTimelineItem@cinder@@@tr1@std@@@std@@@3@$00@std@@@std@@IAEXPAU_Node@?$_Tree_nod@V?$_Tmap_traits@PAXV?$shared_ptr@VTimelineItem@cinder@@@tr1@std@@U?$less@PAX@3@V?$allocator@U?$pair@QAXV?$shared_ptr@VTimelineItem@cinder@@@tr1@std@@@std@@@3@$00@std@@@2@@Z 0040c950 f i cinder:Timeline.obj
 0001:0000b9c0       ?eraseMarked@Timeline@cinder@@IAEXXZ 0040c9c0 f   cinder:Timeline.obj
 0001:0000baa0       ?erase@?$_Tree@V?$_Tmap_traits@PAXV?$shared_ptr@VTimelineItem@cinder@@@tr1@std@@U?$less@PAX@3@V?$allocator@U?$pair@QAXV?$shared_ptr@VTimelineItem@cinder@@@tr1@std@@@std@@@3@$00@std@@@std@@QAE?AV?$_Tree_iterator@V?$_Tree_val@V?$_Tmap_traits@PAXV?$shared_ptr@VTimelineItem@cinder@@@tr1@std@@U?$less@PAX@3@V?$allocator@U?$pair@QAXV?$shared_ptr@VTimelineItem@cinder@@@tr1@std@@@std@@@3@$00@std@@@std@@@2@V?$_Tree_const_iterator@V?$_Tree_val@V?$_Tmap_traits@PAXV?$shared_ptr@VTimelineItem@cinder@@@tr1@std@@U?$less@PAX@3@V?$allocator@U?$pair@QAXV?$shared_ptr@VTimelineItem@cinder@@@tr1@std@@@std@@@3@$00@std@@@std@@@2@0@Z 0040caa0 f i cinder:Timeline.obj
 0001:0000bb60       ??$_Buynode@U?$pair@PAXV?$shared_ptr@VTimelineItem@cinder@@@tr1@std@@@std@@@?$_Tree_val@V?$_Tmap_traits@PAXV?$shared_ptr@VTimelineItem@cinder@@@tr1@std@@U?$less@PAX@3@V?$allocator@U?$pair@QAXV?$shared_ptr@VTimelineItem@cinder@@@tr1@std@@@std@@@3@$00@std@@@std@@QAEPAU_Node@?$_Tree_nod@V?$_Tmap_traits@PAXV?$shared_ptr@VTimelineItem@cinder@@@tr1@std@@U?$less@PAX@3@V?$allocator@U?$pair@QAXV?$shared_ptr@VTimelineItem@cinder@@@tr1@std@@@std@@@3@$00@std@@@1@$$QAU?$pair@PAXV?$shared_ptr@VTimelineItem@cinder@@@tr1@std@@@1@@Z 0040cb60 f i cinder:Timeline.obj
 0001:0000bbf0       ?stepTo@Timeline@cinder@@QAEXM@Z 0040cbf0 f   cinder:Timeline.obj
 0001:0000bcb0       ?update@Timeline@cinder@@MAEXM@Z 0040ccb0 f   cinder:Timeline.obj
 0001:0000bce0       ??1?$multimap@PAXV?$shared_ptr@VTimelineItem@cinder@@@tr1@std@@U?$less@PAX@3@V?$allocator@U?$pair@QAXV?$shared_ptr@VTimelineItem@cinder@@@tr1@std@@@std@@@3@@std@@QAE@XZ 0040cce0 f i cinder:Timeline.obj
 0001:0000bd40       ??0Timeline@cinder@@IAE@XZ 0040cd40 f   cinder:Timeline.obj
 0001:0000be10       ?stepTo@Timeline@cinder@@UAEXM_N@Z 0040ce10 f i cinder:Timeline.obj
 0001:0000be30       ??1Timeline@cinder@@UAE@XZ 0040ce30 f i cinder:Timeline.obj
 0001:0000bed0       ??_ETimeline@cinder@@UAEPAXI@Z 0040ced0 f i cinder:Timeline.obj
 0001:0000bed0       ??_GTimeline@cinder@@UAEPAXI@Z 0040ced0 f i cinder:Timeline.obj
 0001:0000bf00       ??0Timeline@cinder@@AAE@ABV01@@Z 0040cf00 f   cinder:Timeline.obj
 0001:0000c100       ?clone@Timeline@cinder@@MBE?AV?$shared_ptr@VTimelineItem@cinder@@@tr1@std@@XZ 0040d100 f   cinder:Timeline.obj
 0001:0000c190       ?cloneReverse@Timeline@cinder@@MBE?AV?$shared_ptr@VTimelineItem@cinder@@@tr1@std@@XZ 0040d190 f   cinder:Timeline.obj
 0001:0000c290       ??0Exception@cinder@@QAE@XZ 0040d290 f   cinder:Exception.obj
 0001:0000c2b0       ?getBuffer@DataSource@cinder@@QAEAAVBuffer@2@XZ 0040d2b0 f   cinder:DataSource.obj
 0001:0000c2d0       ___GLeeGetProcAddress      0040d2d0 f   cinder:GLee.obj
 0001:0000c2e0       ___GLeeLink_GL_VERSION_1_2 0040d2e0 f   cinder:GLee.obj
 0001:0000c870       ___GLeeLink_GL_VERSION_1_3 0040d870 f   cinder:GLee.obj
 0001:0000cf20       ___GLeeLink_GL_VERSION_1_4 0040df20 f   cinder:GLee.obj
 0001:0000d5a0       ___GLeeLink_GL_VERSION_1_5 0040e5a0 f   cinder:GLee.obj
 0001:0000d880       ___GLeeLink_GL_VERSION_2_0 0040e880 f   cinder:GLee.obj
 0001:0000e5c0       ___GLeeLink_GL_VERSION_2_1 0040f5c0 f   cinder:GLee.obj
 0001:0000e6d0       ___GLeeLink_GL_VERSION_3_0 0040f6d0 f   cinder:GLee.obj
 0001:0000ef30       ___GLeeLink_GL_ARB_multitexture 0040ff30 f   cinder:GLee.obj
 0001:0000f430       ___GLeeLink_GL_ARB_transpose_matrix 00410430 f   cinder:GLee.obj
 0001:0000f4f0       ___GLeeLink_GL_ARB_multisample 004104f0 f   cinder:GLee.obj
 0001:0000f540       ___GLeeLink_GL_ARB_texture_compression 00410540 f   cinder:GLee.obj
 0001:0000f670       ___GLeeLink_GL_ARB_point_parameters 00410670 f   cinder:GLee.obj
 0001:0000f6f0       ___GLeeLink_GL_ARB_vertex_blend 004106f0 f   cinder:GLee.obj
 0001:0000f890       ___GLeeLink_GL_ARB_matrix_palette 00410890 f   cinder:GLee.obj
 0001:0000f970       ___GLeeLink_GL_ARB_window_pos 00410970 f   cinder:GLee.obj
 0001:0000fbe0       ___GLeeLink_GL_ARB_vertex_program 00410be0 f   cinder:GLee.obj
 0001:000104d0       ___GLeeLink_GL_ARB_vertex_buffer_object 004114d0 f   cinder:GLee.obj
 0001:00010690       ___GLeeLink_GL_ARB_occlusion_query 00411690 f   cinder:GLee.obj
 0001:000107e0       ___GLeeLink_GL_ARB_shader_objects 004117e0 f   cinder:GLee.obj
 0001:00010d90       ___GLeeLink_GL_ARB_vertex_shader 00411d90 f   cinder:GLee.obj
 0001:00010e30       ___GLeeLink_GL_ARB_draw_buffers 00411e30 f   cinder:GLee.obj
 0001:00010e80       ___GLeeLink_GL_ARB_color_buffer_float 00411e80 f   cinder:GLee.obj
 0001:00010ed0       ___GLeeLink_GL_ARB_draw_instanced 00411ed0 f   cinder:GLee.obj
 0001:00010f50       ___GLeeLink_GL_ARB_framebuffer_object 00411f50 f   cinder:GLee.obj
 0001:00011250       ___GLeeLink_GL_ARB_geometry_shader4 00412250 f   cinder:GLee.obj
 0001:00011310       ___GLeeLink_GL_ARB_instanced_arrays 00412310 f   cinder:GLee.obj
 0001:00011360       ___GLeeLink_GL_ARB_map_buffer_range 00412360 f   cinder:GLee.obj
 0001:000113e0       ___GLeeLink_GL_ARB_texture_buffer_object 004123e0 f   cinder:GLee.obj
 0001:00011430       ___GLeeLink_GL_ARB_fragment_program_shadow 00412430 f   cinder:GLee.obj
 0001:00011430       ___GLeeLink_GL_ARB_texture_cube_map 00412430 f   cinder:GLee.obj
 0001:00011430       ___GLeeLink_GL_EXT_422_pixels 00412430 f   cinder:GLee.obj
 0001:00011430       ___GLeeLink_GL_EXT_framebuffer_sRGB 00412430 f   cinder:GLee.obj
 0001:00011430       ___GLeeLink_GL_EXT_index_array_formats 00412430 f   cinder:GLee.obj
 0001:00011430       ___GLeeLink_GL_NV_texture_shader 00412430 f   cinder:GLee.obj
 0001:00011430       ___GLeeLink_GL_MESA_pack_invert 00412430 f   cinder:GLee.obj
 0001:00011430       ___GLeeLink_GL_ARB_fragment_shader 00412430 f   cinder:GLee.obj
 0001:00011430       ___GLeeLink_WGL_3DFX_multisample 00412430 f   cinder:GLee.obj
 0001:00011430       ___GLeeLink_GL_INGR_interlace_read 00412430 f   cinder:GLee.obj
 0001:00011430       ___GLeeLink_GL_EXT_packed_pixels 00412430 f   cinder:GLee.obj
 0001:00011430       ___GLeeLink_GL_NV_float_buffer 00412430 f   cinder:GLee.obj
 0001:00011430       ___GLeeLink_GL_NV_texture_rectangle 00412430 f   cinder:GLee.obj
 0001:00011430       ___GLeeLink_GL_EXT_texture_array 00412430 f   cinder:GLee.obj
 0001:00011430       ___GLeeLink_GL_ARB_texture_compression_rgtc 00412430 f   cinder:GLee.obj
 0001:00011430       ___GLeeLink_WGL_EXT_framebuffer_sRGB 00412430 f   cinder:GLee.obj
 0001:00011430       ___GLeeLink_GL_SGIX_scalebias_hint 00412430 f   cinder:GLee.obj
 0001:00011430       ___GLeeLink_GL_ATI_text_fragment_shader 00412430 f   cinder:GLee.obj
 0001:00011430       ___GLeeLink_GL_NV_vertex_program3 00412430 f   cinder:GLee.obj
 0001:00011430       ___GLeeLink_GL_EXT_stencil_wrap 00412430 f   cinder:GLee.obj
 0001:00011430       ___GLeeLink_GL_SGIX_async_pixel 00412430 f   cinder:GLee.obj
 0001:00011430       ___GLeeLink_GL_SGI_texture_color_table 00412430 f   cinder:GLee.obj
 0001:00011430       ___GLeeLink_GL_OES_compressed_paletted_texture 00412430 f   cinder:GLee.obj
 0001:00011430       ___GLeeLink_GL_EXT_texture_filter_anisotropic 00412430 f   cinder:GLee.obj
 0001:00011430       ___GLeeLink_GL_REND_screen_coordinates 00412430 f   cinder:GLee.obj
 0001:00011430       ___GLeeLink_GL_ARB_texture_non_power_of_two 00412430 f   cinder:GLee.obj
 0001:00011430       ___GLeeLink_GL_SGIX_pixel_texture_bits 00412430 f   cinder:GLee.obj
 0001:00011430       ___GLeeLink_GL_NV_geometry_shader4 00412430 f   cinder:GLee.obj
 0001:00011430       ___GLeeLink_GL_NV_vertex_program2 00412430 f   cinder:GLee.obj
 0001:00011430       ___GLeeLink_GL_NV_texture_compression_vtc 00412430 f   cinder:GLee.obj
 0001:00011430       ___GLeeLink_GL_EXT_separate_specular_color 00412430 f   cinder:GLee.obj
 0001:00011430       ___GLeeLink_GL_SGIX_fog_scale 00412430 f   cinder:GLee.obj
 0001:00011430       ___GLeeLink_GL_INGR_palette_buffer 00412430 f   cinder:GLee.obj
 0001:00011430       ___GLeeLink_GL_SGIX_texture_coordinate_clamp 00412430 f   cinder:GLee.obj
 0001:00011430       ___GLeeLink_GL_NV_texgen_emboss 00412430 f   cinder:GLee.obj
 0001:00011430       ___GLeeLink_WGL_ATI_pixel_format_float 00412430 f   cinder:GLee.obj
 0001:00011430       ___GLeeLink_GL_WIN_specular_fog 00412430 f   cinder:GLee.obj
 0001:00011430       ___GLeeLink_WGL_EXT_depth_float 00412430 f   cinder:GLee.obj
 0001:00011430       ___GLeeLink_GL_EXT_misc_attribute 00412430 f   cinder:GLee.obj
 0001:00011430       ___GLeeLink_WGL_NV_render_texture_rectangle 00412430 f   cinder:GLee.obj
 0001:00011430       ___GLeeLink_GL_WIN_phong_shading 00412430 f   cinder:GLee.obj
 0001:00011430       ___GLeeLink_GL_EXT_cmyka   00412430 f   cinder:GLee.obj
 0001:00011430       ___GLeeLink_GL_EXT_texture_env_add 00412430 f   cinder:GLee.obj
 0001:00011430       ___GLeeLink_GL_EXT_vertex_array_bgra 00412430 f   cinder:GLee.obj
 0001:00011430       ___GLeeLink_GL_EXT_shadow_funcs 00412430 f   cinder:GLee.obj
 0001:00011430       ___GLeeLink_GL_EXT_pixel_transform_color_table 00412430 f   cinder:GLee.obj
 0001:00011430       ___GLeeLink_GL_NV_fragment_program2 00412430 f   cinder:GLee.obj
 0001:00011430       ___GLeeLink_GL_SGIS_texture_border_clamp 00412430 f   cinder:GLee.obj
 0001:00011430       ___GLeeLink_GL_NV_blend_square 00412430 f   cinder:GLee.obj
 0001:00011430       ___GLeeLink_GL_OML_resample 00412430 f   cinder:GLee.obj
 0001:00011430       ___GLeeLink_GL_SGIX_texture_select 00412430 f   cinder:GLee.obj
 0001:00011430       ___GLeeLink_GL_NV_vertex_program1_1 00412430 f   cinder:GLee.obj
 0001:00011430       ___GLeeLink_GL_EXT_shared_texture_palette 00412430 f   cinder:GLee.obj
 0001:00011430       ___GLeeLink_GL_PGI_vertex_hints 00412430 f   cinder:GLee.obj
 0001:00011430       ___GLeeLink_GL_SGIX_fog_offset 00412430 f   cinder:GLee.obj
 0001:00011430       ___GLeeLink_GL_NV_fragment_program_option 00412430 f   cinder:GLee.obj
 0001:00011430       ___GLeeLink_GL_SGIX_clipmap 00412430 f   cinder:GLee.obj
 0001:00011430       ___GLeeLink_GL_APPLE_transform_hint 00412430 f   cinder:GLee.obj
 0001:00011430       ___GLeeLink_GL_SGIX_resample 00412430 f   cinder:GLee.obj
 0001:00011430       ___GLeeLink_GL_ARB_texture_rectangle 00412430 f   cinder:GLee.obj
 0001:00011430       ___GLeeLink_GL_FfdMaskSGIX 00412430 f   cinder:GLee.obj
 0001:00011430       ___GLeeLink_GL_EXT_texture_compression_dxt1 00412430 f   cinder:GLee.obj
 0001:00011430       ___GLeeLink_GL_NV_vertex_program2_option 00412430 f   cinder:GLee.obj
 0001:00011430       ___GLeeLink_GL_EXT_texture_compression_latc 00412430 f   cinder:GLee.obj
 0001:00011430       ___GLeeLink_GL_SGIS_point_line_texgen 00412430 f   cinder:GLee.obj
 0001:00011430       ___GLeeLink_GL_EXT_pixel_buffer_object 00412430 f   cinder:GLee.obj
 0001:00011430       ___GLeeLink_GL_SGIX_shadow 00412430 f   cinder:GLee.obj
 0001:00011430       ___GLeeLink_GL_ARB_depth_buffer_float 00412430 f   cinder:GLee.obj
 0001:00011430       ___GLeeLink_GL_ARB_texture_env_combine 00412430 f   cinder:GLee.obj
 0001:00011430       ___GLeeLink_GL_EXT_texture_env_dot3 00412430 f   cinder:GLee.obj
 0001:00011430       ___GLeeLink_GL_SGIS_generate_mipmap 00412430 f   cinder:GLee.obj
 0001:00011430       ___GLeeLink_GL_IBM_texture_mirrored_repeat 00412430 f   cinder:GLee.obj
 0001:00011430       ___GLeeLink_GL_OML_subsample 00412430 f   cinder:GLee.obj
 0001:00011430       ___GLeeLink_GL_ARB_texture_env_crossbar 00412430 f   cinder:GLee.obj
 0001:00011430       ___GLeeLink_GL_SGIX_ycrcb_subsample 00412430 f   cinder:GLee.obj
 0001:00011430       ___GLeeLink_GL_APPLE_client_storage 00412430 f   cinder:GLee.obj
 0001:00011430       ___GLeeLink_GL_SGIX_texture_scale_bias 00412430 f   cinder:GLee.obj
 0001:00011430       ___GLeeLink_GL_EXT_texture_compression_rgtc 00412430 f   cinder:GLee.obj
 0001:00011430       ___GLeeLink_GL_SGIX_depth_texture 00412430 f   cinder:GLee.obj
 0001:00011430       ___GLeeLink_GL_EXT_texture_env 00412430 f   cinder:GLee.obj
 0001:00011430       ___GLeeLink_GL_INTEL_texture_scissor 00412430 f   cinder:GLee.obj
 0001:00011430       ___GLeeLink_GL_SGIX_ir_instrument1 00412430 f   cinder:GLee.obj
 0001:00011430       ___GLeeLink_GL_EXT_packed_float 00412430 f   cinder:GLee.obj
 0001:00011430       ___GLeeLink_GL_SGIX_calligraphic_fragment 00412430 f   cinder:GLee.obj
 0001:00011430       ___GLeeLink_GL_SGIX_texture_add_env 00412430 f   cinder:GLee.obj
 0001:00011430       ___GLeeLink_GL_ARB_depth_texture 00412430 f   cinder:GLee.obj
 0001:00011430       ___GLeeLink_GL_EXT_texture 00412430 f   cinder:GLee.obj
 0001:00011430       ___GLeeLink_GL_EXT_texture_lod_bias 00412430 f   cinder:GLee.obj
 0001:00011430       ___GLeeLink_GL_EXT_blend_logic_op 00412430 f   cinder:GLee.obj
 0001:00011430       ___GLeeLink_GL_EXT_texture_cube_map 00412430 f   cinder:GLee.obj
 0001:00011430       ___GLeeLink_GL_NV_copy_depth_to_color 00412430 f   cinder:GLee.obj
 0001:00011430       ___GLeeLink_GL_ARB_texture_mirrored_repeat 00412430 f   cinder:GLee.obj
 0001:00011430       ___GLeeLink_GL_NV_texture_shader3 00412430 f   cinder:GLee.obj
 0001:00011430       ___GLeeLink_GL_SGI_depth_pass_instrument 00412430 f   cinder:GLee.obj
 0001:00011430       ___GLeeLink_GL_EXT_texture_env_combine 00412430 f   cinder:GLee.obj
 0001:00011430       ___GLeeLink_GL_SGIS_texture_select 00412430 f   cinder:GLee.obj
 0001:00011430       ___GLeeLink_GL_EXT_texture_swizzle 00412430 f   cinder:GLee.obj
 0001:00011430       ___GLeeLink_GL_ARB_point_sprite 00412430 f   cinder:GLee.obj
 0001:00011430       ___GLeeLink_GL_SGIX_shadow_ambient 00412430 f   cinder:GLee.obj
 0001:00011430       ___GLeeLink_GL_SGIX_convolution_accuracy 00412430 f   cinder:GLee.obj
 0001:00011430       ___GLeeLink_GL_OES_read_format 00412430 f   cinder:GLee.obj
 0001:00011430       ___GLeeLink_GL_SUN_convolution_border_modes 00412430 f   cinder:GLee.obj
 0001:00011430       ___GLeeLink_GL_NV_fog_distance 00412430 f   cinder:GLee.obj
 0001:00011430       ___GLeeLink_GL_ARB_texture_env_dot3 00412430 f   cinder:GLee.obj
 0001:00011430       ___GLeeLink_GL_SGIS_texture_edge_clamp 00412430 f   cinder:GLee.obj
 0001:00011430       ___GLeeLink_GL_NV_texture_expand_normal 00412430 f   cinder:GLee.obj
 0001:00011430       ___GLeeLink_GL_ARB_shading_language_100 00412430 f   cinder:GLee.obj
 0001:00011430       ___GLeeLink_GL_SGIX_ycrcba 00412430 f   cinder:GLee.obj
 0001:00011430       ___GLeeLink_GL_ARB_texture_float 00412430 f   cinder:GLee.obj
 0001:00011430       ___GLeeLink_GL_SGIX_subsample 00412430 f   cinder:GLee.obj
 0001:00011430       ___GLeeLink_GL_ARB_texture_border_clamp 00412430 f   cinder:GLee.obj
 0001:00011430       ___GLeeLink_GL_SGIX_texture_lod_bias 00412430 f   cinder:GLee.obj
 0001:00011430       ___GLeeLink_GL_NV_present_video 00412430 f   cinder:GLee.obj
 0001:00011430       ___GLeeLink_GL_IBM_static_data 00412430 f   cinder:GLee.obj
 0001:00011430       ___GLeeLink_WGL_NV_render_depth_texture 00412430 f   cinder:GLee.obj
 0001:00011430       ___GLeeLink_GL_EXT_texture_mirror_clamp 00412430 f   cinder:GLee.obj
 0001:00011430       ___GLeeLink_GL_SGIX_blend_alpha_minmax 00412430 f   cinder:GLee.obj
 0001:00011430       ___GLeeLink_GL_EXT_blend_subtract 00412430 f   cinder:GLee.obj
 0001:00011430       ___GLeeLink_GL_ARB_half_float_pixel 00412430 f   cinder:GLee.obj
 0001:00011430       ___GLeeLink_GL_ARB_imaging 00412430 f   cinder:GLee.obj
 0001:00011430       ___GLeeLink_WGL_EXT_multisample 00412430 f   cinder:GLee.obj
 0001:00011430       ___GLeeLink_GL_SGI_color_matrix 00412430 f   cinder:GLee.obj
 0001:00011430       ___GLeeLink_GL_ARB_fragment_program 00412430 f   cinder:GLee.obj
 0001:00011430       ___GLeeLink_GL_EXT_rescale_normal 00412430 f   cinder:GLee.obj
 0001:00011430       ___GLeeLink_GL_SGIX_impact_pixel_texture 00412430 f   cinder:GLee.obj
 0001:00011430       ___GLeeLink_GL_HP_texture_lighting 00412430 f   cinder:GLee.obj
 0001:00011430       ___GLeeLink_GL_ARB_framebuffer_sRGB 00412430 f   cinder:GLee.obj
 0001:00011430       ___GLeeLink_GL_EXT_packed_depth_stencil 00412430 f   cinder:GLee.obj
 0001:00011430       ___GLeeLink_GL_SGIX_ycrcb  00412430 f   cinder:GLee.obj
 0001:00011430       ___GLeeLink_GL_EXT_clip_volume_hint 00412430 f   cinder:GLee.obj
 0001:00011430       ___GLeeLink_GL_INGR_color_clamp 00412430 f   cinder:GLee.obj
 0001:00011430       ___GLeeLink_GL_NV_multisample_filter_hint 00412430 f   cinder:GLee.obj
 0001:00011430       ___GLeeLink_GL_NV_packed_depth_stencil 00412430 f   cinder:GLee.obj
 0001:00011430       ___GLeeLink_GL_NV_texture_env_combine4 00412430 f   cinder:GLee.obj
 0001:00011430       ___GLeeLink_GL_SGIX_depth_pass_instrument 00412430 f   cinder:GLee.obj
 0001:00011430       ___GLeeLink_WGL_ARB_multisample 00412430 f   cinder:GLee.obj
 0001:00011430       ___GLeeLink_GL_SGIX_vertex_preclip 00412430 f   cinder:GLee.obj
 0001:00011430       ___GLeeLink_GL_NV_texture_shader2 00412430 f   cinder:GLee.obj
 0001:00011430       ___GLeeLink_GL_ARB_half_float_vertex 00412430 f   cinder:GLee.obj
 0001:00011430       ___GLeeLink_GL_NV_vertex_array_range2 00412430 f   cinder:GLee.obj
 0001:00011430       ___GLeeLink_GL_MESAX_texture_stack 00412430 f   cinder:GLee.obj
 0001:00011430       ___GLeeLink_GL_ATI_texture_mirror_once 00412430 f   cinder:GLee.obj
 0001:00011430       ___GLeeLink_GL_SGIX_pixel_tiles 00412430 f   cinder:GLee.obj
 0001:00011430       ___GLeeLink_GL_NV_depth_clamp 00412430 f   cinder:GLee.obj
 0001:00011430       ___GLeeLink_GL_ATI_texture_env_combine3 00412430 f   cinder:GLee.obj
 0001:00011430       ___GLeeLink_GL_ARB_shadow_ambient 00412430 f   cinder:GLee.obj
 0001:00011430       ___GLeeLink_GL_OML_interlace 00412430 f   cinder:GLee.obj
 0001:00011430       ___GLeeLink_GL_EXT_texture_sRGB 00412430 f   cinder:GLee.obj
 0001:00011430       ___GLeeLink_GL_NV_texgen_reflection 00412430 f   cinder:GLee.obj
 0001:00011430       ___GLeeLink_WGL_ARB_pixel_format_float 00412430 f   cinder:GLee.obj
 0001:00011430       ___GLeeLink_GL_SGIX_texture_range 00412430 f   cinder:GLee.obj
 0001:00011430       ___GLeeLink_GL_ARB_pixel_buffer_object 00412430 f   cinder:GLee.obj
 0001:00011430       ___GLeeLink_GL_ARB_texture_env_add 00412430 f   cinder:GLee.obj
 0001:00011430       ___GLeeLink_GL_EXT_texture_compression_s3tc 00412430 f   cinder:GLee.obj
 0001:00011430       ___GLeeLink_GL_EXT_texture_shared_exponent 00412430 f   cinder:GLee.obj
 0001:00011430       ___GLeeLink_GL_HP_occlusion_test 00412430 f   cinder:GLee.obj
 0001:00011430       ___GLeeLink_GL_APPLE_specular_vector 00412430 f   cinder:GLee.obj
 0001:00011430       ___GLeeLink_GL_ATI_pixel_format_float 00412430 f   cinder:GLee.obj
 0001:00011430       ___GLeeLink_GL_SGIS_texture_lod 00412430 f   cinder:GLee.obj
 0001:00011430       ___GLeeLink_GL_NV_light_max_exponent 00412430 f   cinder:GLee.obj
 0001:00011430       ___GLeeLink_GL_HP_convolution_border_modes 00412430 f   cinder:GLee.obj
 0001:00011430       ___GLeeLink_GL_EXT_abgr    00412430 f   cinder:GLee.obj
 0001:00011430       ___GLeeLink_GL_SGIX_async_histogram 00412430 f   cinder:GLee.obj
 0001:00011430       ___GLeeLink_WGL_3DL_stereo_control 00412430 f   cinder:GLee.obj
 0001:00011430       ___GLeeLink_GL_SGIX_texture_multi_buffer 00412430 f   cinder:GLee.obj
 0001:00011430       ___GLeeLink_GL_APPLE_ycbcr_422 00412430 f   cinder:GLee.obj
 0001:00011430       ___GLeeLink_GL_MESA_ycbcr_texture 00412430 f   cinder:GLee.obj
 0001:00011430       ___GLeeLink_GL_OES_byte_coordinates 00412430 f   cinder:GLee.obj
 0001:00011430       ___GLeeLink_GL_IBM_rasterpos_clip 00412430 f   cinder:GLee.obj
 0001:00011430       ___GLeeLink_GL_ARB_texture_rg 00412430 f   cinder:GLee.obj
 0001:00011430       ___GLeeLink_GL_EXT_index_texture 00412430 f   cinder:GLee.obj
 0001:00011430       ___GLeeLink_GL_EXT_bgra    00412430 f   cinder:GLee.obj
 0001:00011430       ___GLeeLink_WGL_EXT_pixel_format_packed_float 00412430 f   cinder:GLee.obj
 0001:00011430       ___GLeeLink_GL_ARB_shadow  00412430 f   cinder:GLee.obj
 0001:00011430       ___GLeeLink_GL_3DFX_multisample 00412430 f   cinder:GLee.obj
 0001:00011430       ___GLeeLink_GL_3DFX_texture_compression_FXT1 00412430 f   cinder:GLee.obj
 0001:00011430       ___GLeeLink_GL_ATI_texture_float 00412430 f   cinder:GLee.obj
 0001:00011430       ___GLeeLink_GL_IBM_cull_vertex 00412430 f   cinder:GLee.obj
 0001:00011430       ___GLeeLink_GL_SGIX_interlace 00412430 f   cinder:GLee.obj
 0001:00011430       ___GLeeLink_GL_S3_s3tc     00412430 f   cinder:GLee.obj
 0001:00011430       ___GLeeLink_WGL_NV_float_buffer 00412430 f   cinder:GLee.obj
 0001:00011430       ___GLeeLink_GL_SUN_slice_accum 00412430 f   cinder:GLee.obj
 0001:00011440       ___GLeeLink_GL_ARB_vertex_array_object 00412440 f   cinder:GLee.obj
 0001:00011500       ___GLeeLink_GL_EXT_blend_color 00412500 f   cinder:GLee.obj
 0001:00011550       ___GLeeLink_GL_EXT_polygon_offset 00412550 f   cinder:GLee.obj
 0001:000115a0       ___GLeeLink_GL_EXT_texture3D 004125a0 f   cinder:GLee.obj
 0001:00011620       ___GLeeLink_GL_SGIS_texture_filter4 00412620 f   cinder:GLee.obj
 0001:000116a0       ___GLeeLink_GL_EXT_subtexture 004126a0 f   cinder:GLee.obj
 0001:00011720       ___GLeeLink_GL_EXT_copy_texture 00412720 f   cinder:GLee.obj
 0001:00011800       ___GLeeLink_GL_EXT_histogram 00412800 f   cinder:GLee.obj
 0001:000119a0       ___GLeeLink_GL_EXT_convolution 004129a0 f   cinder:GLee.obj
 0001:00011ba0       ___GLeeLink_GL_SGI_color_table 00412ba0 f   cinder:GLee.obj
 0001:00011cd0       ___GLeeLink_GL_SGIS_pixel_texture 00412cd0 f   cinder:GLee.obj
 0001:00011de0       ___GLeeLink_GL_SGIX_pixel_texture 00412de0 f   cinder:GLee.obj
 0001:00011e30       ___GLeeLink_GL_SGIS_texture4D 00412e30 f   cinder:GLee.obj
 0001:00011eb0       ___GLeeLink_GL_EXT_texture_object 00412eb0 f   cinder:GLee.obj
 0001:00011fc0       ___GLeeLink_GL_SGIS_detail_texture 00412fc0 f   cinder:GLee.obj
 0001:00012040       ___GLeeLink_GL_SGIS_sharpen_texture 00413040 f   cinder:GLee.obj
 0001:000120c0       ___GLeeLink_GL_SGIS_multisample 004130c0 f   cinder:GLee.obj
 0001:00012140       ___GLeeLink_GL_EXT_vertex_array 00413140 f   cinder:GLee.obj
 0001:00012170       ___GLeeLink_GL_EXT_blend_minmax 00413170 f   cinder:GLee.obj
 0001:000121c0       ___GLeeLink_GL_SGIX_sprite 004131c0 f   cinder:GLee.obj
 0001:00012280       ___GLeeLink_GL_EXT_point_parameters 00413280 f   cinder:GLee.obj
 0001:00012300       ___GLeeLink_GL_SGIS_point_parameters 00413300 f   cinder:GLee.obj
 0001:00012380       ___GLeeLink_GL_SGIX_instruments 00413380 f   cinder:GLee.obj
 0001:00012490       ___GLeeLink_GL_SGIX_framezoom 00413490 f   cinder:GLee.obj
 0001:000124e0       ___GLeeLink_GL_SGIX_tag_sample_buffer 004134e0 f   cinder:GLee.obj
 0001:00012530       ___GLeeLink_GL_SGIX_polynomial_ffd 00413530 f   cinder:GLee.obj
 0001:000125f0       ___GLeeLink_GL_SGIX_reference_plane 004135f0 f   cinder:GLee.obj
 0001:00012640       ___GLeeLink_GL_SGIX_flush_raster 00413640 f   cinder:GLee.obj
 0001:00012690       ___GLeeLink_GL_SGIS_fog_function 00413690 f   cinder:GLee.obj
 0001:00012710       ___GLeeLink_GL_HP_image_transform 00413710 f   cinder:GLee.obj
 0001:00012820       ___GLeeLink_GL_EXT_color_subtable 00413820 f   cinder:GLee.obj
 0001:000128a0       ___GLeeLink_GL_PGI_misc_hints 004138a0 f   cinder:GLee.obj
 0001:000128f0       ___GLeeLink_GL_EXT_paletted_texture 004138f0 f   cinder:GLee.obj
 0001:00012920       ___GLeeLink_GL_SGIX_list_priority 00413920 f   cinder:GLee.obj
 0001:00012a30       ___GLeeLink_GL_EXT_index_material 00413a30 f   cinder:GLee.obj
 0001:00012a80       ___GLeeLink_GL_EXT_index_func 00413a80 f   cinder:GLee.obj
 0001:00012ad0       ___GLeeLink_GL_EXT_compiled_vertex_array 00413ad0 f   cinder:GLee.obj
 0001:00012b50       ___GLeeLink_GL_EXT_cull_vertex 00413b50 f   cinder:GLee.obj
 0001:00012bd0       ___GLeeLink_GL_SGIX_fragment_lighting 00413bd0 f   cinder:GLee.obj
 0001:00012e90       ___GLeeLink_GL_EXT_draw_range_elements 00413e90 f   cinder:GLee.obj
 0001:00012ee0       ___GLeeLink_GL_EXT_light_texture 00413ee0 f   cinder:GLee.obj
 0001:00012f80       ___GLeeLink_GL_SGIX_async  00413f80 f   cinder:GLee.obj
 0001:00013090       ___GLeeLink_GL_INTEL_parallel_arrays 00414090 f   cinder:GLee.obj
 0001:00013150       ___GLeeLink_GL_EXT_pixel_transform 00414150 f   cinder:GLee.obj
 0001:00013210       ___GLeeLink_GL_EXT_secondary_color 00414210 f   cinder:GLee.obj
 0001:000134a0       ___GLeeLink_GL_EXT_texture_perturb_normal 004144a0 f   cinder:GLee.obj
 0001:000134f0       ___GLeeLink_GL_EXT_multi_draw_arrays 004144f0 f   cinder:GLee.obj
 0001:00013570       ___GLeeLink_GL_EXT_fog_coord 00414570 f   cinder:GLee.obj
 0001:00013650       ___GLeeLink_GL_EXT_coordinate_frame 00414650 f   cinder:GLee.obj
 0001:000139a0       ___GLeeLink_GL_SUNX_constant_data 004149a0 f   cinder:GLee.obj
 0001:000139f0       ___GLeeLink_GL_SUN_global_alpha 004149f0 f   cinder:GLee.obj
 0001:00013b40       ___GLeeLink_GL_SUN_triangle_list 00414b40 f   cinder:GLee.obj
 0001:00013c70       ___GLeeLink_GL_SUN_vertex  00414c70 f   cinder:GLee.obj
 0001:00014240       ___GLeeLink_GL_EXT_blend_func_separate 00415240 f   cinder:GLee.obj
 0001:00014290       ___GLeeLink_GL_EXT_vertex_weighting 00415290 f   cinder:GLee.obj
 0001:00014330       ___GLeeLink_GL_NV_vertex_array_range 00415330 f   cinder:GLee.obj
 0001:000143b0       ___GLeeLink_GL_NV_register_combiners 004153b0 f   cinder:GLee.obj
 0001:000145b0       ___GLeeLink_GL_MESA_resize_buffers 004155b0 f   cinder:GLee.obj
 0001:00014600       ___GLeeLink_GL_MESA_window_pos 00415600 f   cinder:GLee.obj
 0001:00014990       ___GLeeLink_GL_IBM_multimode_draw_arrays 00415990 f   cinder:GLee.obj
 0001:00014a10       ___GLeeLink_GL_IBM_vertex_array_lists 00415a10 f   cinder:GLee.obj
 0001:00014b60       ___GLeeLink_GL_3DFX_tbuffer 00415b60 f   cinder:GLee.obj
 0001:00014bb0       ___GLeeLink_GL_EXT_multisample 00415bb0 f   cinder:GLee.obj
 0001:00014c30       ___GLeeLink_GL_SGIS_texture_color_mask 00415c30 f   cinder:GLee.obj
 0001:00014c80       ___GLeeLink_GL_NV_fence    00415c80 f   cinder:GLee.obj
 0001:00014db0       ___GLeeLink_GL_NV_evaluators 00415db0 f   cinder:GLee.obj
 0001:00014f20       ___GLeeLink_GL_NV_register_combiners2 00415f20 f   cinder:GLee.obj
 0001:00014fa0       ___GLeeLink_GL_NV_vertex_program 00415fa0 f   cinder:GLee.obj
 0001:000158d0       ___GLeeLink_GL_ATI_envmap_bumpmap 004168d0 f   cinder:GLee.obj
 0001:00015990       ___GLeeLink_GL_ATI_fragment_shader 00416990 f   cinder:GLee.obj
 0001:00015bc0       ___GLeeLink_GL_ATI_pn_triangles 00416bc0 f   cinder:GLee.obj
 0001:00015c40       ___GLeeLink_GL_ATI_vertex_array_object 00416c40 f   cinder:GLee.obj
 0001:00015e20       ___GLeeLink_GL_EXT_vertex_shader 00416e20 f   cinder:GLee.obj
 0001:00016440       ___GLeeLink_GL_ATI_vertex_streams 00417440 f   cinder:GLee.obj
 0001:00016ac0       ___GLeeLink_GL_ATI_element_array 00417ac0 f   cinder:GLee.obj
 0001:00016b60       ___GLeeLink_GL_SUN_mesh_array 00417b60 f   cinder:GLee.obj
 0001:00016bb0       ___GLeeLink_GL_NV_occlusion_query 00417bb0 f   cinder:GLee.obj
 0001:00016ce0       ___GLeeLink_GL_NV_point_sprite 00417ce0 f   cinder:GLee.obj
 0001:00016d60       ___GLeeLink_GL_EXT_stencil_two_side 00417d60 f   cinder:GLee.obj
 0001:00016db0       ___GLeeLink_GL_APPLE_element_array 00417db0 f   cinder:GLee.obj
 0001:00016e90       ___GLeeLink_GL_APPLE_fence 00417e90 f   cinder:GLee.obj
 0001:00016fe0       ___GLeeLink_GL_APPLE_vertex_array_object 00417fe0 f   cinder:GLee.obj
 0001:000170a0       ___GLeeLink_GL_APPLE_vertex_array_range 004180a0 f   cinder:GLee.obj
 0001:00017140       ___GLeeLink_GL_ATI_draw_buffers 00418140 f   cinder:GLee.obj
 0001:00017190       ___GLeeLink_GL_NV_fragment_program 00418190 f   cinder:GLee.obj
 0001:000172a0       ___GLeeLink_GL_NV_half_float 004182a0 f   cinder:GLee.obj
 0001:00017950       ___GLeeLink_GL_NV_pixel_data_range 00418950 f   cinder:GLee.obj
 0001:000179d0       ___GLeeLink_GL_NV_primitive_restart 004189d0 f   cinder:GLee.obj
 0001:00017a50       ___GLeeLink_GL_ATI_map_object_buffer 00418a50 f   cinder:GLee.obj
 0001:00017ad0       ___GLeeLink_GL_ATI_separate_stencil 00418ad0 f   cinder:GLee.obj
 0001:00017b50       ___GLeeLink_GL_ATI_vertex_attrib_array_object 00418b50 f   cinder:GLee.obj
 0001:00017bf0       ___GLeeLink_GL_EXT_depth_bounds_test 00418bf0 f   cinder:GLee.obj
 0001:00017c40       ___GLeeLink_GL_EXT_blend_equation_separate 00418c40 f   cinder:GLee.obj
 0001:00017c90       ___GLeeLink_GL_EXT_framebuffer_object 00418c90 f   cinder:GLee.obj
 0001:00017f20       ___GLeeLink_GL_GREMEDY_string_marker 00418f20 f   cinder:GLee.obj
 0001:00017f70       ___GLeeLink_GL_EXT_stencil_clear_tag 00418f70 f   cinder:GLee.obj
 0001:00017fc0       ___GLeeLink_GL_EXT_framebuffer_blit 00418fc0 f   cinder:GLee.obj
 0001:00018010       ___GLeeLink_GL_EXT_framebuffer_multisample 00419010 f   cinder:GLee.obj
 0001:00018060       ___GLeeLink_GL_EXT_timer_query 00419060 f   cinder:GLee.obj
 0001:000180e0       ___GLeeLink_GL_EXT_gpu_program_parameters 004190e0 f   cinder:GLee.obj
 0001:00018160       ___GLeeLink_GL_APPLE_flush_buffer_range 00419160 f   cinder:GLee.obj
 0001:000181e0       ___GLeeLink_GL_EXT_gpu_shader4 004191e0 f   cinder:GLee.obj
 0001:000183a0       ___GLeeLink_GL_EXT_draw_instanced 004193a0 f   cinder:GLee.obj
 0001:00018420       ___GLeeLink_GL_EXT_texture_buffer_object 00419420 f   cinder:GLee.obj
 0001:00018470       ___GLeeLink_GL_NV_depth_buffer_float 00419470 f   cinder:GLee.obj
 0001:00018510       ___GLeeLink_GL_NV_framebuffer_multisample_coverage 00419510 f   cinder:GLee.obj
 0001:00018560       ___GLeeLink_GL_NV_parameter_buffer_object 00419560 f   cinder:GLee.obj
 0001:00018600       ___GLeeLink_GL_EXT_draw_buffers2 00419600 f   cinder:GLee.obj
 0001:00018710       ___GLeeLink_GL_NV_transform_feedback 00419710 f   cinder:GLee.obj
 0001:000188d0       ___GLeeLink_GL_EXT_bindable_uniform 004198d0 f   cinder:GLee.obj
 0001:00018970       ___GLeeLink_GL_EXT_texture_integer 00419970 f   cinder:GLee.obj
 0001:00018a80       ___GLeeLink_GL_GREMEDY_frame_terminator 00419a80 f   cinder:GLee.obj
 0001:00018ad0       ___GLeeLink_GL_NV_conditional_render 00419ad0 f   cinder:GLee.obj
 0001:00018b50       ___GLeeLink_GL_EXT_transform_feedback 00419b50 f   cinder:GLee.obj
 0001:00018c80       ___GLeeLink_GL_EXT_direct_state_access 00419c80 f   cinder:GLee.obj
 0001:0001a6e0       ___GLeeLink_GL_NV_explicit_multisample 0041b6e0 f   cinder:GLee.obj
 0001:0001a780       ___GLeeLink_GL_NV_transform_feedback2 0041b780 f   cinder:GLee.obj
 0001:0001a8b0       ___GLeeLink_GL_INGR_blend_func_separate 0041b8b0 f   cinder:GLee.obj
 0001:0001a900       ___GLeeLink_GL_SGIX_igloo_interface 0041b900 f   cinder:GLee.obj
 0001:0001a950       ___GLeeLink_GL_EXT_fragment_lighting 0041b950 f   cinder:GLee.obj
 0001:0001ac10       ___GLeeLink_GL_EXT_geometry_shader4 0041bc10 f   cinder:GLee.obj
 0001:0001acd0       ___GLeeLink_GL_EXT_scene_marker 0041bcd0 f   cinder:GLee.obj
 0001:0001ad50       ___GLeeLink_GL_NV_gpu_program4 0041bd50 f   cinder:GLee.obj
 0001:0001b340       ___GLeeLink_GL_OES_single_precision 0041c340 f   cinder:GLee.obj
 0001:0001b450       ___GLeeLink_WGL_ARB_buffer_region 0041c450 f   cinder:GLee.obj
 0001:0001b510       ___GLeeLink_WGL_ARB_extensions_string 0041c510 f   cinder:GLee.obj
 0001:0001b560       ___GLeeLink_WGL_ARB_pixel_format 0041c560 f   cinder:GLee.obj
 0001:0001b600       ___GLeeLink_WGL_ARB_make_current_read 0041c600 f   cinder:GLee.obj
 0001:0001b680       ___GLeeLink_WGL_ARB_pbuffer 0041c680 f   cinder:GLee.obj
 0001:0001b760       ___GLeeLink_WGL_ARB_render_texture 0041c760 f   cinder:GLee.obj
 0001:0001b800       ___GLeeLink_WGL_ARB_create_context 0041c800 f   cinder:GLee.obj
 0001:0001b850       ___GLeeLink_WGL_EXT_make_current_read 0041c850 f   cinder:GLee.obj
 0001:0001b8d0       ___GLeeLink_WGL_EXT_pixel_format 0041c8d0 f   cinder:GLee.obj
 0001:0001b970       ___GLeeLink_WGL_EXT_pbuffer 0041c970 f   cinder:GLee.obj
 0001:0001ba50       ___GLeeLink_WGL_I3D_digital_video_control 0041ca50 f   cinder:GLee.obj
 0001:0001bad0       ___GLeeLink_WGL_I3D_gamma  0041cad0 f   cinder:GLee.obj
 0001:0001bb90       ___GLeeLink_WGL_I3D_genlock 0041cb90 f   cinder:GLee.obj
 0001:0001bd70       ___GLeeLink_WGL_I3D_image_buffer 0041cd70 f   cinder:GLee.obj
 0001:0001be30       ___GLeeLink_WGL_I3D_swap_frame_lock 0041ce30 f   cinder:GLee.obj
 0001:0001bef0       ___GLeeLink_WGL_NV_present_video 0041cef0 f   cinder:GLee.obj
 0001:0001bf90       ___GLeeLink_WGL_NV_swap_group 0041cf90 f   cinder:GLee.obj
 0001:0001c0a0       ___GLeeLink_WGL_NV_gpu_affinity 0041d0a0 f   cinder:GLee.obj
 0001:0001c180       ___GLeeLink_WGL_EXT_display_color_table 0041d180 f   cinder:GLee.obj
 0001:0001c240       ___GLeeLink_WGL_EXT_extensions_string 0041d240 f   cinder:GLee.obj
 0001:0001c290       ___GLeeLink_WGL_EXT_swap_control 0041d290 f   cinder:GLee.obj
 0001:0001c310       ___GLeeLink_WGL_NV_vertex_array_range 0041d310 f   cinder:GLee.obj
 0001:0001c390       ___GLeeLink_WGL_OML_sync_control 0041d390 f   cinder:GLee.obj
 0001:0001c4a0       ___GLeeLink_WGL_I3D_swap_frame_usage 0041d4a0 f   cinder:GLee.obj
 0001:0001c560       ___GLeeLink_WGL_NV_video_output 0041d560 f   cinder:GLee.obj
 0001:0001c670       ___GLeeExtList_init        0041d670 f   cinder:GLee.obj
 0001:0001c6a0       ___GLeeExtList_clean       0041d6a0 f   cinder:GLee.obj
 0001:0001c740       ___GLeeExtList_add         0041d740 f   cinder:GLee.obj
 0001:0001c870       ___GLeeGetExtStrPlat       0041d870 f   cinder:GLee.obj
 0001:0001c8b0       ___GLeeWriteError          0041d8b0 f   cinder:GLee.obj
 0001:0001c900       ___GLeeGetVersionNumber    0041d900 f   cinder:GLee.obj
 0001:0001c930       ___GLeeGetExtensions       0041d930 f   cinder:GLee.obj
 0001:0001cbe0       ___GLeeCheckExtension      0041dbe0 f   cinder:GLee.obj
 0001:0001cc80       _GLeeInit                  0041dc80 f   cinder:GLee.obj
 0001:0001ff20       _GLee_Lazy_glBlendColor@16 00420f20 f   cinder:GLee.obj
 0001:0001ff60       _GLee_Lazy_glBlendEquation@4 00420f60 f   cinder:GLee.obj
 0001:0001ff80       _GLee_Lazy_glDrawRangeElements@24 00420f80 f   cinder:GLee.obj
 0001:0001ffc0       _GLee_Lazy_glColorTable@24 00420fc0 f   cinder:GLee.obj
 0001:00020000       _GLee_Lazy_glColorTableParameterfv@12 00421000 f   cinder:GLee.obj
 0001:00020030       _GLee_Lazy_glColorTableParameteriv@12 00421030 f   cinder:GLee.obj
 0001:00020060       _GLee_Lazy_glCopyColorTable@20 00421060 f   cinder:GLee.obj
 0001:00020090       _GLee_Lazy_glGetColorTable@16 00421090 f   cinder:GLee.obj
 0001:000200c0       _GLee_Lazy_glGetColorTableParameterfv@12 004210c0 f   cinder:GLee.obj
 0001:000200f0       _GLee_Lazy_glGetColorTableParameteriv@12 004210f0 f   cinder:GLee.obj
 0001:00020120       _GLee_Lazy_glColorSubTable@24 00421120 f   cinder:GLee.obj
 0001:00020160       _GLee_Lazy_glCopyColorSubTable@20 00421160 f   cinder:GLee.obj
 0001:00020190       _GLee_Lazy_glConvolutionFilter1D@24 00421190 f   cinder:GLee.obj
 0001:000201d0       _GLee_Lazy_glConvolutionFilter2D@28 004211d0 f   cinder:GLee.obj
 0001:00020210       _GLee_Lazy_glConvolutionParameterf@12 00421210 f   cinder:GLee.obj
 0001:00020240       _GLee_Lazy_glConvolutionParameterfv@12 00421240 f   cinder:GLee.obj
 0001:00020270       _GLee_Lazy_glConvolutionParameteri@12 00421270 f   cinder:GLee.obj
 0001:000202a0       _GLee_Lazy_glConvolutionParameteriv@12 004212a0 f   cinder:GLee.obj
 0001:000202d0       _GLee_Lazy_glCopyConvolutionFilter1D@20 004212d0 f   cinder:GLee.obj
 0001:00020300       _GLee_Lazy_glCopyConvolutionFilter2D@24 00421300 f   cinder:GLee.obj
 0001:00020340       _GLee_Lazy_glGetConvolutionFilter@16 00421340 f   cinder:GLee.obj
 0001:00020370       _GLee_Lazy_glGetConvolutionParameterfv@12 00421370 f   cinder:GLee.obj
 0001:000203a0       _GLee_Lazy_glGetConvolutionParameteriv@12 004213a0 f   cinder:GLee.obj
 0001:000203d0       _GLee_Lazy_glGetSeparableFilter@24 004213d0 f   cinder:GLee.obj
 0001:00020410       _GLee_Lazy_glSeparableFilter2D@32 00421410 f   cinder:GLee.obj
 0001:00020450       _GLee_Lazy_glGetHistogram@20 00421450 f   cinder:GLee.obj
 0001:00020480       _GLee_Lazy_glGetHistogramParameterfv@12 00421480 f   cinder:GLee.obj
 0001:000204b0       _GLee_Lazy_glGetHistogramParameteriv@12 004214b0 f   cinder:GLee.obj
 0001:000204e0       _GLee_Lazy_glGetMinmax@20  004214e0 f   cinder:GLee.obj
 0001:00020510       _GLee_Lazy_glGetMinmaxParameterfv@12 00421510 f   cinder:GLee.obj
 0001:00020540       _GLee_Lazy_glGetMinmaxParameteriv@12 00421540 f   cinder:GLee.obj
 0001:00020570       _GLee_Lazy_glHistogram@16  00421570 f   cinder:GLee.obj
 0001:000205a0       _GLee_Lazy_glMinmax@12     004215a0 f   cinder:GLee.obj
 0001:000205d0       _GLee_Lazy_glResetHistogram@4 004215d0 f   cinder:GLee.obj
 0001:000205f0       _GLee_Lazy_glResetMinmax@4 004215f0 f   cinder:GLee.obj
 0001:00020610       _GLee_Lazy_glTexImage3D@40 00421610 f   cinder:GLee.obj
 0001:00020660       _GLee_Lazy_glTexSubImage3D@44 00421660 f   cinder:GLee.obj
 0001:000206b0       _GLee_Lazy_glCopyTexSubImage3D@36 004216b0 f   cinder:GLee.obj
 0001:000206f0       _GLee_Lazy_glActiveTexture@4 004216f0 f   cinder:GLee.obj
 0001:00020710       _GLee_Lazy_glClientActiveTexture@4 00421710 f   cinder:GLee.obj
 0001:00020730       _GLee_Lazy_glMultiTexCoord1d@12 00421730 f   cinder:GLee.obj
 0001:00020760       _GLee_Lazy_glMultiTexCoord1dv@8 00421760 f   cinder:GLee.obj
 0001:00020790       _GLee_Lazy_glMultiTexCoord1f@8 00421790 f   cinder:GLee.obj
 0001:000207c0       _GLee_Lazy_glMultiTexCoord1fv@8 004217c0 f   cinder:GLee.obj
 0001:000207f0       _GLee_Lazy_glMultiTexCoord1i@8 004217f0 f   cinder:GLee.obj
 0001:00020820       _GLee_Lazy_glMultiTexCoord1iv@8 00421820 f   cinder:GLee.obj
 0001:00020850       _GLee_Lazy_glMultiTexCoord1s@8 00421850 f   cinder:GLee.obj
 0001:00020880       _GLee_Lazy_glMultiTexCoord1sv@8 00421880 f   cinder:GLee.obj
 0001:000208b0       _GLee_Lazy_glMultiTexCoord2d@20 004218b0 f   cinder:GLee.obj
 0001:000208e0       _GLee_Lazy_glMultiTexCoord2dv@8 004218e0 f   cinder:GLee.obj
 0001:00020910       _GLee_Lazy_glMultiTexCoord2f@12 00421910 f   cinder:GLee.obj
 0001:00020940       _GLee_Lazy_glMultiTexCoord2fv@8 00421940 f   cinder:GLee.obj
 0001:00020970       _GLee_Lazy_glMultiTexCoord2i@12 00421970 f   cinder:GLee.obj
 0001:000209a0       _GLee_Lazy_glMultiTexCoord2iv@8 004219a0 f   cinder:GLee.obj
 0001:000209d0       _GLee_Lazy_glMultiTexCoord2s@12 004219d0 f   cinder:GLee.obj
 0001:00020a00       _GLee_Lazy_glMultiTexCoord2sv@8 00421a00 f   cinder:GLee.obj
 0001:00020a30       _GLee_Lazy_glMultiTexCoord3d@28 00421a30 f   cinder:GLee.obj
 0001:00020a70       _GLee_Lazy_glMultiTexCoord3dv@8 00421a70 f   cinder:GLee.obj
 0001:00020aa0       _GLee_Lazy_glMultiTexCoord3f@16 00421aa0 f   cinder:GLee.obj
 0001:00020ae0       _GLee_Lazy_glMultiTexCoord3fv@8 00421ae0 f   cinder:GLee.obj
 0001:00020b10       _GLee_Lazy_glMultiTexCoord3i@16 00421b10 f   cinder:GLee.obj
 0001:00020b40       _GLee_Lazy_glMultiTexCoord3iv@8 00421b40 f   cinder:GLee.obj
 0001:00020b70       _GLee_Lazy_glMultiTexCoord3s@16 00421b70 f   cinder:GLee.obj
 0001:00020ba0       _GLee_Lazy_glMultiTexCoord3sv@8 00421ba0 f   cinder:GLee.obj
 0001:00020bd0       _GLee_Lazy_glMultiTexCoord4d@36 00421bd0 f   cinder:GLee.obj
 0001:00020c20       _GLee_Lazy_glMultiTexCoord4dv@8 00421c20 f   cinder:GLee.obj
 0001:00020c50       _GLee_Lazy_glMultiTexCoord4f@20 00421c50 f   cinder:GLee.obj
 0001:00020c90       _GLee_Lazy_glMultiTexCoord4fv@8 00421c90 f   cinder:GLee.obj
 0001:00020cc0       _GLee_Lazy_glMultiTexCoord4i@20 00421cc0 f   cinder:GLee.obj
 0001:00020cf0       _GLee_Lazy_glMultiTexCoord4iv@8 00421cf0 f   cinder:GLee.obj
 0001:00020d20       _GLee_Lazy_glMultiTexCoord4s@20 00421d20 f   cinder:GLee.obj
 0001:00020d60       _GLee_Lazy_glMultiTexCoord4sv@8 00421d60 f   cinder:GLee.obj
 0001:00020d90       _GLee_Lazy_glLoadTransposeMatrixf@4 00421d90 f   cinder:GLee.obj
 0001:00020db0       _GLee_Lazy_glLoadTransposeMatrixd@4 00421db0 f   cinder:GLee.obj
 0001:00020dd0       _GLee_Lazy_glMultTransposeMatrixf@4 00421dd0 f   cinder:GLee.obj
 0001:00020df0       _GLee_Lazy_glMultTransposeMatrixd@4 00421df0 f   cinder:GLee.obj
 0001:00020e10       _GLee_Lazy_glSampleCoverage@8 00421e10 f   cinder:GLee.obj
 0001:00020e40       _GLee_Lazy_glCompressedTexImage3D@36 00421e40 f   cinder:GLee.obj
 0001:00020e80       _GLee_Lazy_glCompressedTexImage2D@32 00421e80 f   cinder:GLee.obj
 0001:00020ec0       _GLee_Lazy_glCompressedTexImage1D@28 00421ec0 f   cinder:GLee.obj
 0001:00020f00       _GLee_Lazy_glCompressedTexSubImage3D@44 00421f00 f   cinder:GLee.obj
 0001:00020f50       _GLee_Lazy_glCompressedTexSubImage2D@36 00421f50 f   cinder:GLee.obj
 0001:00020f90       _GLee_Lazy_glCompressedTexSubImage1D@28 00421f90 f   cinder:GLee.obj
 0001:00020fd0       _GLee_Lazy_glGetCompressedTexImage@12 00421fd0 f   cinder:GLee.obj
 0001:00021000       _GLee_Lazy_glBlendFuncSeparate@16 00422000 f   cinder:GLee.obj
 0001:00021030       _GLee_Lazy_glFogCoordf@4   00422030 f   cinder:GLee.obj
 0001:00021050       _GLee_Lazy_glFogCoordfv@4  00422050 f   cinder:GLee.obj
 0001:00021070       _GLee_Lazy_glFogCoordd@8   00422070 f   cinder:GLee.obj
 0001:000210a0       _GLee_Lazy_glFogCoorddv@4  004220a0 f   cinder:GLee.obj
 0001:000210c0       _GLee_Lazy_glFogCoordPointer@12 004220c0 f   cinder:GLee.obj
 0001:000210f0       _GLee_Lazy_glMultiDrawArrays@16 004220f0 f   cinder:GLee.obj
 0001:00021120       _GLee_Lazy_glMultiDrawElements@20 00422120 f   cinder:GLee.obj
 0001:00021150       _GLee_Lazy_glPointParameterf@8 00422150 f   cinder:GLee.obj
 0001:00021180       _GLee_Lazy_glPointParameterfv@8 00422180 f   cinder:GLee.obj
 0001:000211b0       _GLee_Lazy_glPointParameteri@8 004221b0 f   cinder:GLee.obj
 0001:000211e0       _GLee_Lazy_glPointParameteriv@8 004221e0 f   cinder:GLee.obj
 0001:00021210       _GLee_Lazy_glSecondaryColor3b@12 00422210 f   cinder:GLee.obj
 0001:00021240       _GLee_Lazy_glSecondaryColor3bv@4 00422240 f   cinder:GLee.obj
 0001:00021260       _GLee_Lazy_glSecondaryColor3d@24 00422260 f   cinder:GLee.obj
 0001:000212a0       _GLee_Lazy_glSecondaryColor3dv@4 004222a0 f   cinder:GLee.obj
 0001:000212c0       _GLee_Lazy_glSecondaryColor3f@12 004222c0 f   cinder:GLee.obj
 0001:000212f0       _GLee_Lazy_glSecondaryColor3fv@4 004222f0 f   cinder:GLee.obj
 0001:00021310       _GLee_Lazy_glSecondaryColor3i@12 00422310 f   cinder:GLee.obj
 0001:00021340       _GLee_Lazy_glSecondaryColor3iv@4 00422340 f   cinder:GLee.obj
 0001:00021360       _GLee_Lazy_glSecondaryColor3s@12 00422360 f   cinder:GLee.obj
 0001:00021390       _GLee_Lazy_glSecondaryColor3sv@4 00422390 f   cinder:GLee.obj
 0001:000213b0       _GLee_Lazy_glSecondaryColor3ub@12 004223b0 f   cinder:GLee.obj
 0001:000213e0       _GLee_Lazy_glSecondaryColor3ubv@4 004223e0 f   cinder:GLee.obj
 0001:00021400       _GLee_Lazy_glSecondaryColor3ui@12 00422400 f   cinder:GLee.obj
 0001:00021430       _GLee_Lazy_glSecondaryColor3uiv@4 00422430 f   cinder:GLee.obj
 0001:00021450       _GLee_Lazy_glSecondaryColor3us@12 00422450 f   cinder:GLee.obj
 0001:00021480       _GLee_Lazy_glSecondaryColor3usv@4 00422480 f   cinder:GLee.obj
 0001:000214a0       _GLee_Lazy_glSecondaryColorPointer@16 004224a0 f   cinder:GLee.obj
 0001:000214d0       _GLee_Lazy_glWindowPos2d@16 004224d0 f   cinder:GLee.obj
 0001:00021500       _GLee_Lazy_glWindowPos2dv@4 00422500 f   cinder:GLee.obj
 0001:00021520       _GLee_Lazy_glWindowPos2f@8 00422520 f   cinder:GLee.obj
 0001:00021550       _GLee_Lazy_glWindowPos2fv@4 00422550 f   cinder:GLee.obj
 0001:00021570       _GLee_Lazy_glWindowPos2i@8 00422570 f   cinder:GLee.obj
 0001:000215a0       _GLee_Lazy_glWindowPos2iv@4 004225a0 f   cinder:GLee.obj
 0001:000215c0       _GLee_Lazy_glWindowPos2s@8 004225c0 f   cinder:GLee.obj
 0001:000215f0       _GLee_Lazy_glWindowPos2sv@4 004225f0 f   cinder:GLee.obj
 0001:00021610       _GLee_Lazy_glWindowPos3d@24 00422610 f   cinder:GLee.obj
 0001:00021650       _GLee_Lazy_glWindowPos3dv@4 00422650 f   cinder:GLee.obj
 0001:00021670       _GLee_Lazy_glWindowPos3f@12 00422670 f   cinder:GLee.obj
 0001:000216a0       _GLee_Lazy_glWindowPos3fv@4 004226a0 f   cinder:GLee.obj
 0001:000216c0       _GLee_Lazy_glWindowPos3i@12 004226c0 f   cinder:GLee.obj
 0001:000216f0       _GLee_Lazy_glWindowPos3iv@4 004226f0 f   cinder:GLee.obj
 0001:00021710       _GLee_Lazy_glWindowPos3s@12 00422710 f   cinder:GLee.obj
 0001:00021740       _GLee_Lazy_glWindowPos3sv@4 00422740 f   cinder:GLee.obj
 0001:00021760       _GLee_Lazy_glGenQueries@8  00422760 f   cinder:GLee.obj
 0001:00021790       _GLee_Lazy_glDeleteQueries@8 00422790 f   cinder:GLee.obj
 0001:000217c0       _GLee_Lazy_glIsQuery@4     004227c0 f   cinder:GLee.obj
 0001:000217f0       _GLee_Lazy_glBeginQuery@8  004227f0 f   cinder:GLee.obj
 0001:00021820       _GLee_Lazy_glEndQuery@4    00422820 f   cinder:GLee.obj
 0001:00021840       _GLee_Lazy_glGetQueryiv@12 00422840 f   cinder:GLee.obj
 0001:00021870       _GLee_Lazy_glGetQueryObjectiv@12 00422870 f   cinder:GLee.obj
 0001:000218a0       _GLee_Lazy_glGetQueryObjectuiv@12 004228a0 f   cinder:GLee.obj
 0001:000218d0       _GLee_Lazy_glBindBuffer@8  004228d0 f   cinder:GLee.obj
 0001:00021900       _GLee_Lazy_glDeleteBuffers@8 00422900 f   cinder:GLee.obj
 0001:00021930       _GLee_Lazy_glGenBuffers@8  00422930 f   cinder:GLee.obj
 0001:00021960       _GLee_Lazy_glIsBuffer@4    00422960 f   cinder:GLee.obj
 0001:00021990       _GLee_Lazy_glBufferData@16 00422990 f   cinder:GLee.obj
 0001:000219c0       _GLee_Lazy_glBufferSubData@16 004229c0 f   cinder:GLee.obj
 0001:000219f0       _GLee_Lazy_glGetBufferSubData@16 004229f0 f   cinder:GLee.obj
 0001:00021a20       _GLee_Lazy_glMapBuffer@8   00422a20 f   cinder:GLee.obj
 0001:00021a50       _GLee_Lazy_glUnmapBuffer@4 00422a50 f   cinder:GLee.obj
 0001:00021a80       _GLee_Lazy_glGetBufferParameteriv@12 00422a80 f   cinder:GLee.obj
 0001:00021ab0       _GLee_Lazy_glGetBufferPointerv@12 00422ab0 f   cinder:GLee.obj
 0001:00021ae0       _GLee_Lazy_glBlendEquationSeparate@8 00422ae0 f   cinder:GLee.obj
 0001:00021b10       _GLee_Lazy_glDrawBuffers@8 00422b10 f   cinder:GLee.obj
 0001:00021b40       _GLee_Lazy_glStencilOpSeparate@16 00422b40 f   cinder:GLee.obj
 0001:00021b70       _GLee_Lazy_glStencilFuncSeparate@16 00422b70 f   cinder:GLee.obj
 0001:00021ba0       _GLee_Lazy_glStencilMaskSeparate@8 00422ba0 f   cinder:GLee.obj
 0001:00021bd0       _GLee_Lazy_glAttachShader@8 00422bd0 f   cinder:GLee.obj
 0001:00021c00       _GLee_Lazy_glBindAttribLocation@12 00422c00 f   cinder:GLee.obj
 0001:00021c30       _GLee_Lazy_glCompileShader@4 00422c30 f   cinder:GLee.obj
 0001:00021c50       _GLee_Lazy_glCreateProgram@0 00422c50 f   cinder:GLee.obj
 0001:00021c70       _GLee_Lazy_glCreateShader@4 00422c70 f   cinder:GLee.obj
 0001:00021ca0       _GLee_Lazy_glDeleteProgram@4 00422ca0 f   cinder:GLee.obj
 0001:00021cc0       _GLee_Lazy_glDeleteShader@4 00422cc0 f   cinder:GLee.obj
 0001:00021ce0       _GLee_Lazy_glDetachShader@8 00422ce0 f   cinder:GLee.obj
 0001:00021d10       _GLee_Lazy_glDisableVertexAttribArray@4 00422d10 f   cinder:GLee.obj
 0001:00021d30       _GLee_Lazy_glEnableVertexAttribArray@4 00422d30 f   cinder:GLee.obj
 0001:00021d50       _GLee_Lazy_glGetActiveAttrib@28 00422d50 f   cinder:GLee.obj
 0001:00021d90       _GLee_Lazy_glGetActiveUniform@28 00422d90 f   cinder:GLee.obj
 0001:00021dd0       _GLee_Lazy_glGetAttachedShaders@16 00422dd0 f   cinder:GLee.obj
 0001:00021e00       _GLee_Lazy_glGetAttribLocation@8 00422e00 f   cinder:GLee.obj
 0001:00021e30       _GLee_Lazy_glGetProgramiv@12 00422e30 f   cinder:GLee.obj
 0001:00021e60       _GLee_Lazy_glGetProgramInfoLog@16 00422e60 f   cinder:GLee.obj
 0001:00021e90       _GLee_Lazy_glGetShaderiv@12 00422e90 f   cinder:GLee.obj
 0001:00021ec0       _GLee_Lazy_glGetShaderInfoLog@16 00422ec0 f   cinder:GLee.obj
 0001:00021ef0       _GLee_Lazy_glGetShaderSource@16 00422ef0 f   cinder:GLee.obj
 0001:00021f20       _GLee_Lazy_glGetUniformLocation@8 00422f20 f   cinder:GLee.obj
 0001:00021f50       _GLee_Lazy_glGetUniformfv@12 00422f50 f   cinder:GLee.obj
 0001:00021f80       _GLee_Lazy_glGetUniformiv@12 00422f80 f   cinder:GLee.obj
 0001:00021fb0       _GLee_Lazy_glGetVertexAttribdv@12 00422fb0 f   cinder:GLee.obj
 0001:00021fe0       _GLee_Lazy_glGetVertexAttribfv@12 00422fe0 f   cinder:GLee.obj
 0001:00022010       _GLee_Lazy_glGetVertexAttribiv@12 00423010 f   cinder:GLee.obj
 0001:00022040       _GLee_Lazy_glGetVertexAttribPointerv@12 00423040 f   cinder:GLee.obj
 0001:00022070       _GLee_Lazy_glIsProgram@4   00423070 f   cinder:GLee.obj
 0001:000220a0       _GLee_Lazy_glIsShader@4    004230a0 f   cinder:GLee.obj
 0001:000220d0       _GLee_Lazy_glLinkProgram@4 004230d0 f   cinder:GLee.obj
 0001:000220f0       _GLee_Lazy_glShaderSource@16 004230f0 f   cinder:GLee.obj
 0001:00022120       _GLee_Lazy_glUseProgram@4  00423120 f   cinder:GLee.obj
 0001:00022140       _GLee_Lazy_glUniform1f@8   00423140 f   cinder:GLee.obj
 0001:00022170       _GLee_Lazy_glUniform2f@12  00423170 f   cinder:GLee.obj
 0001:000221a0       _GLee_Lazy_glUniform3f@16  004231a0 f   cinder:GLee.obj
 0001:000221e0       _GLee_Lazy_glUniform4f@20  004231e0 f   cinder:GLee.obj
 0001:00022220       _GLee_Lazy_glUniform1i@8   00423220 f   cinder:GLee.obj
 0001:00022250       _GLee_Lazy_glUniform2i@12  00423250 f   cinder:GLee.obj
 0001:00022280       _GLee_Lazy_glUniform3i@16  00423280 f   cinder:GLee.obj
 0001:000222b0       _GLee_Lazy_glUniform4i@20  004232b0 f   cinder:GLee.obj
 0001:000222e0       _GLee_Lazy_glUniform1fv@12 004232e0 f   cinder:GLee.obj
 0001:00022310       _GLee_Lazy_glUniform2fv@12 00423310 f   cinder:GLee.obj
 0001:00022340       _GLee_Lazy_glUniform3fv@12 00423340 f   cinder:GLee.obj
 0001:00022370       _GLee_Lazy_glUniform4fv@12 00423370 f   cinder:GLee.obj
 0001:000223a0       _GLee_Lazy_glUniform1iv@12 004233a0 f   cinder:GLee.obj
 0001:000223d0       _GLee_Lazy_glUniform2iv@12 004233d0 f   cinder:GLee.obj
 0001:00022400       _GLee_Lazy_glUniform3iv@12 00423400 f   cinder:GLee.obj
 0001:00022430       _GLee_Lazy_glUniform4iv@12 00423430 f   cinder:GLee.obj
 0001:00022460       _GLee_Lazy_glUniformMatrix2fv@16 00423460 f   cinder:GLee.obj
 0001:00022490       _GLee_Lazy_glUniformMatrix3fv@16 00423490 f   cinder:GLee.obj
 0001:000224c0       _GLee_Lazy_glUniformMatrix4fv@16 004234c0 f   cinder:GLee.obj
 0001:000224f0       _GLee_Lazy_glValidateProgram@4 004234f0 f   cinder:GLee.obj
 0001:00022510       _GLee_Lazy_glVertexAttrib1d@12 00423510 f   cinder:GLee.obj
 0001:00022540       _GLee_Lazy_glVertexAttrib1dv@8 00423540 f   cinder:GLee.obj
 0001:00022570       _GLee_Lazy_glVertexAttrib1f@8 00423570 f   cinder:GLee.obj
 0001:000225a0       _GLee_Lazy_glVertexAttrib1fv@8 004235a0 f   cinder:GLee.obj
 0001:000225d0       _GLee_Lazy_glVertexAttrib1s@8 004235d0 f   cinder:GLee.obj
 0001:00022600       _GLee_Lazy_glVertexAttrib1sv@8 00423600 f   cinder:GLee.obj
 0001:00022630       _GLee_Lazy_glVertexAttrib2d@20 00423630 f   cinder:GLee.obj
 0001:00022660       _GLee_Lazy_glVertexAttrib2dv@8 00423660 f   cinder:GLee.obj
 0001:00022690       _GLee_Lazy_glVertexAttrib2f@12 00423690 f   cinder:GLee.obj
 0001:000226c0       _GLee_Lazy_glVertexAttrib2fv@8 004236c0 f   cinder:GLee.obj
 0001:000226f0       _GLee_Lazy_glVertexAttrib2s@12 004236f0 f   cinder:GLee.obj
 0001:00022720       _GLee_Lazy_glVertexAttrib2sv@8 00423720 f   cinder:GLee.obj
 0001:00022750       _GLee_Lazy_glVertexAttrib3d@28 00423750 f   cinder:GLee.obj
 0001:00022790       _GLee_Lazy_glVertexAttrib3dv@8 00423790 f   cinder:GLee.obj
 0001:000227c0       _GLee_Lazy_glVertexAttrib3f@16 004237c0 f   cinder:GLee.obj
 0001:00022800       _GLee_Lazy_glVertexAttrib3fv@8 00423800 f   cinder:GLee.obj
 0001:00022830       _GLee_Lazy_glVertexAttrib3s@16 00423830 f   cinder:GLee.obj
 0001:00022860       _GLee_Lazy_glVertexAttrib3sv@8 00423860 f   cinder:GLee.obj
 0001:00022890       _GLee_Lazy_glVertexAttrib4Nbv@8 00423890 f   cinder:GLee.obj
 0001:000228c0       _GLee_Lazy_glVertexAttrib4Niv@8 004238c0 f   cinder:GLee.obj
 0001:000228f0       _GLee_Lazy_glVertexAttrib4Nsv@8 004238f0 f   cinder:GLee.obj
 0001:00022920       _GLee_Lazy_glVertexAttrib4Nub@20 00423920 f   cinder:GLee.obj
 0001:00022960       _GLee_Lazy_glVertexAttrib4Nubv@8 00423960 f   cinder:GLee.obj
 0001:00022990       _GLee_Lazy_glVertexAttrib4Nuiv@8 00423990 f   cinder:GLee.obj
 0001:000229c0       _GLee_Lazy_glVertexAttrib4Nusv@8 004239c0 f   cinder:GLee.obj
 0001:000229f0       _GLee_Lazy_glVertexAttrib4bv@8 004239f0 f   cinder:GLee.obj
 0001:00022a20       _GLee_Lazy_glVertexAttrib4d@36 00423a20 f   cinder:GLee.obj
 0001:00022a70       _GLee_Lazy_glVertexAttrib4dv@8 00423a70 f   cinder:GLee.obj
 0001:00022aa0       _GLee_Lazy_glVertexAttrib4f@20 00423aa0 f   cinder:GLee.obj
 0001:00022ae0       _GLee_Lazy_glVertexAttrib4fv@8 00423ae0 f   cinder:GLee.obj
 0001:00022b10       _GLee_Lazy_glVertexAttrib4iv@8 00423b10 f   cinder:GLee.obj
 0001:00022b40       _GLee_Lazy_glVertexAttrib4s@20 00423b40 f   cinder:GLee.obj
 0001:00022b80       _GLee_Lazy_glVertexAttrib4sv@8 00423b80 f   cinder:GLee.obj
 0001:00022bb0       _GLee_Lazy_glVertexAttrib4ubv@8 00423bb0 f   cinder:GLee.obj
 0001:00022be0       _GLee_Lazy_glVertexAttrib4uiv@8 00423be0 f   cinder:GLee.obj
 0001:00022c10       _GLee_Lazy_glVertexAttrib4usv@8 00423c10 f   cinder:GLee.obj
 0001:00022c40       _GLee_Lazy_glVertexAttribPointer@24 00423c40 f   cinder:GLee.obj
 0001:00022c80       _GLee_Lazy_glUniformMatrix2x3fv@16 00423c80 f   cinder:GLee.obj
 0001:00022cb0       _GLee_Lazy_glUniformMatrix3x2fv@16 00423cb0 f   cinder:GLee.obj
 0001:00022ce0       _GLee_Lazy_glUniformMatrix2x4fv@16 00423ce0 f   cinder:GLee.obj
 0001:00022d10       _GLee_Lazy_glUniformMatrix4x2fv@16 00423d10 f   cinder:GLee.obj
 0001:00022d40       _GLee_Lazy_glUniformMatrix3x4fv@16 00423d40 f   cinder:GLee.obj
 0001:00022d70       _GLee_Lazy_glUniformMatrix4x3fv@16 00423d70 f   cinder:GLee.obj
 0001:00022da0       _GLee_Lazy_glColorMaski@20 00423da0 f   cinder:GLee.obj
 0001:00022de0       _GLee_Lazy_glGetBooleani_v@12 00423de0 f   cinder:GLee.obj
 0001:00022e10       _GLee_Lazy_glGetIntegeri_v@12 00423e10 f   cinder:GLee.obj
 0001:00022e40       _GLee_Lazy_glEnablei@8     00423e40 f   cinder:GLee.obj
 0001:00022e70       _GLee_Lazy_glDisablei@8    00423e70 f   cinder:GLee.obj
 0001:00022ea0       _GLee_Lazy_glIsEnabledi@8  00423ea0 f   cinder:GLee.obj
 0001:00022ed0       _GLee_Lazy_glBeginTransformFeedback@4 00423ed0 f   cinder:GLee.obj
 0001:00022ef0       _GLee_Lazy_glEndTransformFeedback@0 00423ef0 f   cinder:GLee.obj
 0001:00022f10       _GLee_Lazy_glBindBufferRange@20 00423f10 f   cinder:GLee.obj
 0001:00022f40       _GLee_Lazy_glBindBufferBase@12 00423f40 f   cinder:GLee.obj
 0001:00022f70       _GLee_Lazy_glTransformFeedbackVaryings@16 00423f70 f   cinder:GLee.obj
 0001:00022fa0       _GLee_Lazy_glGetTransformFeedbackVarying@12 00423fa0 f   cinder:GLee.obj
 0001:00022fd0       _GLee_Lazy_glClampColor@8  00423fd0 f   cinder:GLee.obj
 0001:00023000       _GLee_Lazy_glBeginConditionalRender@8 00424000 f   cinder:GLee.obj
 0001:00023030       _GLee_Lazy_glEndConditionalRender@0 00424030 f   cinder:GLee.obj
 0001:00023050       _GLee_Lazy_glVertexAttribI1i@8 00424050 f   cinder:GLee.obj
 0001:00023080       _GLee_Lazy_glVertexAttribI2i@12 00424080 f   cinder:GLee.obj
 0001:000230b0       _GLee_Lazy_glVertexAttribI3i@16 004240b0 f   cinder:GLee.obj
 0001:000230e0       _GLee_Lazy_glVertexAttribI4i@20 004240e0 f   cinder:GLee.obj
 0001:00023110       _GLee_Lazy_glVertexAttribI1ui@8 00424110 f   cinder:GLee.obj
 0001:00023140       _GLee_Lazy_glVertexAttribI2ui@12 00424140 f   cinder:GLee.obj
 0001:00023170       _GLee_Lazy_glVertexAttribI3ui@16 00424170 f   cinder:GLee.obj
 0001:000231a0       _GLee_Lazy_glVertexAttribI4ui@20 004241a0 f   cinder:GLee.obj
 0001:000231d0       _GLee_Lazy_glVertexAttribI1iv@8 004241d0 f   cinder:GLee.obj
 0001:00023200       _GLee_Lazy_glVertexAttribI2iv@8 00424200 f   cinder:GLee.obj
 0001:00023230       _GLee_Lazy_glVertexAttribI3iv@8 00424230 f   cinder:GLee.obj
 0001:00023260       _GLee_Lazy_glVertexAttribI4iv@8 00424260 f   cinder:GLee.obj
 0001:00023290       _GLee_Lazy_glVertexAttribI1uiv@8 00424290 f   cinder:GLee.obj
 0001:000232c0       _GLee_Lazy_glVertexAttribI2uiv@8 004242c0 f   cinder:GLee.obj
 0001:000232f0       _GLee_Lazy_glVertexAttribI3uiv@8 004242f0 f   cinder:GLee.obj
 0001:00023320       _GLee_Lazy_glVertexAttribI4uiv@8 00424320 f   cinder:GLee.obj
 0001:00023350       _GLee_Lazy_glVertexAttribI4bv@8 00424350 f   cinder:GLee.obj
 0001:00023380       _GLee_Lazy_glVertexAttribI4sv@8 00424380 f   cinder:GLee.obj
 0001:000233b0       _GLee_Lazy_glVertexAttribI4ubv@8 004243b0 f   cinder:GLee.obj
 0001:000233e0       _GLee_Lazy_glVertexAttribI4usv@8 004243e0 f   cinder:GLee.obj
 0001:00023410       _GLee_Lazy_glVertexAttribIPointer@20 00424410 f   cinder:GLee.obj
 0001:00023440       _GLee_Lazy_glGetVertexAttribIiv@12 00424440 f   cinder:GLee.obj
 0001:00023470       _GLee_Lazy_glGetVertexAttribIuiv@12 00424470 f   cinder:GLee.obj
 0001:000234a0       _GLee_Lazy_glGetUniformuiv@12 004244a0 f   cinder:GLee.obj
 0001:000234d0       _GLee_Lazy_glBindFragDataLocation@12 004244d0 f   cinder:GLee.obj
 0001:00023500       _GLee_Lazy_glGetFragDataLocation@8 00424500 f   cinder:GLee.obj
 0001:00023530       _GLee_Lazy_glUniform1ui@8  00424530 f   cinder:GLee.obj
 0001:00023560       _GLee_Lazy_glUniform2ui@12 00424560 f   cinder:GLee.obj
 0001:00023590       _GLee_Lazy_glUniform3ui@16 00424590 f   cinder:GLee.obj
 0001:000235c0       _GLee_Lazy_glUniform4ui@20 004245c0 f   cinder:GLee.obj
 0001:000235f0       _GLee_Lazy_glUniform1uiv@12 004245f0 f   cinder:GLee.obj
 0001:00023620       _GLee_Lazy_glUniform2uiv@12 00424620 f   cinder:GLee.obj
 0001:00023650       _GLee_Lazy_glUniform3uiv@12 00424650 f   cinder:GLee.obj
 0001:00023680       _GLee_Lazy_glUniform4uiv@12 00424680 f   cinder:GLee.obj
 0001:000236b0       _GLee_Lazy_glTexParameterIiv@12 004246b0 f   cinder:GLee.obj
 0001:000236e0       _GLee_Lazy_glTexParameterIuiv@12 004246e0 f   cinder:GLee.obj
 0001:00023710       _GLee_Lazy_glGetTexParameterIiv@12 00424710 f   cinder:GLee.obj
 0001:00023740       _GLee_Lazy_glGetTexParameterIuiv@12 00424740 f   cinder:GLee.obj
 0001:00023770       _GLee_Lazy_glClearBufferiv@12 00424770 f   cinder:GLee.obj
 0001:000237a0       _GLee_Lazy_glClearBufferuiv@12 004247a0 f   cinder:GLee.obj
 0001:000237d0       _GLee_Lazy_glClearBufferfv@12 004247d0 f   cinder:GLee.obj
 0001:00023800       _GLee_Lazy_glClearBufferfi@16 00424800 f   cinder:GLee.obj
 0001:00023830       _GLee_Lazy_glGetStringi@8  00424830 f   cinder:GLee.obj
 0001:00023860       _GLee_Lazy_glActiveTextureARB@4 00424860 f   cinder:GLee.obj
 0001:00023880       _GLee_Lazy_glClientActiveTextureARB@4 00424880 f   cinder:GLee.obj
 0001:000238a0       _GLee_Lazy_glMultiTexCoord1dARB@12 004248a0 f   cinder:GLee.obj
 0001:000238d0       _GLee_Lazy_glMultiTexCoord1dvARB@8 004248d0 f   cinder:GLee.obj
 0001:00023900       _GLee_Lazy_glMultiTexCoord1fARB@8 00424900 f   cinder:GLee.obj
 0001:00023930       _GLee_Lazy_glMultiTexCoord1fvARB@8 00424930 f   cinder:GLee.obj
 0001:00023960       _GLee_Lazy_glMultiTexCoord1iARB@8 00424960 f   cinder:GLee.obj
 0001:00023990       _GLee_Lazy_glMultiTexCoord1ivARB@8 00424990 f   cinder:GLee.obj
 0001:000239c0       _GLee_Lazy_glMultiTexCoord1sARB@8 004249c0 f   cinder:GLee.obj
 0001:000239f0       _GLee_Lazy_glMultiTexCoord1svARB@8 004249f0 f   cinder:GLee.obj
 0001:00023a20       _GLee_Lazy_glMultiTexCoord2dARB@20 00424a20 f   cinder:GLee.obj
 0001:00023a50       _GLee_Lazy_glMultiTexCoord2dvARB@8 00424a50 f   cinder:GLee.obj
 0001:00023a80       _GLee_Lazy_glMultiTexCoord2fARB@12 00424a80 f   cinder:GLee.obj
 0001:00023ab0       _GLee_Lazy_glMultiTexCoord2fvARB@8 00424ab0 f   cinder:GLee.obj
 0001:00023ae0       _GLee_Lazy_glMultiTexCoord2iARB@12 00424ae0 f   cinder:GLee.obj
 0001:00023b10       _GLee_Lazy_glMultiTexCoord2ivARB@8 00424b10 f   cinder:GLee.obj
 0001:00023b40       _GLee_Lazy_glMultiTexCoord2sARB@12 00424b40 f   cinder:GLee.obj
 0001:00023b70       _GLee_Lazy_glMultiTexCoord2svARB@8 00424b70 f   cinder:GLee.obj
 0001:00023ba0       _GLee_Lazy_glMultiTexCoord3dARB@28 00424ba0 f   cinder:GLee.obj
 0001:00023be0       _GLee_Lazy_glMultiTexCoord3dvARB@8 00424be0 f   cinder:GLee.obj
 0001:00023c10       _GLee_Lazy_glMultiTexCoord3fARB@16 00424c10 f   cinder:GLee.obj
 0001:00023c50       _GLee_Lazy_glMultiTexCoord3fvARB@8 00424c50 f   cinder:GLee.obj
 0001:00023c80       _GLee_Lazy_glMultiTexCoord3iARB@16 00424c80 f   cinder:GLee.obj
 0001:00023cb0       _GLee_Lazy_glMultiTexCoord3ivARB@8 00424cb0 f   cinder:GLee.obj
 0001:00023ce0       _GLee_Lazy_glMultiTexCoord3sARB@16 00424ce0 f   cinder:GLee.obj
 0001:00023d10       _GLee_Lazy_glMultiTexCoord3svARB@8 00424d10 f   cinder:GLee.obj
 0001:00023d40       _GLee_Lazy_glMultiTexCoord4dARB@36 00424d40 f   cinder:GLee.obj
 0001:00023d90       _GLee_Lazy_glMultiTexCoord4dvARB@8 00424d90 f   cinder:GLee.obj
 0001:00023dc0       _GLee_Lazy_glMultiTexCoord4fARB@20 00424dc0 f   cinder:GLee.obj
 0001:00023e00       _GLee_Lazy_glMultiTexCoord4fvARB@8 00424e00 f   cinder:GLee.obj
 0001:00023e30       _GLee_Lazy_glMultiTexCoord4iARB@20 00424e30 f   cinder:GLee.obj
 0001:00023e60       _GLee_Lazy_glMultiTexCoord4ivARB@8 00424e60 f   cinder:GLee.obj
 0001:00023e90       _GLee_Lazy_glMultiTexCoord4sARB@20 00424e90 f   cinder:GLee.obj
 0001:00023ed0       _GLee_Lazy_glMultiTexCoord4svARB@8 00424ed0 f   cinder:GLee.obj
 0001:00023f00       _GLee_Lazy_glLoadTransposeMatrixfARB@4 00424f00 f   cinder:GLee.obj
 0001:00023f20       _GLee_Lazy_glLoadTransposeMatrixdARB@4 00424f20 f   cinder:GLee.obj
 0001:00023f40       _GLee_Lazy_glMultTransposeMatrixfARB@4 00424f40 f   cinder:GLee.obj
 0001:00023f60       _GLee_Lazy_glMultTransposeMatrixdARB@4 00424f60 f   cinder:GLee.obj
 0001:00023f80       _GLee_Lazy_glSampleCoverageARB@8 00424f80 f   cinder:GLee.obj
 0001:00023fb0       _GLee_Lazy_glCompressedTexImage3DARB@36 00424fb0 f   cinder:GLee.obj
 0001:00023ff0       _GLee_Lazy_glCompressedTexImage2DARB@32 00424ff0 f   cinder:GLee.obj
 0001:00024030       _GLee_Lazy_glCompressedTexImage1DARB@28 00425030 f   cinder:GLee.obj
 0001:00024070       _GLee_Lazy_glCompressedTexSubImage3DARB@44 00425070 f   cinder:GLee.obj
 0001:000240c0       _GLee_Lazy_glCompressedTexSubImage2DARB@36 004250c0 f   cinder:GLee.obj
 0001:00024100       _GLee_Lazy_glCompressedTexSubImage1DARB@28 00425100 f   cinder:GLee.obj
 0001:00024140       _GLee_Lazy_glGetCompressedTexImageARB@12 00425140 f   cinder:GLee.obj
 0001:00024170       _GLee_Lazy_glPointParameterfARB@8 00425170 f   cinder:GLee.obj
 0001:000241a0       _GLee_Lazy_glPointParameterfvARB@8 004251a0 f   cinder:GLee.obj
 0001:000241d0       _GLee_Lazy_glWeightbvARB@8 004251d0 f   cinder:GLee.obj
 0001:00024200       _GLee_Lazy_glWeightsvARB@8 00425200 f   cinder:GLee.obj
 0001:00024230       _GLee_Lazy_glWeightivARB@8 00425230 f   cinder:GLee.obj
 0001:00024260       _GLee_Lazy_glWeightfvARB@8 00425260 f   cinder:GLee.obj
 0001:00024290       _GLee_Lazy_glWeightdvARB@8 00425290 f   cinder:GLee.obj
 0001:000242c0       _GLee_Lazy_glWeightubvARB@8 004252c0 f   cinder:GLee.obj
 0001:000242f0       _GLee_Lazy_glWeightusvARB@8 004252f0 f   cinder:GLee.obj
 0001:00024320       _GLee_Lazy_glWeightuivARB@8 00425320 f   cinder:GLee.obj
 0001:00024350       _GLee_Lazy_glWeightPointerARB@16 00425350 f   cinder:GLee.obj
 0001:00024380       _GLee_Lazy_glVertexBlendARB@4 00425380 f   cinder:GLee.obj
 0001:000243a0       _GLee_Lazy_glCurrentPaletteMatrixARB@4 004253a0 f   cinder:GLee.obj
 0001:000243c0       _GLee_Lazy_glMatrixIndexubvARB@8 004253c0 f   cinder:GLee.obj
 0001:000243f0       _GLee_Lazy_glMatrixIndexusvARB@8 004253f0 f   cinder:GLee.obj
 0001:00024420       _GLee_Lazy_glMatrixIndexuivARB@8 00425420 f   cinder:GLee.obj
 0001:00024450       _GLee_Lazy_glMatrixIndexPointerARB@16 00425450 f   cinder:GLee.obj
 0001:00024480       _GLee_Lazy_glWindowPos2dARB@16 00425480 f   cinder:GLee.obj
 0001:000244b0       _GLee_Lazy_glWindowPos2dvARB@4 004254b0 f   cinder:GLee.obj
 0001:000244d0       _GLee_Lazy_glWindowPos2fARB@8 004254d0 f   cinder:GLee.obj
 0001:00024500       _GLee_Lazy_glWindowPos2fvARB@4 00425500 f   cinder:GLee.obj
 0001:00024520       _GLee_Lazy_glWindowPos2iARB@8 00425520 f   cinder:GLee.obj
 0001:00024550       _GLee_Lazy_glWindowPos2ivARB@4 00425550 f   cinder:GLee.obj
 0001:00024570       _GLee_Lazy_glWindowPos2sARB@8 00425570 f   cinder:GLee.obj
 0001:000245a0       _GLee_Lazy_glWindowPos2svARB@4 004255a0 f   cinder:GLee.obj
 0001:000245c0       _GLee_Lazy_glWindowPos3dARB@24 004255c0 f   cinder:GLee.obj
 0001:00024600       _GLee_Lazy_glWindowPos3dvARB@4 00425600 f   cinder:GLee.obj
 0001:00024620       _GLee_Lazy_glWindowPos3fARB@12 00425620 f   cinder:GLee.obj
 0001:00024650       _GLee_Lazy_glWindowPos3fvARB@4 00425650 f   cinder:GLee.obj
 0001:00024670       _GLee_Lazy_glWindowPos3iARB@12 00425670 f   cinder:GLee.obj
 0001:000246a0       _GLee_Lazy_glWindowPos3ivARB@4 004256a0 f   cinder:GLee.obj
 0001:000246c0       _GLee_Lazy_glWindowPos3sARB@12 004256c0 f   cinder:GLee.obj
 0001:000246f0       _GLee_Lazy_glWindowPos3svARB@4 004256f0 f   cinder:GLee.obj
 0001:00024710       _GLee_Lazy_glVertexAttrib1dARB@12 00425710 f   cinder:GLee.obj
 0001:00024740       _GLee_Lazy_glVertexAttrib1dvARB@8 00425740 f   cinder:GLee.obj
 0001:00024770       _GLee_Lazy_glVertexAttrib1fARB@8 00425770 f   cinder:GLee.obj
 0001:000247a0       _GLee_Lazy_glVertexAttrib1fvARB@8 004257a0 f   cinder:GLee.obj
 0001:000247d0       _GLee_Lazy_glVertexAttrib1sARB@8 004257d0 f   cinder:GLee.obj
 0001:00024800       _GLee_Lazy_glVertexAttrib1svARB@8 00425800 f   cinder:GLee.obj
 0001:00024830       _GLee_Lazy_glVertexAttrib2dARB@20 00425830 f   cinder:GLee.obj
 0001:00024860       _GLee_Lazy_glVertexAttrib2dvARB@8 00425860 f   cinder:GLee.obj
 0001:00024890       _GLee_Lazy_glVertexAttrib2fARB@12 00425890 f   cinder:GLee.obj
 0001:000248c0       _GLee_Lazy_glVertexAttrib2fvARB@8 004258c0 f   cinder:GLee.obj
 0001:000248f0       _GLee_Lazy_glVertexAttrib2sARB@12 004258f0 f   cinder:GLee.obj
 0001:00024920       _GLee_Lazy_glVertexAttrib2svARB@8 00425920 f   cinder:GLee.obj
 0001:00024950       _GLee_Lazy_glVertexAttrib3dARB@28 00425950 f   cinder:GLee.obj
 0001:00024990       _GLee_Lazy_glVertexAttrib3dvARB@8 00425990 f   cinder:GLee.obj
 0001:000249c0       _GLee_Lazy_glVertexAttrib3fARB@16 004259c0 f   cinder:GLee.obj
 0001:00024a00       _GLee_Lazy_glVertexAttrib3fvARB@8 00425a00 f   cinder:GLee.obj
 0001:00024a30       _GLee_Lazy_glVertexAttrib3sARB@16 00425a30 f   cinder:GLee.obj
 0001:00024a60       _GLee_Lazy_glVertexAttrib3svARB@8 00425a60 f   cinder:GLee.obj
 0001:00024a90       _GLee_Lazy_glVertexAttrib4NbvARB@8 00425a90 f   cinder:GLee.obj
 0001:00024ac0       _GLee_Lazy_glVertexAttrib4NivARB@8 00425ac0 f   cinder:GLee.obj
 0001:00024af0       _GLee_Lazy_glVertexAttrib4NsvARB@8 00425af0 f   cinder:GLee.obj
 0001:00024b20       _GLee_Lazy_glVertexAttrib4NubARB@20 00425b20 f   cinder:GLee.obj
 0001:00024b60       _GLee_Lazy_glVertexAttrib4NubvARB@8 00425b60 f   cinder:GLee.obj
 0001:00024b90       _GLee_Lazy_glVertexAttrib4NuivARB@8 00425b90 f   cinder:GLee.obj
 0001:00024bc0       _GLee_Lazy_glVertexAttrib4NusvARB@8 00425bc0 f   cinder:GLee.obj
 0001:00024bf0       _GLee_Lazy_glVertexAttrib4bvARB@8 00425bf0 f   cinder:GLee.obj
 0001:00024c20       _GLee_Lazy_glVertexAttrib4dARB@36 00425c20 f   cinder:GLee.obj
 0001:00024c70       _GLee_Lazy_glVertexAttrib4dvARB@8 00425c70 f   cinder:GLee.obj
 0001:00024ca0       _GLee_Lazy_glVertexAttrib4fARB@20 00425ca0 f   cinder:GLee.obj
 0001:00024ce0       _GLee_Lazy_glVertexAttrib4fvARB@8 00425ce0 f   cinder:GLee.obj
 0001:00024d10       _GLee_Lazy_glVertexAttrib4ivARB@8 00425d10 f   cinder:GLee.obj
 0001:00024d40       _GLee_Lazy_glVertexAttrib4sARB@20 00425d40 f   cinder:GLee.obj
 0001:00024d80       _GLee_Lazy_glVertexAttrib4svARB@8 00425d80 f   cinder:GLee.obj
 0001:00024db0       _GLee_Lazy_glVertexAttrib4ubvARB@8 00425db0 f   cinder:GLee.obj
 0001:00024de0       _GLee_Lazy_glVertexAttrib4uivARB@8 00425de0 f   cinder:GLee.obj
 0001:00024e10       _GLee_Lazy_glVertexAttrib4usvARB@8 00425e10 f   cinder:GLee.obj
 0001:00024e40       _GLee_Lazy_glVertexAttribPointerARB@24 00425e40 f   cinder:GLee.obj
 0001:00024e80       _GLee_Lazy_glEnableVertexAttribArrayARB@4 00425e80 f   cinder:GLee.obj
 0001:00024ea0       _GLee_Lazy_glDisableVertexAttribArrayARB@4 00425ea0 f   cinder:GLee.obj
 0001:00024ec0       _GLee_Lazy_glProgramStringARB@16 00425ec0 f   cinder:GLee.obj
 0001:00024ef0       _GLee_Lazy_glBindProgramARB@8 00425ef0 f   cinder:GLee.obj
 0001:00024f20       _GLee_Lazy_glDeleteProgramsARB@8 00425f20 f   cinder:GLee.obj
 0001:00024f50       _GLee_Lazy_glGenProgramsARB@8 00425f50 f   cinder:GLee.obj
 0001:00024f80       _GLee_Lazy_glProgramEnvParameter4dARB@40 00425f80 f   cinder:GLee.obj
 0001:00024fd0       _GLee_Lazy_glProgramEnvParameter4dvARB@12 00425fd0 f   cinder:GLee.obj
 0001:00025000       _GLee_Lazy_glProgramEnvParameter4fARB@24 00426000 f   cinder:GLee.obj
 0001:00025040       _GLee_Lazy_glProgramEnvParameter4fvARB@12 00426040 f   cinder:GLee.obj
 0001:00025070       _GLee_Lazy_glProgramLocalParameter4dARB@40 00426070 f   cinder:GLee.obj
 0001:000250c0       _GLee_Lazy_glProgramLocalParameter4dvARB@12 004260c0 f   cinder:GLee.obj
 0001:000250f0       _GLee_Lazy_glProgramLocalParameter4fARB@24 004260f0 f   cinder:GLee.obj
 0001:00025130       _GLee_Lazy_glProgramLocalParameter4fvARB@12 00426130 f   cinder:GLee.obj
 0001:00025160       _GLee_Lazy_glGetProgramEnvParameterdvARB@12 00426160 f   cinder:GLee.obj
 0001:00025190       _GLee_Lazy_glGetProgramEnvParameterfvARB@12 00426190 f   cinder:GLee.obj
 0001:000251c0       _GLee_Lazy_glGetProgramLocalParameterdvARB@12 004261c0 f   cinder:GLee.obj
 0001:000251f0       _GLee_Lazy_glGetProgramLocalParameterfvARB@12 004261f0 f   cinder:GLee.obj
 0001:00025220       _GLee_Lazy_glGetProgramivARB@12 00426220 f   cinder:GLee.obj
 0001:00025250       _GLee_Lazy_glGetProgramStringARB@12 00426250 f   cinder:GLee.obj
 0001:00025280       _GLee_Lazy_glGetVertexAttribdvARB@12 00426280 f   cinder:GLee.obj
 0001:000252b0       _GLee_Lazy_glGetVertexAttribfvARB@12 004262b0 f   cinder:GLee.obj
 0001:000252e0       _GLee_Lazy_glGetVertexAttribivARB@12 004262e0 f   cinder:GLee.obj
 0001:00025310       _GLee_Lazy_glGetVertexAttribPointervARB@12 00426310 f   cinder:GLee.obj
 0001:00025340       _GLee_Lazy_glIsProgramARB@4 00426340 f   cinder:GLee.obj
 0001:00025370       _GLee_Lazy_glBindBufferARB@8 00426370 f   cinder:GLee.obj
 0001:000253a0       _GLee_Lazy_glDeleteBuffersARB@8 004263a0 f   cinder:GLee.obj
 0001:000253d0       _GLee_Lazy_glGenBuffersARB@8 004263d0 f   cinder:GLee.obj
 0001:00025400       _GLee_Lazy_glIsBufferARB@4 00426400 f   cinder:GLee.obj
 0001:00025430       _GLee_Lazy_glBufferDataARB@16 00426430 f   cinder:GLee.obj
 0001:00025460       _GLee_Lazy_glBufferSubDataARB@16 00426460 f   cinder:GLee.obj
 0001:00025490       _GLee_Lazy_glGetBufferSubDataARB@16 00426490 f   cinder:GLee.obj
 0001:000254c0       _GLee_Lazy_glMapBufferARB@8 004264c0 f   cinder:GLee.obj
 0001:000254f0       _GLee_Lazy_glUnmapBufferARB@4 004264f0 f   cinder:GLee.obj
 0001:00025520       _GLee_Lazy_glGetBufferParameterivARB@12 00426520 f   cinder:GLee.obj
 0001:00025550       _GLee_Lazy_glGetBufferPointervARB@12 00426550 f   cinder:GLee.obj
 0001:00025580       _GLee_Lazy_glGenQueriesARB@8 00426580 f   cinder:GLee.obj
 0001:000255b0       _GLee_Lazy_glDeleteQueriesARB@8 004265b0 f   cinder:GLee.obj
 0001:000255e0       _GLee_Lazy_glIsQueryARB@4  004265e0 f   cinder:GLee.obj
 0001:00025610       _GLee_Lazy_glBeginQueryARB@8 00426610 f   cinder:GLee.obj
 0001:00025640       _GLee_Lazy_glEndQueryARB@4 00426640 f   cinder:GLee.obj
 0001:00025660       _GLee_Lazy_glGetQueryivARB@12 00426660 f   cinder:GLee.obj
 0001:00025690       _GLee_Lazy_glGetQueryObjectivARB@12 00426690 f   cinder:GLee.obj
 0001:000256c0       _GLee_Lazy_glGetQueryObjectuivARB@12 004266c0 f   cinder:GLee.obj
 0001:000256f0       _GLee_Lazy_glDeleteObjectARB@4 004266f0 f   cinder:GLee.obj
 0001:00025710       _GLee_Lazy_glGetHandleARB@4 00426710 f   cinder:GLee.obj
 0001:00025740       _GLee_Lazy_glDetachObjectARB@8 00426740 f   cinder:GLee.obj
 0001:00025770       _GLee_Lazy_glCreateShaderObjectARB@4 00426770 f   cinder:GLee.obj
 0001:000257a0       _GLee_Lazy_glShaderSourceARB@16 004267a0 f   cinder:GLee.obj
 0001:000257d0       _GLee_Lazy_glCompileShaderARB@4 004267d0 f   cinder:GLee.obj
 0001:000257f0       _GLee_Lazy_glCreateProgramObjectARB@0 004267f0 f   cinder:GLee.obj
 0001:00025810       _GLee_Lazy_glAttachObjectARB@8 00426810 f   cinder:GLee.obj
 0001:00025840       _GLee_Lazy_glLinkProgramARB@4 00426840 f   cinder:GLee.obj
 0001:00025860       _GLee_Lazy_glUseProgramObjectARB@4 00426860 f   cinder:GLee.obj
 0001:00025880       _GLee_Lazy_glValidateProgramARB@4 00426880 f   cinder:GLee.obj
 0001:000258a0       _GLee_Lazy_glUniform1fARB@8 004268a0 f   cinder:GLee.obj
 0001:000258d0       _GLee_Lazy_glUniform2fARB@12 004268d0 f   cinder:GLee.obj
 0001:00025900       _GLee_Lazy_glUniform3fARB@16 00426900 f   cinder:GLee.obj
 0001:00025940       _GLee_Lazy_glUniform4fARB@20 00426940 f   cinder:GLee.obj
 0001:00025980       _GLee_Lazy_glUniform1iARB@8 00426980 f   cinder:GLee.obj
 0001:000259b0       _GLee_Lazy_glUniform2iARB@12 004269b0 f   cinder:GLee.obj
 0001:000259e0       _GLee_Lazy_glUniform3iARB@16 004269e0 f   cinder:GLee.obj
 0001:00025a10       _GLee_Lazy_glUniform4iARB@20 00426a10 f   cinder:GLee.obj
 0001:00025a40       _GLee_Lazy_glUniform1fvARB@12 00426a40 f   cinder:GLee.obj
 0001:00025a70       _GLee_Lazy_glUniform2fvARB@12 00426a70 f   cinder:GLee.obj
 0001:00025aa0       _GLee_Lazy_glUniform3fvARB@12 00426aa0 f   cinder:GLee.obj
 0001:00025ad0       _GLee_Lazy_glUniform4fvARB@12 00426ad0 f   cinder:GLee.obj
 0001:00025b00       _GLee_Lazy_glUniform1ivARB@12 00426b00 f   cinder:GLee.obj
 0001:00025b30       _GLee_Lazy_glUniform2ivARB@12 00426b30 f   cinder:GLee.obj
 0001:00025b60       _GLee_Lazy_glUniform3ivARB@12 00426b60 f   cinder:GLee.obj
 0001:00025b90       _GLee_Lazy_glUniform4ivARB@12 00426b90 f   cinder:GLee.obj
 0001:00025bc0       _GLee_Lazy_glUniformMatrix2fvARB@16 00426bc0 f   cinder:GLee.obj
 0001:00025bf0       _GLee_Lazy_glUniformMatrix3fvARB@16 00426bf0 f   cinder:GLee.obj
 0001:00025c20       _GLee_Lazy_glUniformMatrix4fvARB@16 00426c20 f   cinder:GLee.obj
 0001:00025c50       _GLee_Lazy_glGetObjectParameterfvARB@12 00426c50 f   cinder:GLee.obj
 0001:00025c80       _GLee_Lazy_glGetObjectParameterivARB@12 00426c80 f   cinder:GLee.obj
 0001:00025cb0       _GLee_Lazy_glGetInfoLogARB@16 00426cb0 f   cinder:GLee.obj
 0001:00025ce0       _GLee_Lazy_glGetAttachedObjectsARB@16 00426ce0 f   cinder:GLee.obj
 0001:00025d10       _GLee_Lazy_glGetUniformLocationARB@8 00426d10 f   cinder:GLee.obj
 0001:00025d40       _GLee_Lazy_glGetActiveUniformARB@28 00426d40 f   cinder:GLee.obj
 0001:00025d80       _GLee_Lazy_glGetUniformfvARB@12 00426d80 f   cinder:GLee.obj
 0001:00025db0       _GLee_Lazy_glGetUniformivARB@12 00426db0 f   cinder:GLee.obj
 0001:00025de0       _GLee_Lazy_glGetShaderSourceARB@16 00426de0 f   cinder:GLee.obj
 0001:00025e10       _GLee_Lazy_glBindAttribLocationARB@12 00426e10 f   cinder:GLee.obj
 0001:00025e40       _GLee_Lazy_glGetActiveAttribARB@28 00426e40 f   cinder:GLee.obj
 0001:00025e80       _GLee_Lazy_glGetAttribLocationARB@8 00426e80 f   cinder:GLee.obj
 0001:00025eb0       _GLee_Lazy_glDrawBuffersARB@8 00426eb0 f   cinder:GLee.obj
 0001:00025ee0       _GLee_Lazy_glClampColorARB@8 00426ee0 f   cinder:GLee.obj
 0001:00025f10       _GLee_Lazy_glDrawArraysInstancedARB@16 00426f10 f   cinder:GLee.obj
 0001:00025f40       _GLee_Lazy_glDrawElementsInstancedARB@20 00426f40 f   cinder:GLee.obj
 0001:00025f70       _GLee_Lazy_glIsRenderbuffer@4 00426f70 f   cinder:GLee.obj
 0001:00025fa0       _GLee_Lazy_glBindRenderbuffer@8 00426fa0 f   cinder:GLee.obj
 0001:00025fd0       _GLee_Lazy_glDeleteRenderbuffers@8 00426fd0 f   cinder:GLee.obj
 0001:00026000       _GLee_Lazy_glGenRenderbuffers@8 00427000 f   cinder:GLee.obj
 0001:00026030       _GLee_Lazy_glRenderbufferStorage@16 00427030 f   cinder:GLee.obj
 0001:00026060       _GLee_Lazy_glGetRenderbufferParameteriv@12 00427060 f   cinder:GLee.obj
 0001:00026090       _GLee_Lazy_glIsFramebuffer@4 00427090 f   cinder:GLee.obj
 0001:000260c0       _GLee_Lazy_glBindFramebuffer@8 004270c0 f   cinder:GLee.obj
 0001:000260f0       _GLee_Lazy_glDeleteFramebuffers@8 004270f0 f   cinder:GLee.obj
 0001:00026120       _GLee_Lazy_glGenFramebuffers@8 00427120 f   cinder:GLee.obj
 0001:00026150       _GLee_Lazy_glCheckFramebufferStatus@4 00427150 f   cinder:GLee.obj
 0001:00026180       _GLee_Lazy_glFramebufferTexture1D@20 00427180 f   cinder:GLee.obj
 0001:000261b0       _GLee_Lazy_glFramebufferTexture2D@20 004271b0 f   cinder:GLee.obj
 0001:000261e0       _GLee_Lazy_glFramebufferTexture3D@24 004271e0 f   cinder:GLee.obj
 0001:00026220       _GLee_Lazy_glFramebufferRenderbuffer@16 00427220 f   cinder:GLee.obj
 0001:00026250       _GLee_Lazy_glGetFramebufferAttachmentParameteriv@16 00427250 f   cinder:GLee.obj
 0001:00026280       _GLee_Lazy_glGenerateMipmap@4 00427280 f   cinder:GLee.obj
 0001:000262a0       _GLee_Lazy_glBlitFramebuffer@40 004272a0 f   cinder:GLee.obj
 0001:000262f0       _GLee_Lazy_glRenderbufferStorageMultisample@20 004272f0 f   cinder:GLee.obj
 0001:00026320       _GLee_Lazy_glFramebufferTextureLayer@20 00427320 f   cinder:GLee.obj
 0001:00026350       _GLee_Lazy_glProgramParameteriARB@12 00427350 f   cinder:GLee.obj
 0001:00026380       _GLee_Lazy_glFramebufferTextureARB@16 00427380 f   cinder:GLee.obj
 0001:000263b0       _GLee_Lazy_glFramebufferTextureLayerARB@20 004273b0 f   cinder:GLee.obj
 0001:000263e0       _GLee_Lazy_glFramebufferTextureFaceARB@20 004273e0 f   cinder:GLee.obj
 0001:00026410       _GLee_Lazy_glVertexAttribDivisor@8 00427410 f   cinder:GLee.obj
 0001:00026440       _GLee_Lazy_glMapBufferRange@16 00427440 f   cinder:GLee.obj
 0001:00026470       _GLee_Lazy_glFlushMappedBufferRange@12 00427470 f   cinder:GLee.obj
 0001:000264a0       _GLee_Lazy_glTexBufferARB@12 004274a0 f   cinder:GLee.obj
 0001:000264d0       _GLee_Lazy_glBindVertexArray@4 004274d0 f   cinder:GLee.obj
 0001:000264f0       _GLee_Lazy_glDeleteVertexArrays@8 004274f0 f   cinder:GLee.obj
 0001:00026520       _GLee_Lazy_glGenVertexArrays@8 00427520 f   cinder:GLee.obj
 0001:00026550       _GLee_Lazy_glIsVertexArray@4 00427550 f   cinder:GLee.obj
 0001:00026580       _GLee_Lazy_glBlendColorEXT@16 00427580 f   cinder:GLee.obj
 0001:000265c0       _GLee_Lazy_glPolygonOffsetEXT@8 004275c0 f   cinder:GLee.obj
 0001:000265f0       _GLee_Lazy_glTexImage3DEXT@40 004275f0 f   cinder:GLee.obj
 0001:00026640       _GLee_Lazy_glTexSubImage3DEXT@44 00427640 f   cinder:GLee.obj
 0001:00026690       _GLee_Lazy_glGetTexFilterFuncSGIS@12 00427690 f   cinder:GLee.obj
 0001:000266c0       _GLee_Lazy_glTexFilterFuncSGIS@16 004276c0 f   cinder:GLee.obj
 0001:000266f0       _GLee_Lazy_glTexSubImage1DEXT@28 004276f0 f   cinder:GLee.obj
 0001:00026730       _GLee_Lazy_glTexSubImage2DEXT@36 00427730 f   cinder:GLee.obj
 0001:00026770       _GLee_Lazy_glCopyTexImage1DEXT@28 00427770 f   cinder:GLee.obj
 0001:000267b0       _GLee_Lazy_glCopyTexImage2DEXT@32 004277b0 f   cinder:GLee.obj
 0001:000267f0       _GLee_Lazy_glCopyTexSubImage1DEXT@24 004277f0 f   cinder:GLee.obj
 0001:00026830       _GLee_Lazy_glCopyTexSubImage2DEXT@32 00427830 f   cinder:GLee.obj
 0001:00026870       _GLee_Lazy_glCopyTexSubImage3DEXT@36 00427870 f   cinder:GLee.obj
 0001:000268b0       _GLee_Lazy_glGetHistogramEXT@20 004278b0 f   cinder:GLee.obj
 0001:000268e0       _GLee_Lazy_glGetHistogramParameterfvEXT@12 004278e0 f   cinder:GLee.obj
 0001:00026910       _GLee_Lazy_glGetHistogramParameterivEXT@12 00427910 f   cinder:GLee.obj
 0001:00026940       _GLee_Lazy_glGetMinmaxEXT@20 00427940 f   cinder:GLee.obj
 0001:00026970       _GLee_Lazy_glGetMinmaxParameterfvEXT@12 00427970 f   cinder:GLee.obj
 0001:000269a0       _GLee_Lazy_glGetMinmaxParameterivEXT@12 004279a0 f   cinder:GLee.obj
 0001:000269d0       _GLee_Lazy_glHistogramEXT@16 004279d0 f   cinder:GLee.obj
 0001:00026a00       _GLee_Lazy_glMinmaxEXT@12  00427a00 f   cinder:GLee.obj
 0001:00026a30       _GLee_Lazy_glResetHistogramEXT@4 00427a30 f   cinder:GLee.obj
 0001:00026a50       _GLee_Lazy_glResetMinmaxEXT@4 00427a50 f   cinder:GLee.obj
 0001:00026a70       _GLee_Lazy_glConvolutionFilter1DEXT@24 00427a70 f   cinder:GLee.obj
 0001:00026ab0       _GLee_Lazy_glConvolutionFilter2DEXT@28 00427ab0 f   cinder:GLee.obj
 0001:00026af0       _GLee_Lazy_glConvolutionParameterfEXT@12 00427af0 f   cinder:GLee.obj
 0001:00026b20       _GLee_Lazy_glConvolutionParameterfvEXT@12 00427b20 f   cinder:GLee.obj
 0001:00026b50       _GLee_Lazy_glConvolutionParameteriEXT@12 00427b50 f   cinder:GLee.obj
 0001:00026b80       _GLee_Lazy_glConvolutionParameterivEXT@12 00427b80 f   cinder:GLee.obj
 0001:00026bb0       _GLee_Lazy_glCopyConvolutionFilter1DEXT@20 00427bb0 f   cinder:GLee.obj
 0001:00026be0       _GLee_Lazy_glCopyConvolutionFilter2DEXT@24 00427be0 f   cinder:GLee.obj
 0001:00026c20       _GLee_Lazy_glGetConvolutionFilterEXT@16 00427c20 f   cinder:GLee.obj
 0001:00026c50       _GLee_Lazy_glGetConvolutionParameterfvEXT@12 00427c50 f   cinder:GLee.obj
 0001:00026c80       _GLee_Lazy_glGetConvolutionParameterivEXT@12 00427c80 f   cinder:GLee.obj
 0001:00026cb0       _GLee_Lazy_glGetSeparableFilterEXT@24 00427cb0 f   cinder:GLee.obj
 0001:00026cf0       _GLee_Lazy_glSeparableFilter2DEXT@32 00427cf0 f   cinder:GLee.obj
 0001:00026d30       _GLee_Lazy_glColorTableSGI@24 00427d30 f   cinder:GLee.obj
 0001:00026d70       _GLee_Lazy_glColorTableParameterfvSGI@12 00427d70 f   cinder:GLee.obj
 0001:00026da0       _GLee_Lazy_glColorTableParameterivSGI@12 00427da0 f   cinder:GLee.obj
 0001:00026dd0       _GLee_Lazy_glCopyColorTableSGI@20 00427dd0 f   cinder:GLee.obj
 0001:00026e00       _GLee_Lazy_glGetColorTableSGI@16 00427e00 f   cinder:GLee.obj
 0001:00026e30       _GLee_Lazy_glGetColorTableParameterfvSGI@12 00427e30 f   cinder:GLee.obj
 0001:00026e60       _GLee_Lazy_glGetColorTableParameterivSGI@12 00427e60 f   cinder:GLee.obj
 0001:00026e90       _GLee_Lazy_glPixelTexGenParameteriSGIS@8 00427e90 f   cinder:GLee.obj
 0001:00026ec0       _GLee_Lazy_glPixelTexGenParameterivSGIS@8 00427ec0 f   cinder:GLee.obj
 0001:00026ef0       _GLee_Lazy_glPixelTexGenParameterfSGIS@8 00427ef0 f   cinder:GLee.obj
 0001:00026f20       _GLee_Lazy_glPixelTexGenParameterfvSGIS@8 00427f20 f   cinder:GLee.obj
 0001:00026f50       _GLee_Lazy_glGetPixelTexGenParameterivSGIS@8 00427f50 f   cinder:GLee.obj
 0001:00026f80       _GLee_Lazy_glGetPixelTexGenParameterfvSGIS@8 00427f80 f   cinder:GLee.obj
 0001:00026fb0       _GLee_Lazy_glPixelTexGenSGIX@4 00427fb0 f   cinder:GLee.obj
 0001:00026fd0       _GLee_Lazy_glTexImage4DSGIS@44 00427fd0 f   cinder:GLee.obj
 0001:00027020       _GLee_Lazy_glTexSubImage4DSGIS@52 00428020 f   cinder:GLee.obj
 0001:00027070       _GLee_Lazy_glAreTexturesResidentEXT@12 00428070 f   cinder:GLee.obj
 0001:000270a0       _GLee_Lazy_glBindTextureEXT@8 004280a0 f   cinder:GLee.obj
 0001:000270d0       _GLee_Lazy_glDeleteTexturesEXT@8 004280d0 f   cinder:GLee.obj
 0001:00027100       _GLee_Lazy_glGenTexturesEXT@8 00428100 f   cinder:GLee.obj
 0001:00027130       _GLee_Lazy_glIsTextureEXT@4 00428130 f   cinder:GLee.obj
 0001:00027160       _GLee_Lazy_glPrioritizeTexturesEXT@12 00428160 f   cinder:GLee.obj
 0001:00027190       _GLee_Lazy_glDetailTexFuncSGIS@12 00428190 f   cinder:GLee.obj
 0001:000271c0       _GLee_Lazy_glGetDetailTexFuncSGIS@8 004281c0 f   cinder:GLee.obj
 0001:000271f0       _GLee_Lazy_glSharpenTexFuncSGIS@12 004281f0 f   cinder:GLee.obj
 0001:00027220       _GLee_Lazy_glGetSharpenTexFuncSGIS@8 00428220 f   cinder:GLee.obj
 0001:00027250       _GLee_Lazy_glSampleMaskSGIS@8 00428250 f   cinder:GLee.obj
 0001:00027280       _GLee_Lazy_glSamplePatternSGIS@4 00428280 f   cinder:GLee.obj
 0001:000272a0       _GLee_Lazy_glBlendEquationEXT@4 004282a0 f   cinder:GLee.obj
 0001:000272c0       _GLee_Lazy_glSpriteParameterfSGIX@8 004282c0 f   cinder:GLee.obj
 0001:000272f0       _GLee_Lazy_glSpriteParameterfvSGIX@8 004282f0 f   cinder:GLee.obj
 0001:00027320       _GLee_Lazy_glSpriteParameteriSGIX@8 00428320 f   cinder:GLee.obj
 0001:00027350       _GLee_Lazy_glSpriteParameterivSGIX@8 00428350 f   cinder:GLee.obj
 0001:00027380       _GLee_Lazy_glPointParameterfEXT@8 00428380 f   cinder:GLee.obj
 0001:000273b0       _GLee_Lazy_glPointParameterfvEXT@8 004283b0 f   cinder:GLee.obj
 0001:000273e0       _GLee_Lazy_glPointParameterfSGIS@8 004283e0 f   cinder:GLee.obj
 0001:00027410       _GLee_Lazy_glPointParameterfvSGIS@8 00428410 f   cinder:GLee.obj
 0001:00027440       _GLee_Lazy_glGetInstrumentsSGIX@0 00428440 f   cinder:GLee.obj
 0001:00027460       _GLee_Lazy_glInstrumentsBufferSGIX@8 00428460 f   cinder:GLee.obj
 0001:00027490       _GLee_Lazy_glPollInstrumentsSGIX@4 00428490 f   cinder:GLee.obj
 0001:000274c0       _GLee_Lazy_glReadInstrumentsSGIX@4 004284c0 f   cinder:GLee.obj
 0001:000274e0       _GLee_Lazy_glStartInstrumentsSGIX@0 004284e0 f   cinder:GLee.obj
 0001:00027500       _GLee_Lazy_glStopInstrumentsSGIX@4 00428500 f   cinder:GLee.obj
 0001:00027520       _GLee_Lazy_glFrameZoomSGIX@4 00428520 f   cinder:GLee.obj
 0001:00027540       _GLee_Lazy_glTagSampleBufferSGIX@0 00428540 f   cinder:GLee.obj
 0001:00027560       _GLee_Lazy_glDeformationMap3dSGIX@80 00428560 f   cinder:GLee.obj
 0001:000275d0       _GLee_Lazy_glDeformationMap3fSGIX@56 004285d0 f   cinder:GLee.obj
 0001:00027640       _GLee_Lazy_glDeformSGIX@4  00428640 f   cinder:GLee.obj
 0001:00027660       _GLee_Lazy_glLoadIdentityDeformationMapSGIX@4 00428660 f   cinder:GLee.obj
 0001:00027680       _GLee_Lazy_glReferencePlaneSGIX@4 00428680 f   cinder:GLee.obj
 0001:000276a0       _GLee_Lazy_glFlushRasterSGIX@0 004286a0 f   cinder:GLee.obj
 0001:000276c0       _GLee_Lazy_glFogFuncSGIS@8 004286c0 f   cinder:GLee.obj
 0001:000276f0       _GLee_Lazy_glGetFogFuncSGIS@4 004286f0 f   cinder:GLee.obj
 0001:00027710       _GLee_Lazy_glImageTransformParameteriHP@12 00428710 f   cinder:GLee.obj
 0001:00027740       _GLee_Lazy_glImageTransformParameterfHP@12 00428740 f   cinder:GLee.obj
 0001:00027770       _GLee_Lazy_glImageTransformParameterivHP@12 00428770 f   cinder:GLee.obj
 0001:000277a0       _GLee_Lazy_glImageTransformParameterfvHP@12 004287a0 f   cinder:GLee.obj
 0001:000277d0       _GLee_Lazy_glGetImageTransformParameterivHP@12 004287d0 f   cinder:GLee.obj
 0001:00027800       _GLee_Lazy_glGetImageTransformParameterfvHP@12 00428800 f   cinder:GLee.obj
 0001:00027830       _GLee_Lazy_glColorSubTableEXT@24 00428830 f   cinder:GLee.obj
 0001:00027870       _GLee_Lazy_glCopyColorSubTableEXT@20 00428870 f   cinder:GLee.obj
 0001:000278a0       _GLee_Lazy_glHintPGI@8     004288a0 f   cinder:GLee.obj
 0001:000278d0       _GLee_Lazy_glGetListParameterfvSGIX@12 004288d0 f   cinder:GLee.obj
 0001:00027900       _GLee_Lazy_glGetListParameterivSGIX@12 00428900 f   cinder:GLee.obj
 0001:00027930       _GLee_Lazy_glListParameterfSGIX@12 00428930 f   cinder:GLee.obj
 0001:00027960       _GLee_Lazy_glListParameterfvSGIX@12 00428960 f   cinder:GLee.obj
 0001:00027990       _GLee_Lazy_glListParameteriSGIX@12 00428990 f   cinder:GLee.obj
 0001:000279c0       _GLee_Lazy_glListParameterivSGIX@12 004289c0 f   cinder:GLee.obj
 0001:000279f0       _GLee_Lazy_glIndexMaterialEXT@8 004289f0 f   cinder:GLee.obj
 0001:00027a20       _GLee_Lazy_glIndexFuncEXT@8 00428a20 f   cinder:GLee.obj
 0001:00027a50       _GLee_Lazy_glLockArraysEXT@8 00428a50 f   cinder:GLee.obj
 0001:00027a80       _GLee_Lazy_glUnlockArraysEXT@0 00428a80 f   cinder:GLee.obj
 0001:00027aa0       _GLee_Lazy_glCullParameterdvEXT@8 00428aa0 f   cinder:GLee.obj
 0001:00027ad0       _GLee_Lazy_glCullParameterfvEXT@8 00428ad0 f   cinder:GLee.obj
 0001:00027b00       _GLee_Lazy_glFragmentColorMaterialSGIX@8 00428b00 f   cinder:GLee.obj
 0001:00027b30       _GLee_Lazy_glFragmentLightfSGIX@12 00428b30 f   cinder:GLee.obj
 0001:00027b60       _GLee_Lazy_glFragmentLightfvSGIX@12 00428b60 f   cinder:GLee.obj
 0001:00027b90       _GLee_Lazy_glFragmentLightiSGIX@12 00428b90 f   cinder:GLee.obj
 0001:00027bc0       _GLee_Lazy_glFragmentLightivSGIX@12 00428bc0 f   cinder:GLee.obj
 0001:00027bf0       _GLee_Lazy_glFragmentLightModelfSGIX@8 00428bf0 f   cinder:GLee.obj
 0001:00027c20       _GLee_Lazy_glFragmentLightModelfvSGIX@8 00428c20 f   cinder:GLee.obj
 0001:00027c50       _GLee_Lazy_glFragmentLightModeliSGIX@8 00428c50 f   cinder:GLee.obj
 0001:00027c80       _GLee_Lazy_glFragmentLightModelivSGIX@8 00428c80 f   cinder:GLee.obj
 0001:00027cb0       _GLee_Lazy_glFragmentMaterialfSGIX@12 00428cb0 f   cinder:GLee.obj
 0001:00027ce0       _GLee_Lazy_glFragmentMaterialfvSGIX@12 00428ce0 f   cinder:GLee.obj
 0001:00027d10       _GLee_Lazy_glFragmentMaterialiSGIX@12 00428d10 f   cinder:GLee.obj
 0001:00027d40       _GLee_Lazy_glFragmentMaterialivSGIX@12 00428d40 f   cinder:GLee.obj
 0001:00027d70       _GLee_Lazy_glGetFragmentLightfvSGIX@12 00428d70 f   cinder:GLee.obj
 0001:00027da0       _GLee_Lazy_glGetFragmentLightivSGIX@12 00428da0 f   cinder:GLee.obj
 0001:00027dd0       _GLee_Lazy_glGetFragmentMaterialfvSGIX@12 00428dd0 f   cinder:GLee.obj
 0001:00027e00       _GLee_Lazy_glGetFragmentMaterialivSGIX@12 00428e00 f   cinder:GLee.obj
 0001:00027e30       _GLee_Lazy_glLightEnviSGIX@8 00428e30 f   cinder:GLee.obj
 0001:00027e60       _GLee_Lazy_glDrawRangeElementsEXT@24 00428e60 f   cinder:GLee.obj
 0001:00027ea0       _GLee_Lazy_glApplyTextureEXT@4 00428ea0 f   cinder:GLee.obj
 0001:00027ec0       _GLee_Lazy_glTextureLightEXT@4 00428ec0 f   cinder:GLee.obj
 0001:00027ee0       _GLee_Lazy_glTextureMaterialEXT@8 00428ee0 f   cinder:GLee.obj
 0001:00027f10       _GLee_Lazy_glAsyncMarkerSGIX@4 00428f10 f   cinder:GLee.obj
 0001:00027f30       _GLee_Lazy_glFinishAsyncSGIX@4 00428f30 f   cinder:GLee.obj
 0001:00027f60       _GLee_Lazy_glPollAsyncSGIX@4 00428f60 f   cinder:GLee.obj
 0001:00027f90       _GLee_Lazy_glGenAsyncMarkersSGIX@4 00428f90 f   cinder:GLee.obj
 0001:00027fc0       _GLee_Lazy_glDeleteAsyncMarkersSGIX@8 00428fc0 f   cinder:GLee.obj
 0001:00027ff0       _GLee_Lazy_glIsAsyncMarkerSGIX@4 00428ff0 f   cinder:GLee.obj
 0001:00028020       _GLee_Lazy_glVertexPointervINTEL@12 00429020 f   cinder:GLee.obj
 0001:00028050       _GLee_Lazy_glNormalPointervINTEL@8 00429050 f   cinder:GLee.obj
 0001:00028080       _GLee_Lazy_glColorPointervINTEL@12 00429080 f   cinder:GLee.obj
 0001:000280b0       _GLee_Lazy_glTexCoordPointervINTEL@12 004290b0 f   cinder:GLee.obj
 0001:000280e0       _GLee_Lazy_glPixelTransformParameteriEXT@12 004290e0 f   cinder:GLee.obj
 0001:00028110       _GLee_Lazy_glPixelTransformParameterfEXT@12 00429110 f   cinder:GLee.obj
 0001:00028140       _GLee_Lazy_glPixelTransformParameterivEXT@12 00429140 f   cinder:GLee.obj
 0001:00028170       _GLee_Lazy_glPixelTransformParameterfvEXT@12 00429170 f   cinder:GLee.obj
 0001:000281a0       _GLee_Lazy_glSecondaryColor3bEXT@12 004291a0 f   cinder:GLee.obj
 0001:000281d0       _GLee_Lazy_glSecondaryColor3bvEXT@4 004291d0 f   cinder:GLee.obj
 0001:000281f0       _GLee_Lazy_glSecondaryColor3dEXT@24 004291f0 f   cinder:GLee.obj
 0001:00028230       _GLee_Lazy_glSecondaryColor3dvEXT@4 00429230 f   cinder:GLee.obj
 0001:00028250       _GLee_Lazy_glSecondaryColor3fEXT@12 00429250 f   cinder:GLee.obj
 0001:00028280       _GLee_Lazy_glSecondaryColor3fvEXT@4 00429280 f   cinder:GLee.obj
 0001:000282a0       _GLee_Lazy_glSecondaryColor3iEXT@12 004292a0 f   cinder:GLee.obj
 0001:000282d0       _GLee_Lazy_glSecondaryColor3ivEXT@4 004292d0 f   cinder:GLee.obj
 0001:000282f0       _GLee_Lazy_glSecondaryColor3sEXT@12 004292f0 f   cinder:GLee.obj
 0001:00028320       _GLee_Lazy_glSecondaryColor3svEXT@4 00429320 f   cinder:GLee.obj
 0001:00028340       _GLee_Lazy_glSecondaryColor3ubEXT@12 00429340 f   cinder:GLee.obj
 0001:00028370       _GLee_Lazy_glSecondaryColor3ubvEXT@4 00429370 f   cinder:GLee.obj
 0001:00028390       _GLee_Lazy_glSecondaryColor3uiEXT@12 00429390 f   cinder:GLee.obj
 0001:000283c0       _GLee_Lazy_glSecondaryColor3uivEXT@4 004293c0 f   cinder:GLee.obj
 0001:000283e0       _GLee_Lazy_glSecondaryColor3usEXT@12 004293e0 f   cinder:GLee.obj
 0001:00028410       _GLee_Lazy_glSecondaryColor3usvEXT@4 00429410 f   cinder:GLee.obj
 0001:00028430       _GLee_Lazy_glSecondaryColorPointerEXT@16 00429430 f   cinder:GLee.obj
 0001:00028460       _GLee_Lazy_glTextureNormalEXT@4 00429460 f   cinder:GLee.obj
 0001:00028480       _GLee_Lazy_glMultiDrawArraysEXT@16 00429480 f   cinder:GLee.obj
 0001:000284b0       _GLee_Lazy_glMultiDrawElementsEXT@20 004294b0 f   cinder:GLee.obj
 0001:000284e0       _GLee_Lazy_glFogCoordfEXT@4 004294e0 f   cinder:GLee.obj
 0001:00028500       _GLee_Lazy_glFogCoordfvEXT@4 00429500 f   cinder:GLee.obj
 0001:00028520       _GLee_Lazy_glFogCoorddEXT@8 00429520 f   cinder:GLee.obj
 0001:00028550       _GLee_Lazy_glFogCoorddvEXT@4 00429550 f   cinder:GLee.obj
 0001:00028570       _GLee_Lazy_glFogCoordPointerEXT@12 00429570 f   cinder:GLee.obj
 0001:000285a0       _GLee_Lazy_glTangent3bEXT@12 004295a0 f   cinder:GLee.obj
 0001:000285d0       _GLee_Lazy_glTangent3bvEXT@4 004295d0 f   cinder:GLee.obj
 0001:000285f0       _GLee_Lazy_glTangent3dEXT@24 004295f0 f   cinder:GLee.obj
 0001:00028630       _GLee_Lazy_glTangent3dvEXT@4 00429630 f   cinder:GLee.obj
 0001:00028650       _GLee_Lazy_glTangent3fEXT@12 00429650 f   cinder:GLee.obj
 0001:00028680       _GLee_Lazy_glTangent3fvEXT@4 00429680 f   cinder:GLee.obj
 0001:000286a0       _GLee_Lazy_glTangent3iEXT@12 004296a0 f   cinder:GLee.obj
 0001:000286d0       _GLee_Lazy_glTangent3ivEXT@4 004296d0 f   cinder:GLee.obj
 0001:000286f0       _GLee_Lazy_glTangent3sEXT@12 004296f0 f   cinder:GLee.obj
 0001:00028720       _GLee_Lazy_glTangent3svEXT@4 00429720 f   cinder:GLee.obj
 0001:00028740       _GLee_Lazy_glBinormal3bEXT@12 00429740 f   cinder:GLee.obj
 0001:00028770       _GLee_Lazy_glBinormal3bvEXT@4 00429770 f   cinder:GLee.obj
 0001:00028790       _GLee_Lazy_glBinormal3dEXT@24 00429790 f   cinder:GLee.obj
 0001:000287d0       _GLee_Lazy_glBinormal3dvEXT@4 004297d0 f   cinder:GLee.obj
 0001:000287f0       _GLee_Lazy_glBinormal3fEXT@12 004297f0 f   cinder:GLee.obj
 0001:00028820       _GLee_Lazy_glBinormal3fvEXT@4 00429820 f   cinder:GLee.obj
 0001:00028840       _GLee_Lazy_glBinormal3iEXT@12 00429840 f   cinder:GLee.obj
 0001:00028870       _GLee_Lazy_glBinormal3ivEXT@4 00429870 f   cinder:GLee.obj
 0001:00028890       _GLee_Lazy_glBinormal3sEXT@12 00429890 f   cinder:GLee.obj
 0001:000288c0       _GLee_Lazy_glBinormal3svEXT@4 004298c0 f   cinder:GLee.obj
 0001:000288e0       _GLee_Lazy_glTangentPointerEXT@12 004298e0 f   cinder:GLee.obj
 0001:00028910       _GLee_Lazy_glBinormalPointerEXT@12 00429910 f   cinder:GLee.obj
 0001:00028940       _GLee_Lazy_glFinishTextureSUNX@0 00429940 f   cinder:GLee.obj
 0001:00028960       _GLee_Lazy_glGlobalAlphaFactorbSUN@4 00429960 f   cinder:GLee.obj
 0001:00028980       _GLee_Lazy_glGlobalAlphaFactorsSUN@4 00429980 f   cinder:GLee.obj
 0001:000289a0       _GLee_Lazy_glGlobalAlphaFactoriSUN@4 004299a0 f   cinder:GLee.obj
 0001:000289c0       _GLee_Lazy_glGlobalAlphaFactorfSUN@4 004299c0 f   cinder:GLee.obj
 0001:000289e0       _GLee_Lazy_glGlobalAlphaFactordSUN@8 004299e0 f   cinder:GLee.obj
 0001:00028a10       _GLee_Lazy_glGlobalAlphaFactorubSUN@4 00429a10 f   cinder:GLee.obj
 0001:00028a30       _GLee_Lazy_glGlobalAlphaFactorusSUN@4 00429a30 f   cinder:GLee.obj
 0001:00028a50       _GLee_Lazy_glGlobalAlphaFactoruiSUN@4 00429a50 f   cinder:GLee.obj
 0001:00028a70       _GLee_Lazy_glReplacementCodeuiSUN@4 00429a70 f   cinder:GLee.obj
 0001:00028a90       _GLee_Lazy_glReplacementCodeusSUN@4 00429a90 f   cinder:GLee.obj
 0001:00028ab0       _GLee_Lazy_glReplacementCodeubSUN@4 00429ab0 f   cinder:GLee.obj
 0001:00028ad0       _GLee_Lazy_glReplacementCodeuivSUN@4 00429ad0 f   cinder:GLee.obj
 0001:00028af0       _GLee_Lazy_glReplacementCodeusvSUN@4 00429af0 f   cinder:GLee.obj
 0001:00028b10       _GLee_Lazy_glReplacementCodeubvSUN@4 00429b10 f   cinder:GLee.obj
 0001:00028b30       _GLee_Lazy_glReplacementCodePointerSUN@12 00429b30 f   cinder:GLee.obj
 0001:00028b60       _GLee_Lazy_glColor4ubVertex2fSUN@24 00429b60 f   cinder:GLee.obj
 0001:00028ba0       _GLee_Lazy_glColor4ubVertex2fvSUN@8 00429ba0 f   cinder:GLee.obj
 0001:00028bd0       _GLee_Lazy_glColor4ubVertex3fSUN@28 00429bd0 f   cinder:GLee.obj
 0001:00028c20       _GLee_Lazy_glColor4ubVertex3fvSUN@8 00429c20 f   cinder:GLee.obj
 0001:00028c50       _GLee_Lazy_glColor3fVertex3fSUN@24 00429c50 f   cinder:GLee.obj
 0001:00028ca0       _GLee_Lazy_glColor3fVertex3fvSUN@8 00429ca0 f   cinder:GLee.obj
 0001:00028cd0       _GLee_Lazy_glNormal3fVertex3fSUN@24 00429cd0 f   cinder:GLee.obj
 0001:00028d20       _GLee_Lazy_glNormal3fVertex3fvSUN@8 00429d20 f   cinder:GLee.obj
 0001:00028d50       _GLee_Lazy_glColor4fNormal3fVertex3fSUN@40 00429d50 f   cinder:GLee.obj
 0001:00028db0       _GLee_Lazy_glColor4fNormal3fVertex3fvSUN@12 00429db0 f   cinder:GLee.obj
 0001:00028de0       _GLee_Lazy_glTexCoord2fVertex3fSUN@20 00429de0 f   cinder:GLee.obj
 0001:00028e20       _GLee_Lazy_glTexCoord2fVertex3fvSUN@8 00429e20 f   cinder:GLee.obj
 0001:00028e50       _GLee_Lazy_glTexCoord4fVertex4fSUN@32 00429e50 f   cinder:GLee.obj
 0001:00028eb0       _GLee_Lazy_glTexCoord4fVertex4fvSUN@8 00429eb0 f   cinder:GLee.obj
 0001:00028ee0       _GLee_Lazy_glTexCoord2fColor4ubVertex3fSUN@36 00429ee0 f   cinder:GLee.obj
 0001:00028f30       _GLee_Lazy_glTexCoord2fColor4ubVertex3fvSUN@12 00429f30 f   cinder:GLee.obj
 0001:00028f60       _GLee_Lazy_glTexCoord2fColor3fVertex3fSUN@32 00429f60 f   cinder:GLee.obj
 0001:00028fc0       _GLee_Lazy_glTexCoord2fColor3fVertex3fvSUN@12 00429fc0 f   cinder:GLee.obj
 0001:00028ff0       _GLee_Lazy_glTexCoord2fNormal3fVertex3fSUN@32 00429ff0 f   cinder:GLee.obj
 0001:00029050       _GLee_Lazy_glTexCoord2fNormal3fVertex3fvSUN@12 0042a050 f   cinder:GLee.obj
 0001:00029080       _GLee_Lazy_glTexCoord2fColor4fNormal3fVertex3fSUN@48 0042a080 f   cinder:GLee.obj
 0001:000290f0       _GLee_Lazy_glTexCoord2fColor4fNormal3fVertex3fvSUN@16 0042a0f0 f   cinder:GLee.obj
 0001:00029120       _GLee_Lazy_glTexCoord4fColor4fNormal3fVertex4fSUN@60 0042a120 f   cinder:GLee.obj
 0001:000291b0       _GLee_Lazy_glTexCoord4fColor4fNormal3fVertex4fvSUN@16 0042a1b0 f   cinder:GLee.obj
 0001:000291e0       _GLee_Lazy_glReplacementCodeuiVertex3fSUN@16 0042a1e0 f   cinder:GLee.obj
 0001:00029220       _GLee_Lazy_glReplacementCodeuiVertex3fvSUN@8 0042a220 f   cinder:GLee.obj
 0001:00029250       _GLee_Lazy_glReplacementCodeuiColor4ubVertex3fSUN@32 0042a250 f   cinder:GLee.obj
 0001:000292a0       _GLee_Lazy_glReplacementCodeuiColor4ubVertex3fvSUN@12 0042a2a0 f   cinder:GLee.obj
 0001:000292d0       _GLee_Lazy_glReplacementCodeuiColor3fVertex3fSUN@28 0042a2d0 f   cinder:GLee.obj
 0001:00029320       _GLee_Lazy_glReplacementCodeuiColor3fVertex3fvSUN@12 0042a320 f   cinder:GLee.obj
 0001:00029350       _GLee_Lazy_glReplacementCodeuiNormal3fVertex3fSUN@28 0042a350 f   cinder:GLee.obj
 0001:000293a0       _GLee_Lazy_glReplacementCodeuiNormal3fVertex3fvSUN@12 0042a3a0 f   cinder:GLee.obj
 0001:000293d0       _GLee_Lazy_glReplacementCodeuiColor4fNormal3fVertex3fSUN@44 0042a3d0 f   cinder:GLee.obj
 0001:00029440       _GLee_Lazy_glReplacementCodeuiColor4fNormal3fVertex3fvSUN@16 0042a440 f   cinder:GLee.obj
 0001:00029470       _GLee_Lazy_glReplacementCodeuiTexCoord2fVertex3fSUN@24 0042a470 f   cinder:GLee.obj
 0001:000294b0       _GLee_Lazy_glReplacementCodeuiTexCoord2fVertex3fvSUN@12 0042a4b0 f   cinder:GLee.obj
 0001:000294e0       _GLee_Lazy_glReplacementCodeuiTexCoord2fNormal3fVertex3fSUN@36 0042a4e0 f   cinder:GLee.obj
 0001:00029540       _GLee_Lazy_glReplacementCodeuiTexCoord2fNormal3fVertex3fvSUN@16 0042a540 f   cinder:GLee.obj
 0001:00029570       _GLee_Lazy_glReplacementCodeuiTexCoord2fColor4fNormal3fVertex3fSUN@52 0042a570 f   cinder:GLee.obj
 0001:000295f0       _GLee_Lazy_glReplacementCodeuiTexCoord2fColor4fNormal3fVertex3fvSUN@20 0042a5f0 f   cinder:GLee.obj
 0001:00029620       _GLee_Lazy_glBlendFuncSeparateEXT@16 0042a620 f   cinder:GLee.obj
 0001:00029650       _GLee_Lazy_glVertexWeightfEXT@4 0042a650 f   cinder:GLee.obj
 0001:00029670       _GLee_Lazy_glVertexWeightfvEXT@4 0042a670 f   cinder:GLee.obj
 0001:00029690       _GLee_Lazy_glVertexWeightPointerEXT@16 0042a690 f   cinder:GLee.obj
 0001:000296c0       _GLee_Lazy_glFlushVertexArrayRangeNV@0 0042a6c0 f   cinder:GLee.obj
 0001:000296e0       _GLee_Lazy_glVertexArrayRangeNV@8 0042a6e0 f   cinder:GLee.obj
 0001:00029710       _GLee_Lazy_glCombinerParameterfvNV@8 0042a710 f   cinder:GLee.obj
 0001:00029740       _GLee_Lazy_glCombinerParameterfNV@8 0042a740 f   cinder:GLee.obj
 0001:00029770       _GLee_Lazy_glCombinerParameterivNV@8 0042a770 f   cinder:GLee.obj
 0001:000297a0       _GLee_Lazy_glCombinerParameteriNV@8 0042a7a0 f   cinder:GLee.obj
 0001:000297d0       _GLee_Lazy_glCombinerInputNV@24 0042a7d0 f   cinder:GLee.obj
 0001:00029810       _GLee_Lazy_glCombinerOutputNV@40 0042a810 f   cinder:GLee.obj
 0001:00029860       _GLee_Lazy_glFinalCombinerInputNV@16 0042a860 f   cinder:GLee.obj
 0001:00029890       _GLee_Lazy_glGetCombinerInputParameterfvNV@20 0042a890 f   cinder:GLee.obj
 0001:000298c0       _GLee_Lazy_glGetCombinerInputParameterivNV@20 0042a8c0 f   cinder:GLee.obj
 0001:000298f0       _GLee_Lazy_glGetCombinerOutputParameterfvNV@16 0042a8f0 f   cinder:GLee.obj
 0001:00029920       _GLee_Lazy_glGetCombinerOutputParameterivNV@16 0042a920 f   cinder:GLee.obj
 0001:00029950       _GLee_Lazy_glGetFinalCombinerInputParameterfvNV@12 0042a950 f   cinder:GLee.obj
 0001:00029980       _GLee_Lazy_glGetFinalCombinerInputParameterivNV@12 0042a980 f   cinder:GLee.obj
 0001:000299b0       _GLee_Lazy_glResizeBuffersMESA@0 0042a9b0 f   cinder:GLee.obj
 0001:000299d0       _GLee_Lazy_glWindowPos2dMESA@16 0042a9d0 f   cinder:GLee.obj
 0001:00029a00       _GLee_Lazy_glWindowPos2dvMESA@4 0042aa00 f   cinder:GLee.obj
 0001:00029a20       _GLee_Lazy_glWindowPos2fMESA@8 0042aa20 f   cinder:GLee.obj
 0001:00029a50       _GLee_Lazy_glWindowPos2fvMESA@4 0042aa50 f   cinder:GLee.obj
 0001:00029a70       _GLee_Lazy_glWindowPos2iMESA@8 0042aa70 f   cinder:GLee.obj
 0001:00029aa0       _GLee_Lazy_glWindowPos2ivMESA@4 0042aaa0 f   cinder:GLee.obj
 0001:00029ac0       _GLee_Lazy_glWindowPos2sMESA@8 0042aac0 f   cinder:GLee.obj
 0001:00029af0       _GLee_Lazy_glWindowPos2svMESA@4 0042aaf0 f   cinder:GLee.obj
 0001:00029b10       _GLee_Lazy_glWindowPos3dMESA@24 0042ab10 f   cinder:GLee.obj
 0001:00029b50       _GLee_Lazy_glWindowPos3dvMESA@4 0042ab50 f   cinder:GLee.obj
 0001:00029b70       _GLee_Lazy_glWindowPos3fMESA@12 0042ab70 f   cinder:GLee.obj
 0001:00029ba0       _GLee_Lazy_glWindowPos3fvMESA@4 0042aba0 f   cinder:GLee.obj
 0001:00029bc0       _GLee_Lazy_glWindowPos3iMESA@12 0042abc0 f   cinder:GLee.obj
 0001:00029bf0       _GLee_Lazy_glWindowPos3ivMESA@4 0042abf0 f   cinder:GLee.obj
 0001:00029c10       _GLee_Lazy_glWindowPos3sMESA@12 0042ac10 f   cinder:GLee.obj
 0001:00029c40       _GLee_Lazy_glWindowPos3svMESA@4 0042ac40 f   cinder:GLee.obj
 0001:00029c60       _GLee_Lazy_glWindowPos4dMESA@32 0042ac60 f   cinder:GLee.obj
 0001:00029ca0       _GLee_Lazy_glWindowPos4dvMESA@4 0042aca0 f   cinder:GLee.obj
 0001:00029cc0       _GLee_Lazy_glWindowPos4fMESA@16 0042acc0 f   cinder:GLee.obj
 0001:00029d00       _GLee_Lazy_glWindowPos4fvMESA@4 0042ad00 f   cinder:GLee.obj
 0001:00029d20       _GLee_Lazy_glWindowPos4iMESA@16 0042ad20 f   cinder:GLee.obj
 0001:00029d50       _GLee_Lazy_glWindowPos4ivMESA@4 0042ad50 f   cinder:GLee.obj
 0001:00029d70       _GLee_Lazy_glWindowPos4sMESA@16 0042ad70 f   cinder:GLee.obj
 0001:00029da0       _GLee_Lazy_glWindowPos4svMESA@4 0042ada0 f   cinder:GLee.obj
 0001:00029dc0       _GLee_Lazy_glMultiModeDrawArraysIBM@20 0042adc0 f   cinder:GLee.obj
 0001:00029df0       _GLee_Lazy_glMultiModeDrawElementsIBM@24 0042adf0 f   cinder:GLee.obj
 0001:00029e30       _GLee_Lazy_glColorPointerListIBM@20 0042ae30 f   cinder:GLee.obj
 0001:00029e60       _GLee_Lazy_glSecondaryColorPointerListIBM@20 0042ae60 f   cinder:GLee.obj
 0001:00029e90       _GLee_Lazy_glEdgeFlagPointerListIBM@12 0042ae90 f   cinder:GLee.obj
 0001:00029ec0       _GLee_Lazy_glFogCoordPointerListIBM@16 0042aec0 f   cinder:GLee.obj
 0001:00029ef0       _GLee_Lazy_glIndexPointerListIBM@16 0042aef0 f   cinder:GLee.obj
 0001:00029f20       _GLee_Lazy_glNormalPointerListIBM@16 0042af20 f   cinder:GLee.obj
 0001:00029f50       _GLee_Lazy_glTexCoordPointerListIBM@20 0042af50 f   cinder:GLee.obj
 0001:00029f80       _GLee_Lazy_glVertexPointerListIBM@20 0042af80 f   cinder:GLee.obj
 0001:00029fb0       _GLee_Lazy_glTbufferMask3DFX@4 0042afb0 f   cinder:GLee.obj
 0001:00029fd0       _GLee_Lazy_glSampleMaskEXT@8 0042afd0 f   cinder:GLee.obj
 0001:0002a000       _GLee_Lazy_glSamplePatternEXT@4 0042b000 f   cinder:GLee.obj
 0001:0002a020       _GLee_Lazy_glTextureColorMaskSGIS@16 0042b020 f   cinder:GLee.obj
 0001:0002a050       _GLee_Lazy_glDeleteFencesNV@8 0042b050 f   cinder:GLee.obj
 0001:0002a080       _GLee_Lazy_glGenFencesNV@8 0042b080 f   cinder:GLee.obj
 0001:0002a0b0       _GLee_Lazy_glIsFenceNV@4   0042b0b0 f   cinder:GLee.obj
 0001:0002a0e0       _GLee_Lazy_glTestFenceNV@4 0042b0e0 f   cinder:GLee.obj
 0001:0002a110       _GLee_Lazy_glGetFenceivNV@12 0042b110 f   cinder:GLee.obj
 0001:0002a140       _GLee_Lazy_glFinishFenceNV@4 0042b140 f   cinder:GLee.obj
 0001:0002a160       _GLee_Lazy_glSetFenceNV@8  0042b160 f   cinder:GLee.obj
 0001:0002a190       _GLee_Lazy_glMapControlPointsNV@36 0042b190 f   cinder:GLee.obj
 0001:0002a1d0       _GLee_Lazy_glMapParameterivNV@12 0042b1d0 f   cinder:GLee.obj
 0001:0002a200       _GLee_Lazy_glMapParameterfvNV@12 0042b200 f   cinder:GLee.obj
 0001:0002a230       _GLee_Lazy_glGetMapControlPointsNV@28 0042b230 f   cinder:GLee.obj
 0001:0002a270       _GLee_Lazy_glGetMapParameterivNV@12 0042b270 f   cinder:GLee.obj
 0001:0002a2a0       _GLee_Lazy_glGetMapParameterfvNV@12 0042b2a0 f   cinder:GLee.obj
 0001:0002a2d0       _GLee_Lazy_glGetMapAttribParameterivNV@16 0042b2d0 f   cinder:GLee.obj
 0001:0002a300       _GLee_Lazy_glGetMapAttribParameterfvNV@16 0042b300 f   cinder:GLee.obj
 0001:0002a330       _GLee_Lazy_glEvalMapsNV@8  0042b330 f   cinder:GLee.obj
 0001:0002a360       _GLee_Lazy_glCombinerStageParameterfvNV@12 0042b360 f   cinder:GLee.obj
 0001:0002a390       _GLee_Lazy_glGetCombinerStageParameterfvNV@12 0042b390 f   cinder:GLee.obj
 0001:0002a3c0       _GLee_Lazy_glAreProgramsResidentNV@12 0042b3c0 f   cinder:GLee.obj
 0001:0002a3f0       _GLee_Lazy_glBindProgramNV@8 0042b3f0 f   cinder:GLee.obj
 0001:0002a420       _GLee_Lazy_glDeleteProgramsNV@8 0042b420 f   cinder:GLee.obj
 0001:0002a450       _GLee_Lazy_glExecuteProgramNV@12 0042b450 f   cinder:GLee.obj
 0001:0002a480       _GLee_Lazy_glGenProgramsNV@8 0042b480 f   cinder:GLee.obj
 0001:0002a4b0       _GLee_Lazy_glGetProgramParameterdvNV@16 0042b4b0 f   cinder:GLee.obj
 0001:0002a4e0       _GLee_Lazy_glGetProgramParameterfvNV@16 0042b4e0 f   cinder:GLee.obj
 0001:0002a510       _GLee_Lazy_glGetProgramivNV@12 0042b510 f   cinder:GLee.obj
 0001:0002a540       _GLee_Lazy_glGetProgramStringNV@12 0042b540 f   cinder:GLee.obj
 0001:0002a570       _GLee_Lazy_glGetTrackMatrixivNV@16 0042b570 f   cinder:GLee.obj
 0001:0002a5a0       _GLee_Lazy_glGetVertexAttribdvNV@12 0042b5a0 f   cinder:GLee.obj
 0001:0002a5d0       _GLee_Lazy_glGetVertexAttribfvNV@12 0042b5d0 f   cinder:GLee.obj
 0001:0002a600       _GLee_Lazy_glGetVertexAttribivNV@12 0042b600 f   cinder:GLee.obj
 0001:0002a630       _GLee_Lazy_glGetVertexAttribPointervNV@12 0042b630 f   cinder:GLee.obj
 0001:0002a660       _GLee_Lazy_glIsProgramNV@4 0042b660 f   cinder:GLee.obj
 0001:0002a690       _GLee_Lazy_glLoadProgramNV@16 0042b690 f   cinder:GLee.obj
 0001:0002a6c0       _GLee_Lazy_glProgramParameter4dNV@40 0042b6c0 f   cinder:GLee.obj
 0001:0002a710       _GLee_Lazy_glProgramParameter4dvNV@12 0042b710 f   cinder:GLee.obj
 0001:0002a740       _GLee_Lazy_glProgramParameter4fNV@24 0042b740 f   cinder:GLee.obj
 0001:0002a780       _GLee_Lazy_glProgramParameter4fvNV@12 0042b780 f   cinder:GLee.obj
 0001:0002a7b0       _GLee_Lazy_glProgramParameters4dvNV@16 0042b7b0 f   cinder:GLee.obj
 0001:0002a7e0       _GLee_Lazy_glProgramParameters4fvNV@16 0042b7e0 f   cinder:GLee.obj
 0001:0002a810       _GLee_Lazy_glRequestResidentProgramsNV@8 0042b810 f   cinder:GLee.obj
 0001:0002a840       _GLee_Lazy_glTrackMatrixNV@16 0042b840 f   cinder:GLee.obj
 0001:0002a870       _GLee_Lazy_glVertexAttribPointerNV@20 0042b870 f   cinder:GLee.obj
 0001:0002a8a0       _GLee_Lazy_glVertexAttrib1dNV@12 0042b8a0 f   cinder:GLee.obj
 0001:0002a8d0       _GLee_Lazy_glVertexAttrib1dvNV@8 0042b8d0 f   cinder:GLee.obj
 0001:0002a900       _GLee_Lazy_glVertexAttrib1fNV@8 0042b900 f   cinder:GLee.obj
 0001:0002a930       _GLee_Lazy_glVertexAttrib1fvNV@8 0042b930 f   cinder:GLee.obj
 0001:0002a960       _GLee_Lazy_glVertexAttrib1sNV@8 0042b960 f   cinder:GLee.obj
 0001:0002a990       _GLee_Lazy_glVertexAttrib1svNV@8 0042b990 f   cinder:GLee.obj
 0001:0002a9c0       _GLee_Lazy_glVertexAttrib2dNV@20 0042b9c0 f   cinder:GLee.obj
 0001:0002a9f0       _GLee_Lazy_glVertexAttrib2dvNV@8 0042b9f0 f   cinder:GLee.obj
 0001:0002aa20       _GLee_Lazy_glVertexAttrib2fNV@12 0042ba20 f   cinder:GLee.obj
 0001:0002aa50       _GLee_Lazy_glVertexAttrib2fvNV@8 0042ba50 f   cinder:GLee.obj
 0001:0002aa80       _GLee_Lazy_glVertexAttrib2sNV@12 0042ba80 f   cinder:GLee.obj
 0001:0002aab0       _GLee_Lazy_glVertexAttrib2svNV@8 0042bab0 f   cinder:GLee.obj
 0001:0002aae0       _GLee_Lazy_glVertexAttrib3dNV@28 0042bae0 f   cinder:GLee.obj
 0001:0002ab20       _GLee_Lazy_glVertexAttrib3dvNV@8 0042bb20 f   cinder:GLee.obj
 0001:0002ab50       _GLee_Lazy_glVertexAttrib3fNV@16 0042bb50 f   cinder:GLee.obj
 0001:0002ab90       _GLee_Lazy_glVertexAttrib3fvNV@8 0042bb90 f   cinder:GLee.obj
 0001:0002abc0       _GLee_Lazy_glVertexAttrib3sNV@16 0042bbc0 f   cinder:GLee.obj
 0001:0002abf0       _GLee_Lazy_glVertexAttrib3svNV@8 0042bbf0 f   cinder:GLee.obj
 0001:0002ac20       _GLee_Lazy_glVertexAttrib4dNV@36 0042bc20 f   cinder:GLee.obj
 0001:0002ac70       _GLee_Lazy_glVertexAttrib4dvNV@8 0042bc70 f   cinder:GLee.obj
 0001:0002aca0       _GLee_Lazy_glVertexAttrib4fNV@20 0042bca0 f   cinder:GLee.obj
 0001:0002ace0       _GLee_Lazy_glVertexAttrib4fvNV@8 0042bce0 f   cinder:GLee.obj
 0001:0002ad10       _GLee_Lazy_glVertexAttrib4sNV@20 0042bd10 f   cinder:GLee.obj
 0001:0002ad50       _GLee_Lazy_glVertexAttrib4svNV@8 0042bd50 f   cinder:GLee.obj
 0001:0002ad80       _GLee_Lazy_glVertexAttrib4ubNV@20 0042bd80 f   cinder:GLee.obj
 0001:0002adc0       _GLee_Lazy_glVertexAttrib4ubvNV@8 0042bdc0 f   cinder:GLee.obj
 0001:0002adf0       _GLee_Lazy_glVertexAttribs1dvNV@12 0042bdf0 f   cinder:GLee.obj
 0001:0002ae20       _GLee_Lazy_glVertexAttribs1fvNV@12 0042be20 f   cinder:GLee.obj
 0001:0002ae50       _GLee_Lazy_glVertexAttribs1svNV@12 0042be50 f   cinder:GLee.obj
 0001:0002ae80       _GLee_Lazy_glVertexAttribs2dvNV@12 0042be80 f   cinder:GLee.obj
 0001:0002aeb0       _GLee_Lazy_glVertexAttribs2fvNV@12 0042beb0 f   cinder:GLee.obj
 0001:0002aee0       _GLee_Lazy_glVertexAttribs2svNV@12 0042bee0 f   cinder:GLee.obj
 0001:0002af10       _GLee_Lazy_glVertexAttribs3dvNV@12 0042bf10 f   cinder:GLee.obj
 0001:0002af40       _GLee_Lazy_glVertexAttribs3fvNV@12 0042bf40 f   cinder:GLee.obj
 0001:0002af70       _GLee_Lazy_glVertexAttribs3svNV@12 0042bf70 f   cinder:GLee.obj
 0001:0002afa0       _GLee_Lazy_glVertexAttribs4dvNV@12 0042bfa0 f   cinder:GLee.obj
 0001:0002afd0       _GLee_Lazy_glVertexAttribs4fvNV@12 0042bfd0 f   cinder:GLee.obj
 0001:0002b000       _GLee_Lazy_glVertexAttribs4svNV@12 0042c000 f   cinder:GLee.obj
 0001:0002b030       _GLee_Lazy_glVertexAttribs4ubvNV@12 0042c030 f   cinder:GLee.obj
 0001:0002b060       _GLee_Lazy_glTexBumpParameterivATI@8 0042c060 f   cinder:GLee.obj
 0001:0002b090       _GLee_Lazy_glTexBumpParameterfvATI@8 0042c090 f   cinder:GLee.obj
 0001:0002b0c0       _GLee_Lazy_glGetTexBumpParameterivATI@8 0042c0c0 f   cinder:GLee.obj
 0001:0002b0f0       _GLee_Lazy_glGetTexBumpParameterfvATI@8 0042c0f0 f   cinder:GLee.obj
 0001:0002b120       _GLee_Lazy_glGenFragmentShadersATI@4 0042c120 f   cinder:GLee.obj
 0001:0002b150       _GLee_Lazy_glBindFragmentShaderATI@4 0042c150 f   cinder:GLee.obj
 0001:0002b170       _GLee_Lazy_glDeleteFragmentShaderATI@4 0042c170 f   cinder:GLee.obj
 0001:0002b190       _GLee_Lazy_glBeginFragmentShaderATI@0 0042c190 f   cinder:GLee.obj
 0001:0002b1b0       _GLee_Lazy_glEndFragmentShaderATI@0 0042c1b0 f   cinder:GLee.obj
 0001:0002b1d0       _GLee_Lazy_glPassTexCoordATI@12 0042c1d0 f   cinder:GLee.obj
 0001:0002b200       _GLee_Lazy_glSampleMapATI@12 0042c200 f   cinder:GLee.obj
 0001:0002b230       _GLee_Lazy_glColorFragmentOp1ATI@28 0042c230 f   cinder:GLee.obj
 0001:0002b270       _GLee_Lazy_glColorFragmentOp2ATI@40 0042c270 f   cinder:GLee.obj
 0001:0002b2c0       _GLee_Lazy_glColorFragmentOp3ATI@52 0042c2c0 f   cinder:GLee.obj
 0001:0002b310       _GLee_Lazy_glAlphaFragmentOp1ATI@24 0042c310 f   cinder:GLee.obj
 0001:0002b350       _GLee_Lazy_glAlphaFragmentOp2ATI@36 0042c350 f   cinder:GLee.obj
 0001:0002b390       _GLee_Lazy_glAlphaFragmentOp3ATI@48 0042c390 f   cinder:GLee.obj
 0001:0002b3e0       _GLee_Lazy_glSetFragmentShaderConstantATI@8 0042c3e0 f   cinder:GLee.obj
 0001:0002b410       _GLee_Lazy_glPNTrianglesiATI@8 0042c410 f   cinder:GLee.obj
 0001:0002b440       _GLee_Lazy_glPNTrianglesfATI@8 0042c440 f   cinder:GLee.obj
 0001:0002b470       _GLee_Lazy_glNewObjectBufferATI@12 0042c470 f   cinder:GLee.obj
 0001:0002b4a0       _GLee_Lazy_glIsObjectBufferATI@4 0042c4a0 f   cinder:GLee.obj
 0001:0002b4d0       _GLee_Lazy_glUpdateObjectBufferATI@20 0042c4d0 f   cinder:GLee.obj
 0001:0002b500       _GLee_Lazy_glGetObjectBufferfvATI@12 0042c500 f   cinder:GLee.obj
 0001:0002b530       _GLee_Lazy_glGetObjectBufferivATI@12 0042c530 f   cinder:GLee.obj
 0001:0002b560       _GLee_Lazy_glFreeObjectBufferATI@4 0042c560 f   cinder:GLee.obj
 0001:0002b580       _GLee_Lazy_glArrayObjectATI@24 0042c580 f   cinder:GLee.obj
 0001:0002b5c0       _GLee_Lazy_glGetArrayObjectfvATI@12 0042c5c0 f   cinder:GLee.obj
 0001:0002b5f0       _GLee_Lazy_glGetArrayObjectivATI@12 0042c5f0 f   cinder:GLee.obj
 0001:0002b620       _GLee_Lazy_glVariantArrayObjectATI@20 0042c620 f   cinder:GLee.obj
 0001:0002b650       _GLee_Lazy_glGetVariantArrayObjectfvATI@12 0042c650 f   cinder:GLee.obj
 0001:0002b680       _GLee_Lazy_glGetVariantArrayObjectivATI@12 0042c680 f   cinder:GLee.obj
 0001:0002b6b0       _GLee_Lazy_glBeginVertexShaderEXT@0 0042c6b0 f   cinder:GLee.obj
 0001:0002b6d0       _GLee_Lazy_glEndVertexShaderEXT@0 0042c6d0 f   cinder:GLee.obj
 0001:0002b6f0       _GLee_Lazy_glBindVertexShaderEXT@4 0042c6f0 f   cinder:GLee.obj
 0001:0002b710       _GLee_Lazy_glGenVertexShadersEXT@4 0042c710 f   cinder:GLee.obj
 0001:0002b740       _GLee_Lazy_glDeleteVertexShaderEXT@4 0042c740 f   cinder:GLee.obj
 0001:0002b760       _GLee_Lazy_glShaderOp1EXT@12 0042c760 f   cinder:GLee.obj
 0001:0002b790       _GLee_Lazy_glShaderOp2EXT@16 0042c790 f   cinder:GLee.obj
 0001:0002b7c0       _GLee_Lazy_glShaderOp3EXT@20 0042c7c0 f   cinder:GLee.obj
 0001:0002b7f0       _GLee_Lazy_glSwizzleEXT@24 0042c7f0 f   cinder:GLee.obj
 0001:0002b830       _GLee_Lazy_glWriteMaskEXT@24 0042c830 f   cinder:GLee.obj
 0001:0002b870       _GLee_Lazy_glInsertComponentEXT@12 0042c870 f   cinder:GLee.obj
 0001:0002b8a0       _GLee_Lazy_glExtractComponentEXT@12 0042c8a0 f   cinder:GLee.obj
 0001:0002b8d0       _GLee_Lazy_glGenSymbolsEXT@16 0042c8d0 f   cinder:GLee.obj
 0001:0002b900       _GLee_Lazy_glSetInvariantEXT@12 0042c900 f   cinder:GLee.obj
 0001:0002b930       _GLee_Lazy_glSetLocalConstantEXT@12 0042c930 f   cinder:GLee.obj
 0001:0002b960       _GLee_Lazy_glVariantbvEXT@8 0042c960 f   cinder:GLee.obj
 0001:0002b990       _GLee_Lazy_glVariantsvEXT@8 0042c990 f   cinder:GLee.obj
 0001:0002b9c0       _GLee_Lazy_glVariantivEXT@8 0042c9c0 f   cinder:GLee.obj
 0001:0002b9f0       _GLee_Lazy_glVariantfvEXT@8 0042c9f0 f   cinder:GLee.obj
 0001:0002ba20       _GLee_Lazy_glVariantdvEXT@8 0042ca20 f   cinder:GLee.obj
 0001:0002ba50       _GLee_Lazy_glVariantubvEXT@8 0042ca50 f   cinder:GLee.obj
 0001:0002ba80       _GLee_Lazy_glVariantusvEXT@8 0042ca80 f   cinder:GLee.obj
 0001:0002bab0       _GLee_Lazy_glVariantuivEXT@8 0042cab0 f   cinder:GLee.obj
 0001:0002bae0       _GLee_Lazy_glVariantPointerEXT@16 0042cae0 f   cinder:GLee.obj
 0001:0002bb10       _GLee_Lazy_glEnableVariantClientStateEXT@4 0042cb10 f   cinder:GLee.obj
 0001:0002bb30       _GLee_Lazy_glDisableVariantClientStateEXT@4 0042cb30 f   cinder:GLee.obj
 0001:0002bb50       _GLee_Lazy_glBindLightParameterEXT@8 0042cb50 f   cinder:GLee.obj
 0001:0002bb80       _GLee_Lazy_glBindMaterialParameterEXT@8 0042cb80 f   cinder:GLee.obj
 0001:0002bbb0       _GLee_Lazy_glBindTexGenParameterEXT@12 0042cbb0 f   cinder:GLee.obj
 0001:0002bbe0       _GLee_Lazy_glBindTextureUnitParameterEXT@8 0042cbe0 f   cinder:GLee.obj
 0001:0002bc10       _GLee_Lazy_glBindParameterEXT@4 0042cc10 f   cinder:GLee.obj
 0001:0002bc40       _GLee_Lazy_glIsVariantEnabledEXT@8 0042cc40 f   cinder:GLee.obj
 0001:0002bc70       _GLee_Lazy_glGetVariantBooleanvEXT@12 0042cc70 f   cinder:GLee.obj
 0001:0002bca0       _GLee_Lazy_glGetVariantIntegervEXT@12 0042cca0 f   cinder:GLee.obj
 0001:0002bcd0       _GLee_Lazy_glGetVariantFloatvEXT@12 0042ccd0 f   cinder:GLee.obj
 0001:0002bd00       _GLee_Lazy_glGetVariantPointervEXT@12 0042cd00 f   cinder:GLee.obj
 0001:0002bd30       _GLee_Lazy_glGetInvariantBooleanvEXT@12 0042cd30 f   cinder:GLee.obj
 0001:0002bd60       _GLee_Lazy_glGetInvariantIntegervEXT@12 0042cd60 f   cinder:GLee.obj
 0001:0002bd90       _GLee_Lazy_glGetInvariantFloatvEXT@12 0042cd90 f   cinder:GLee.obj
 0001:0002bdc0       _GLee_Lazy_glGetLocalConstantBooleanvEXT@12 0042cdc0 f   cinder:GLee.obj
 0001:0002bdf0       _GLee_Lazy_glGetLocalConstantIntegervEXT@12 0042cdf0 f   cinder:GLee.obj
 0001:0002be20       _GLee_Lazy_glGetLocalConstantFloatvEXT@12 0042ce20 f   cinder:GLee.obj
 0001:0002be50       _GLee_Lazy_glVertexStream1sATI@8 0042ce50 f   cinder:GLee.obj
 0001:0002be80       _GLee_Lazy_glVertexStream1svATI@8 0042ce80 f   cinder:GLee.obj
 0001:0002beb0       _GLee_Lazy_glVertexStream1iATI@8 0042ceb0 f   cinder:GLee.obj
 0001:0002bee0       _GLee_Lazy_glVertexStream1ivATI@8 0042cee0 f   cinder:GLee.obj
 0001:0002bf10       _GLee_Lazy_glVertexStream1fATI@8 0042cf10 f   cinder:GLee.obj
 0001:0002bf40       _GLee_Lazy_glVertexStream1fvATI@8 0042cf40 f   cinder:GLee.obj
 0001:0002bf70       _GLee_Lazy_glVertexStream1dATI@12 0042cf70 f   cinder:GLee.obj
 0001:0002bfa0       _GLee_Lazy_glVertexStream1dvATI@8 0042cfa0 f   cinder:GLee.obj
 0001:0002bfd0       _GLee_Lazy_glVertexStream2sATI@12 0042cfd0 f   cinder:GLee.obj
 0001:0002c000       _GLee_Lazy_glVertexStream2svATI@8 0042d000 f   cinder:GLee.obj
 0001:0002c030       _GLee_Lazy_glVertexStream2iATI@12 0042d030 f   cinder:GLee.obj
 0001:0002c060       _GLee_Lazy_glVertexStream2ivATI@8 0042d060 f   cinder:GLee.obj
 0001:0002c090       _GLee_Lazy_glVertexStream2fATI@12 0042d090 f   cinder:GLee.obj
 0001:0002c0c0       _GLee_Lazy_glVertexStream2fvATI@8 0042d0c0 f   cinder:GLee.obj
 0001:0002c0f0       _GLee_Lazy_glVertexStream2dATI@20 0042d0f0 f   cinder:GLee.obj
 0001:0002c120       _GLee_Lazy_glVertexStream2dvATI@8 0042d120 f   cinder:GLee.obj
 0001:0002c150       _GLee_Lazy_glVertexStream3sATI@16 0042d150 f   cinder:GLee.obj
 0001:0002c180       _GLee_Lazy_glVertexStream3svATI@8 0042d180 f   cinder:GLee.obj
 0001:0002c1b0       _GLee_Lazy_glVertexStream3iATI@16 0042d1b0 f   cinder:GLee.obj
 0001:0002c1e0       _GLee_Lazy_glVertexStream3ivATI@8 0042d1e0 f   cinder:GLee.obj
 0001:0002c210       _GLee_Lazy_glVertexStream3fATI@16 0042d210 f   cinder:GLee.obj
 0001:0002c250       _GLee_Lazy_glVertexStream3fvATI@8 0042d250 f   cinder:GLee.obj
 0001:0002c280       _GLee_Lazy_glVertexStream3dATI@28 0042d280 f   cinder:GLee.obj
 0001:0002c2c0       _GLee_Lazy_glVertexStream3dvATI@8 0042d2c0 f   cinder:GLee.obj
 0001:0002c2f0       _GLee_Lazy_glVertexStream4sATI@20 0042d2f0 f   cinder:GLee.obj
 0001:0002c330       _GLee_Lazy_glVertexStream4svATI@8 0042d330 f   cinder:GLee.obj
 0001:0002c360       _GLee_Lazy_glVertexStream4iATI@20 0042d360 f   cinder:GLee.obj
 0001:0002c390       _GLee_Lazy_glVertexStream4ivATI@8 0042d390 f   cinder:GLee.obj
 0001:0002c3c0       _GLee_Lazy_glVertexStream4fATI@20 0042d3c0 f   cinder:GLee.obj
 0001:0002c400       _GLee_Lazy_glVertexStream4fvATI@8 0042d400 f   cinder:GLee.obj
 0001:0002c430       _GLee_Lazy_glVertexStream4dATI@36 0042d430 f   cinder:GLee.obj
 0001:0002c480       _GLee_Lazy_glVertexStream4dvATI@8 0042d480 f   cinder:GLee.obj
 0001:0002c4b0       _GLee_Lazy_glNormalStream3bATI@16 0042d4b0 f   cinder:GLee.obj
 0001:0002c4e0       _GLee_Lazy_glNormalStream3bvATI@8 0042d4e0 f   cinder:GLee.obj
 0001:0002c510       _GLee_Lazy_glNormalStream3sATI@16 0042d510 f   cinder:GLee.obj
 0001:0002c540       _GLee_Lazy_glNormalStream3svATI@8 0042d540 f   cinder:GLee.obj
 0001:0002c570       _GLee_Lazy_glNormalStream3iATI@16 0042d570 f   cinder:GLee.obj
 0001:0002c5a0       _GLee_Lazy_glNormalStream3ivATI@8 0042d5a0 f   cinder:GLee.obj
 0001:0002c5d0       _GLee_Lazy_glNormalStream3fATI@16 0042d5d0 f   cinder:GLee.obj
 0001:0002c610       _GLee_Lazy_glNormalStream3fvATI@8 0042d610 f   cinder:GLee.obj
 0001:0002c640       _GLee_Lazy_glNormalStream3dATI@28 0042d640 f   cinder:GLee.obj
 0001:0002c680       _GLee_Lazy_glNormalStream3dvATI@8 0042d680 f   cinder:GLee.obj
 0001:0002c6b0       _GLee_Lazy_glClientActiveVertexStreamATI@4 0042d6b0 f   cinder:GLee.obj
 0001:0002c6d0       _GLee_Lazy_glVertexBlendEnviATI@8 0042d6d0 f   cinder:GLee.obj
 0001:0002c700       _GLee_Lazy_glVertexBlendEnvfATI@8 0042d700 f   cinder:GLee.obj
 0001:0002c730       _GLee_Lazy_glElementPointerATI@8 0042d730 f   cinder:GLee.obj
 0001:0002c760       _GLee_Lazy_glDrawElementArrayATI@8 0042d760 f   cinder:GLee.obj
 0001:0002c790       _GLee_Lazy_glDrawRangeElementArrayATI@16 0042d790 f   cinder:GLee.obj
 0001:0002c7c0       _GLee_Lazy_glDrawMeshArraysSUN@16 0042d7c0 f   cinder:GLee.obj
 0001:0002c7f0       _GLee_Lazy_glGenOcclusionQueriesNV@8 0042d7f0 f   cinder:GLee.obj
 0001:0002c820       _GLee_Lazy_glDeleteOcclusionQueriesNV@8 0042d820 f   cinder:GLee.obj
 0001:0002c850       _GLee_Lazy_glIsOcclusionQueryNV@4 0042d850 f   cinder:GLee.obj
 0001:0002c880       _GLee_Lazy_glBeginOcclusionQueryNV@4 0042d880 f   cinder:GLee.obj
 0001:0002c8a0       _GLee_Lazy_glEndOcclusionQueryNV@0 0042d8a0 f   cinder:GLee.obj
 0001:0002c8c0       _GLee_Lazy_glGetOcclusionQueryivNV@12 0042d8c0 f   cinder:GLee.obj
 0001:0002c8f0       _GLee_Lazy_glGetOcclusionQueryuivNV@12 0042d8f0 f   cinder:GLee.obj
 0001:0002c920       _GLee_Lazy_glPointParameteriNV@8 0042d920 f   cinder:GLee.obj
 0001:0002c950       _GLee_Lazy_glPointParameterivNV@8 0042d950 f   cinder:GLee.obj
 0001:0002c980       _GLee_Lazy_glActiveStencilFaceEXT@4 0042d980 f   cinder:GLee.obj
 0001:0002c9a0       _GLee_Lazy_glElementPointerAPPLE@8 0042d9a0 f   cinder:GLee.obj
 0001:0002c9d0       _GLee_Lazy_glDrawElementArrayAPPLE@12 0042d9d0 f   cinder:GLee.obj
 0001:0002ca00       _GLee_Lazy_glDrawRangeElementArrayAPPLE@20 0042da00 f   cinder:GLee.obj
 0001:0002ca30       _GLee_Lazy_glMultiDrawElementArrayAPPLE@16 0042da30 f   cinder:GLee.obj
 0001:0002ca60       _GLee_Lazy_glMultiDrawRangeElementArrayAPPLE@24 0042da60 f   cinder:GLee.obj
 0001:0002caa0       _GLee_Lazy_glGenFencesAPPLE@8 0042daa0 f   cinder:GLee.obj
 0001:0002cad0       _GLee_Lazy_glDeleteFencesAPPLE@8 0042dad0 f   cinder:GLee.obj
 0001:0002cb00       _GLee_Lazy_glSetFenceAPPLE@4 0042db00 f   cinder:GLee.obj
 0001:0002cb20       _GLee_Lazy_glIsFenceAPPLE@4 0042db20 f   cinder:GLee.obj
 0001:0002cb50       _GLee_Lazy_glTestFenceAPPLE@4 0042db50 f   cinder:GLee.obj
 0001:0002cb80       _GLee_Lazy_glFinishFenceAPPLE@4 0042db80 f   cinder:GLee.obj
 0001:0002cba0       _GLee_Lazy_glTestObjectAPPLE@8 0042dba0 f   cinder:GLee.obj
 0001:0002cbd0       _GLee_Lazy_glFinishObjectAPPLE@8 0042dbd0 f   cinder:GLee.obj
 0001:0002cc00       _GLee_Lazy_glBindVertexArrayAPPLE@4 0042dc00 f   cinder:GLee.obj
 0001:0002cc20       _GLee_Lazy_glDeleteVertexArraysAPPLE@8 0042dc20 f   cinder:GLee.obj
 0001:0002cc50       _GLee_Lazy_glGenVertexArraysAPPLE@8 0042dc50 f   cinder:GLee.obj
 0001:0002cc80       _GLee_Lazy_glIsVertexArrayAPPLE@4 0042dc80 f   cinder:GLee.obj
 0001:0002ccb0       _GLee_Lazy_glVertexArrayRangeAPPLE@8 0042dcb0 f   cinder:GLee.obj
 0001:0002cce0       _GLee_Lazy_glFlushVertexArrayRangeAPPLE@8 0042dce0 f   cinder:GLee.obj
 0001:0002cd10       _GLee_Lazy_glVertexArrayParameteriAPPLE@8 0042dd10 f   cinder:GLee.obj
 0001:0002cd40       _GLee_Lazy_glDrawBuffersATI@8 0042dd40 f   cinder:GLee.obj
 0001:0002cd70       _GLee_Lazy_glProgramNamedParameter4fNV@28 0042dd70 f   cinder:GLee.obj
 0001:0002cdc0       _GLee_Lazy_glProgramNamedParameter4dNV@44 0042ddc0 f   cinder:GLee.obj
 0001:0002ce10       _GLee_Lazy_glProgramNamedParameter4fvNV@16 0042de10 f   cinder:GLee.obj
 0001:0002ce40       _GLee_Lazy_glProgramNamedParameter4dvNV@16 0042de40 f   cinder:GLee.obj
 0001:0002ce70       _GLee_Lazy_glGetProgramNamedParameterfvNV@16 0042de70 f   cinder:GLee.obj
 0001:0002cea0       _GLee_Lazy_glGetProgramNamedParameterdvNV@16 0042dea0 f   cinder:GLee.obj
 0001:0002ced0       _GLee_Lazy_glVertex2hNV@8  0042ded0 f   cinder:GLee.obj
 0001:0002cf00       _GLee_Lazy_glVertex2hvNV@4 0042df00 f   cinder:GLee.obj
 0001:0002cf20       _GLee_Lazy_glVertex3hNV@12 0042df20 f   cinder:GLee.obj
 0001:0002cf50       _GLee_Lazy_glVertex3hvNV@4 0042df50 f   cinder:GLee.obj
 0001:0002cf70       _GLee_Lazy_glVertex4hNV@16 0042df70 f   cinder:GLee.obj
 0001:0002cfa0       _GLee_Lazy_glVertex4hvNV@4 0042dfa0 f   cinder:GLee.obj
 0001:0002cfc0       _GLee_Lazy_glNormal3hNV@12 0042dfc0 f   cinder:GLee.obj
 0001:0002cff0       _GLee_Lazy_glNormal3hvNV@4 0042dff0 f   cinder:GLee.obj
 0001:0002d010       _GLee_Lazy_glColor3hNV@12  0042e010 f   cinder:GLee.obj
 0001:0002d040       _GLee_Lazy_glColor3hvNV@4  0042e040 f   cinder:GLee.obj
 0001:0002d060       _GLee_Lazy_glColor4hNV@16  0042e060 f   cinder:GLee.obj
 0001:0002d090       _GLee_Lazy_glColor4hvNV@4  0042e090 f   cinder:GLee.obj
 0001:0002d0b0       _GLee_Lazy_glTexCoord1hNV@4 0042e0b0 f   cinder:GLee.obj
 0001:0002d0d0       _GLee_Lazy_glTexCoord1hvNV@4 0042e0d0 f   cinder:GLee.obj
 0001:0002d0f0       _GLee_Lazy_glTexCoord2hNV@8 0042e0f0 f   cinder:GLee.obj
 0001:0002d120       _GLee_Lazy_glTexCoord2hvNV@4 0042e120 f   cinder:GLee.obj
 0001:0002d140       _GLee_Lazy_glTexCoord3hNV@12 0042e140 f   cinder:GLee.obj
 0001:0002d170       _GLee_Lazy_glTexCoord3hvNV@4 0042e170 f   cinder:GLee.obj
 0001:0002d190       _GLee_Lazy_glTexCoord4hNV@16 0042e190 f   cinder:GLee.obj
 0001:0002d1c0       _GLee_Lazy_glTexCoord4hvNV@4 0042e1c0 f   cinder:GLee.obj
 0001:0002d1e0       _GLee_Lazy_glMultiTexCoord1hNV@8 0042e1e0 f   cinder:GLee.obj
 0001:0002d210       _GLee_Lazy_glMultiTexCoord1hvNV@8 0042e210 f   cinder:GLee.obj
 0001:0002d240       _GLee_Lazy_glMultiTexCoord2hNV@12 0042e240 f   cinder:GLee.obj
 0001:0002d270       _GLee_Lazy_glMultiTexCoord2hvNV@8 0042e270 f   cinder:GLee.obj
 0001:0002d2a0       _GLee_Lazy_glMultiTexCoord3hNV@16 0042e2a0 f   cinder:GLee.obj
 0001:0002d2d0       _GLee_Lazy_glMultiTexCoord3hvNV@8 0042e2d0 f   cinder:GLee.obj
 0001:0002d300       _GLee_Lazy_glMultiTexCoord4hNV@20 0042e300 f   cinder:GLee.obj
 0001:0002d340       _GLee_Lazy_glMultiTexCoord4hvNV@8 0042e340 f   cinder:GLee.obj
 0001:0002d370       _GLee_Lazy_glFogCoordhNV@4 0042e370 f   cinder:GLee.obj
 0001:0002d390       _GLee_Lazy_glFogCoordhvNV@4 0042e390 f   cinder:GLee.obj
 0001:0002d3b0       _GLee_Lazy_glSecondaryColor3hNV@12 0042e3b0 f   cinder:GLee.obj
 0001:0002d3e0       _GLee_Lazy_glSecondaryColor3hvNV@4 0042e3e0 f   cinder:GLee.obj
 0001:0002d400       _GLee_Lazy_glVertexWeighthNV@4 0042e400 f   cinder:GLee.obj
 0001:0002d420       _GLee_Lazy_glVertexWeighthvNV@4 0042e420 f   cinder:GLee.obj
 0001:0002d440       _GLee_Lazy_glVertexAttrib1hNV@8 0042e440 f   cinder:GLee.obj
 0001:0002d470       _GLee_Lazy_glVertexAttrib1hvNV@8 0042e470 f   cinder:GLee.obj
 0001:0002d4a0       _GLee_Lazy_glVertexAttrib2hNV@12 0042e4a0 f   cinder:GLee.obj
 0001:0002d4d0       _GLee_Lazy_glVertexAttrib2hvNV@8 0042e4d0 f   cinder:GLee.obj
 0001:0002d500       _GLee_Lazy_glVertexAttrib3hNV@16 0042e500 f   cinder:GLee.obj
 0001:0002d530       _GLee_Lazy_glVertexAttrib3hvNV@8 0042e530 f   cinder:GLee.obj
 0001:0002d560       _GLee_Lazy_glVertexAttrib4hNV@20 0042e560 f   cinder:GLee.obj
 0001:0002d5a0       _GLee_Lazy_glVertexAttrib4hvNV@8 0042e5a0 f   cinder:GLee.obj
 0001:0002d5d0       _GLee_Lazy_glVertexAttribs1hvNV@12 0042e5d0 f   cinder:GLee.obj
 0001:0002d600       _GLee_Lazy_glVertexAttribs2hvNV@12 0042e600 f   cinder:GLee.obj
 0001:0002d630       _GLee_Lazy_glVertexAttribs3hvNV@12 0042e630 f   cinder:GLee.obj
 0001:0002d660       _GLee_Lazy_glVertexAttribs4hvNV@12 0042e660 f   cinder:GLee.obj
 0001:0002d690       _GLee_Lazy_glPixelDataRangeNV@12 0042e690 f   cinder:GLee.obj
 0001:0002d6c0       _GLee_Lazy_glFlushPixelDataRangeNV@4 0042e6c0 f   cinder:GLee.obj
 0001:0002d6e0       _GLee_Lazy_glPrimitiveRestartNV@0 0042e6e0 f   cinder:GLee.obj
 0001:0002d700       _GLee_Lazy_glPrimitiveRestartIndexNV@4 0042e700 f   cinder:GLee.obj
 0001:0002d720       _GLee_Lazy_glMapObjectBufferATI@4 0042e720 f   cinder:GLee.obj
 0001:0002d750       _GLee_Lazy_glUnmapObjectBufferATI@4 0042e750 f   cinder:GLee.obj
 0001:0002d770       _GLee_Lazy_glStencilOpSeparateATI@16 0042e770 f   cinder:GLee.obj
 0001:0002d7a0       _GLee_Lazy_glStencilFuncSeparateATI@16 0042e7a0 f   cinder:GLee.obj
 0001:0002d7d0       _GLee_Lazy_glVertexAttribArrayObjectATI@28 0042e7d0 f   cinder:GLee.obj
 0001:0002d810       _GLee_Lazy_glGetVertexAttribArrayObjectfvATI@12 0042e810 f   cinder:GLee.obj
 0001:0002d840       _GLee_Lazy_glGetVertexAttribArrayObjectivATI@12 0042e840 f   cinder:GLee.obj
 0001:0002d870       _GLee_Lazy_glDepthBoundsEXT@16 0042e870 f   cinder:GLee.obj
 0001:0002d8a0       _GLee_Lazy_glBlendEquationSeparateEXT@8 0042e8a0 f   cinder:GLee.obj
 0001:0002d8d0       _GLee_Lazy_glIsRenderbufferEXT@4 0042e8d0 f   cinder:GLee.obj
 0001:0002d900       _GLee_Lazy_glBindRenderbufferEXT@8 0042e900 f   cinder:GLee.obj
 0001:0002d930       _GLee_Lazy_glDeleteRenderbuffersEXT@8 0042e930 f   cinder:GLee.obj
 0001:0002d960       _GLee_Lazy_glGenRenderbuffersEXT@8 0042e960 f   cinder:GLee.obj
 0001:0002d990       _GLee_Lazy_glRenderbufferStorageEXT@16 0042e990 f   cinder:GLee.obj
 0001:0002d9c0       _GLee_Lazy_glGetRenderbufferParameterivEXT@12 0042e9c0 f   cinder:GLee.obj
 0001:0002d9f0       _GLee_Lazy_glIsFramebufferEXT@4 0042e9f0 f   cinder:GLee.obj
 0001:0002da20       _GLee_Lazy_glBindFramebufferEXT@8 0042ea20 f   cinder:GLee.obj
 0001:0002da50       _GLee_Lazy_glDeleteFramebuffersEXT@8 0042ea50 f   cinder:GLee.obj
 0001:0002da80       _GLee_Lazy_glGenFramebuffersEXT@8 0042ea80 f   cinder:GLee.obj
 0001:0002dab0       _GLee_Lazy_glCheckFramebufferStatusEXT@4 0042eab0 f   cinder:GLee.obj
 0001:0002dae0       _GLee_Lazy_glFramebufferTexture1DEXT@20 0042eae0 f   cinder:GLee.obj
 0001:0002db10       _GLee_Lazy_glFramebufferTexture2DEXT@20 0042eb10 f   cinder:GLee.obj
 0001:0002db40       _GLee_Lazy_glFramebufferTexture3DEXT@24 0042eb40 f   cinder:GLee.obj
 0001:0002db80       _GLee_Lazy_glFramebufferRenderbufferEXT@16 0042eb80 f   cinder:GLee.obj
 0001:0002dbb0       _GLee_Lazy_glGetFramebufferAttachmentParameterivEXT@16 0042ebb0 f   cinder:GLee.obj
 0001:0002dbe0       _GLee_Lazy_glGenerateMipmapEXT@4 0042ebe0 f   cinder:GLee.obj
 0001:0002dc00       _GLee_Lazy_glStringMarkerGREMEDY@8 0042ec00 f   cinder:GLee.obj
 0001:0002dc30       _GLee_Lazy_glStencilClearTagEXT@8 0042ec30 f   cinder:GLee.obj
 0001:0002dc60       _GLee_Lazy_glBlitFramebufferEXT@40 0042ec60 f   cinder:GLee.obj
 0001:0002dcb0       _GLee_Lazy_glRenderbufferStorageMultisampleEXT@20 0042ecb0 f   cinder:GLee.obj
 0001:0002dce0       _GLee_Lazy_glGetQueryObjecti64vEXT@12 0042ece0 f   cinder:GLee.obj
 0001:0002dd10       _GLee_Lazy_glGetQueryObjectui64vEXT@12 0042ed10 f   cinder:GLee.obj
 0001:0002dd40       _GLee_Lazy_glProgramEnvParameters4fvEXT@16 0042ed40 f   cinder:GLee.obj
 0001:0002dd70       _GLee_Lazy_glProgramLocalParameters4fvEXT@16 0042ed70 f   cinder:GLee.obj
 0001:0002dda0       _GLee_Lazy_glBufferParameteriAPPLE@12 0042eda0 f   cinder:GLee.obj
 0001:0002ddd0       _GLee_Lazy_glFlushMappedBufferRangeAPPLE@12 0042edd0 f   cinder:GLee.obj
 0001:0002de00       _GLee_Lazy_glGetUniformuivEXT@12 0042ee00 f   cinder:GLee.obj
 0001:0002de30       _GLee_Lazy_glBindFragDataLocationEXT@12 0042ee30 f   cinder:GLee.obj
 0001:0002de60       _GLee_Lazy_glGetFragDataLocationEXT@8 0042ee60 f   cinder:GLee.obj
 0001:0002de90       _GLee_Lazy_glUniform1uiEXT@8 0042ee90 f   cinder:GLee.obj
 0001:0002dec0       _GLee_Lazy_glUniform2uiEXT@12 0042eec0 f   cinder:GLee.obj
 0001:0002def0       _GLee_Lazy_glUniform3uiEXT@16 0042eef0 f   cinder:GLee.obj
 0001:0002df20       _GLee_Lazy_glUniform4uiEXT@20 0042ef20 f   cinder:GLee.obj
 0001:0002df50       _GLee_Lazy_glUniform1uivEXT@12 0042ef50 f   cinder:GLee.obj
 0001:0002df80       _GLee_Lazy_glUniform2uivEXT@12 0042ef80 f   cinder:GLee.obj
 0001:0002dfb0       _GLee_Lazy_glUniform3uivEXT@12 0042efb0 f   cinder:GLee.obj
 0001:0002dfe0       _GLee_Lazy_glUniform4uivEXT@12 0042efe0 f   cinder:GLee.obj
 0001:0002e010       _GLee_Lazy_glDrawArraysInstancedEXT@16 0042f010 f   cinder:GLee.obj
 0001:0002e040       _GLee_Lazy_glDrawElementsInstancedEXT@20 0042f040 f   cinder:GLee.obj
 0001:0002e070       _GLee_Lazy_glTexBufferEXT@12 0042f070 f   cinder:GLee.obj
 0001:0002e0a0       _GLee_Lazy_glDepthRangedNV@16 0042f0a0 f   cinder:GLee.obj
 0001:0002e0d0       _GLee_Lazy_glClearDepthdNV@8 0042f0d0 f   cinder:GLee.obj
 0001:0002e100       _GLee_Lazy_glDepthBoundsdNV@16 0042f100 f   cinder:GLee.obj
 0001:0002e130       _GLee_Lazy_glRenderbufferStorageMultisampleCoverageNV@24 0042f130 f   cinder:GLee.obj
 0001:0002e170       _GLee_Lazy_glProgramBufferParametersfvNV@20 0042f170 f   cinder:GLee.obj
 0001:0002e1a0       _GLee_Lazy_glProgramBufferParametersIivNV@20 0042f1a0 f   cinder:GLee.obj
 0001:0002e1d0       _GLee_Lazy_glProgramBufferParametersIuivNV@20 0042f1d0 f   cinder:GLee.obj
 0001:0002e200       _GLee_Lazy_glColorMaskIndexedEXT@20 0042f200 f   cinder:GLee.obj
 0001:0002e240       _GLee_Lazy_glGetBooleanIndexedvEXT@12 0042f240 f   cinder:GLee.obj
 0001:0002e270       _GLee_Lazy_glGetIntegerIndexedvEXT@12 0042f270 f   cinder:GLee.obj
 0001:0002e2a0       _GLee_Lazy_glEnableIndexedEXT@8 0042f2a0 f   cinder:GLee.obj
 0001:0002e2d0       _GLee_Lazy_glDisableIndexedEXT@8 0042f2d0 f   cinder:GLee.obj
 0001:0002e300       _GLee_Lazy_glIsEnabledIndexedEXT@8 0042f300 f   cinder:GLee.obj
 0001:0002e330       _GLee_Lazy_glBeginTransformFeedbackNV@4 0042f330 f   cinder:GLee.obj
 0001:0002e350       _GLee_Lazy_glEndTransformFeedbackNV@0 0042f350 f   cinder:GLee.obj
 0001:0002e370       _GLee_Lazy_glTransformFeedbackAttribsNV@12 0042f370 f   cinder:GLee.obj
 0001:0002e3a0       _GLee_Lazy_glBindBufferRangeNV@20 0042f3a0 f   cinder:GLee.obj
 0001:0002e3d0       _GLee_Lazy_glBindBufferOffsetNV@16 0042f3d0 f   cinder:GLee.obj
 0001:0002e400       _GLee_Lazy_glBindBufferBaseNV@12 0042f400 f   cinder:GLee.obj
 0001:0002e430       _GLee_Lazy_glTransformFeedbackVaryingsNV@16 0042f430 f   cinder:GLee.obj
 0001:0002e460       _GLee_Lazy_glActiveVaryingNV@8 0042f460 f   cinder:GLee.obj
 0001:0002e490       _GLee_Lazy_glGetVaryingLocationNV@8 0042f490 f   cinder:GLee.obj
 0001:0002e4c0       _GLee_Lazy_glGetActiveVaryingNV@28 0042f4c0 f   cinder:GLee.obj
 0001:0002e500       _GLee_Lazy_glGetTransformFeedbackVaryingNV@12 0042f500 f   cinder:GLee.obj
 0001:0002e530       _GLee_Lazy_glUniformBufferEXT@12 0042f530 f   cinder:GLee.obj
 0001:0002e560       _GLee_Lazy_glGetUniformBufferSizeEXT@8 0042f560 f   cinder:GLee.obj
 0001:0002e590       _GLee_Lazy_glGetUniformOffsetEXT@8 0042f590 f   cinder:GLee.obj
 0001:0002e5c0       _GLee_Lazy_glTexParameterIivEXT@12 0042f5c0 f   cinder:GLee.obj
 0001:0002e5f0       _GLee_Lazy_glTexParameterIuivEXT@12 0042f5f0 f   cinder:GLee.obj
 0001:0002e620       _GLee_Lazy_glGetTexParameterIivEXT@12 0042f620 f   cinder:GLee.obj
 0001:0002e650       _GLee_Lazy_glGetTexParameterIuivEXT@12 0042f650 f   cinder:GLee.obj
 0001:0002e680       _GLee_Lazy_glClearColorIiEXT@16 0042f680 f   cinder:GLee.obj
 0001:0002e6b0       _GLee_Lazy_glClearColorIuiEXT@16 0042f6b0 f   cinder:GLee.obj
 0001:0002e6e0       _GLee_Lazy_glFrameTerminatorGREMEDY@0 0042f6e0 f   cinder:GLee.obj
 0001:0002e700       _GLee_Lazy_glBeginConditionalRenderNV@8 0042f700 f   cinder:GLee.obj
 0001:0002e730       _GLee_Lazy_glEndConditionalRenderNV@0 0042f730 f   cinder:GLee.obj
 0001:0002e750       _GLee_Lazy_glBeginTransformFeedbackEXT@4 0042f750 f   cinder:GLee.obj
 0001:0002e770       _GLee_Lazy_glEndTransformFeedbackEXT@0 0042f770 f   cinder:GLee.obj
 0001:0002e790       _GLee_Lazy_glBindBufferRangeEXT@20 0042f790 f   cinder:GLee.obj
 0001:0002e7c0       _GLee_Lazy_glBindBufferOffsetEXT@16 0042f7c0 f   cinder:GLee.obj
 0001:0002e7f0       _GLee_Lazy_glBindBufferBaseEXT@12 0042f7f0 f   cinder:GLee.obj
 0001:0002e820       _GLee_Lazy_glTransformFeedbackVaryingsEXT@16 0042f820 f   cinder:GLee.obj
 0001:0002e850       _GLee_Lazy_glGetTransformFeedbackVaryingEXT@12 0042f850 f   cinder:GLee.obj
 0001:0002e880       _GLee_Lazy_glClientAttribDefaultEXT@4 0042f880 f   cinder:GLee.obj
 0001:0002e8a0       _GLee_Lazy_glPushClientAttribDefaultEXT@4 0042f8a0 f   cinder:GLee.obj
 0001:0002e8c0       _GLee_Lazy_glMatrixLoadfEXT@8 0042f8c0 f   cinder:GLee.obj
 0001:0002e8f0       _GLee_Lazy_glMatrixLoaddEXT@8 0042f8f0 f   cinder:GLee.obj
 0001:0002e920       _GLee_Lazy_glMatrixMultfEXT@8 0042f920 f   cinder:GLee.obj
 0001:0002e950       _GLee_Lazy_glMatrixMultdEXT@8 0042f950 f   cinder:GLee.obj
 0001:0002e980       _GLee_Lazy_glMatrixLoadIdentityEXT@4 0042f980 f   cinder:GLee.obj
 0001:0002e9a0       _GLee_Lazy_glMatrixRotatefEXT@20 0042f9a0 f   cinder:GLee.obj
 0001:0002e9e0       _GLee_Lazy_glMatrixRotatedEXT@36 0042f9e0 f   cinder:GLee.obj
 0001:0002ea30       _GLee_Lazy_glMatrixScalefEXT@16 0042fa30 f   cinder:GLee.obj
 0001:0002ea70       _GLee_Lazy_glMatrixScaledEXT@28 0042fa70 f   cinder:GLee.obj
 0001:0002eab0       _GLee_Lazy_glMatrixTranslatefEXT@16 0042fab0 f   cinder:GLee.obj
 0001:0002eaf0       _GLee_Lazy_glMatrixTranslatedEXT@28 0042faf0 f   cinder:GLee.obj
 0001:0002eb30       _GLee_Lazy_glMatrixFrustumEXT@52 0042fb30 f   cinder:GLee.obj
 0001:0002eb90       _GLee_Lazy_glMatrixOrthoEXT@52 0042fb90 f   cinder:GLee.obj
 0001:0002ebf0       _GLee_Lazy_glMatrixPopEXT@4 0042fbf0 f   cinder:GLee.obj
 0001:0002ec10       _GLee_Lazy_glMatrixPushEXT@4 0042fc10 f   cinder:GLee.obj
 0001:0002ec30       _GLee_Lazy_glMatrixLoadTransposefEXT@8 0042fc30 f   cinder:GLee.obj
 0001:0002ec60       _GLee_Lazy_glMatrixLoadTransposedEXT@8 0042fc60 f   cinder:GLee.obj
 0001:0002ec90       _GLee_Lazy_glMatrixMultTransposefEXT@8 0042fc90 f   cinder:GLee.obj
 0001:0002ecc0       _GLee_Lazy_glMatrixMultTransposedEXT@8 0042fcc0 f   cinder:GLee.obj
 0001:0002ecf0       _GLee_Lazy_glTextureParameterfEXT@16 0042fcf0 f   cinder:GLee.obj
 0001:0002ed20       _GLee_Lazy_glTextureParameterfvEXT@16 0042fd20 f   cinder:GLee.obj
 0001:0002ed50       _GLee_Lazy_glTextureParameteriEXT@16 0042fd50 f   cinder:GLee.obj
 0001:0002ed80       _GLee_Lazy_glTextureParameterivEXT@16 0042fd80 f   cinder:GLee.obj
 0001:0002edb0       _GLee_Lazy_glTextureImage1DEXT@36 0042fdb0 f   cinder:GLee.obj
 0001:0002edf0       _GLee_Lazy_glTextureImage2DEXT@40 0042fdf0 f   cinder:GLee.obj
 0001:0002ee40       _GLee_Lazy_glTextureSubImage1DEXT@32 0042fe40 f   cinder:GLee.obj
 0001:0002ee80       _GLee_Lazy_glTextureSubImage2DEXT@40 0042fe80 f   cinder:GLee.obj
 0001:0002eed0       _GLee_Lazy_glCopyTextureImage1DEXT@32 0042fed0 f   cinder:GLee.obj
 0001:0002ef10       _GLee_Lazy_glCopyTextureImage2DEXT@36 0042ff10 f   cinder:GLee.obj
 0001:0002ef50       _GLee_Lazy_glCopyTextureSubImage1DEXT@28 0042ff50 f   cinder:GLee.obj
 0001:0002ef90       _GLee_Lazy_glCopyTextureSubImage2DEXT@36 0042ff90 f   cinder:GLee.obj
 0001:0002efd0       _GLee_Lazy_glGetTextureImageEXT@24 0042ffd0 f   cinder:GLee.obj
 0001:0002f010       _GLee_Lazy_glGetTextureParameterfvEXT@16 00430010 f   cinder:GLee.obj
 0001:0002f040       _GLee_Lazy_glGetTextureParameterivEXT@16 00430040 f   cinder:GLee.obj
 0001:0002f070       _GLee_Lazy_glGetTextureLevelParameterfvEXT@20 00430070 f   cinder:GLee.obj
 0001:0002f0a0       _GLee_Lazy_glGetTextureLevelParameterivEXT@20 004300a0 f   cinder:GLee.obj
 0001:0002f0d0       _GLee_Lazy_glTextureImage3DEXT@44 004300d0 f   cinder:GLee.obj
 0001:0002f120       _GLee_Lazy_glTextureSubImage3DEXT@48 00430120 f   cinder:GLee.obj
 0001:0002f170       _GLee_Lazy_glCopyTextureSubImage3DEXT@40 00430170 f   cinder:GLee.obj
 0001:0002f1c0       _GLee_Lazy_glMultiTexParameterfEXT@16 004301c0 f   cinder:GLee.obj
 0001:0002f1f0       _GLee_Lazy_glMultiTexParameterfvEXT@16 004301f0 f   cinder:GLee.obj
 0001:0002f220       _GLee_Lazy_glMultiTexParameteriEXT@16 00430220 f   cinder:GLee.obj
 0001:0002f250       _GLee_Lazy_glMultiTexParameterivEXT@16 00430250 f   cinder:GLee.obj
 0001:0002f280       _GLee_Lazy_glMultiTexImage1DEXT@36 00430280 f   cinder:GLee.obj
 0001:0002f2c0       _GLee_Lazy_glMultiTexImage2DEXT@40 004302c0 f   cinder:GLee.obj
 0001:0002f310       _GLee_Lazy_glMultiTexSubImage1DEXT@32 00430310 f   cinder:GLee.obj
 0001:0002f350       _GLee_Lazy_glMultiTexSubImage2DEXT@40 00430350 f   cinder:GLee.obj
 0001:0002f3a0       _GLee_Lazy_glCopyMultiTexImage1DEXT@32 004303a0 f   cinder:GLee.obj
 0001:0002f3e0       _GLee_Lazy_glCopyMultiTexImage2DEXT@36 004303e0 f   cinder:GLee.obj
 0001:0002f420       _GLee_Lazy_glCopyMultiTexSubImage1DEXT@28 00430420 f   cinder:GLee.obj
 0001:0002f460       _GLee_Lazy_glCopyMultiTexSubImage2DEXT@36 00430460 f   cinder:GLee.obj
 0001:0002f4a0       _GLee_Lazy_glGetMultiTexImageEXT@24 004304a0 f   cinder:GLee.obj
 0001:0002f4e0       _GLee_Lazy_glGetMultiTexParameterfvEXT@16 004304e0 f   cinder:GLee.obj
 0001:0002f510       _GLee_Lazy_glGetMultiTexParameterivEXT@16 00430510 f   cinder:GLee.obj
 0001:0002f540       _GLee_Lazy_glGetMultiTexLevelParameterfvEXT@20 00430540 f   cinder:GLee.obj
 0001:0002f570       _GLee_Lazy_glGetMultiTexLevelParameterivEXT@20 00430570 f   cinder:GLee.obj
 0001:0002f5a0       _GLee_Lazy_glMultiTexImage3DEXT@44 004305a0 f   cinder:GLee.obj
 0001:0002f5f0       _GLee_Lazy_glMultiTexSubImage3DEXT@48 004305f0 f   cinder:GLee.obj
 0001:0002f640       _GLee_Lazy_glCopyMultiTexSubImage3DEXT@40 00430640 f   cinder:GLee.obj
 0001:0002f690       _GLee_Lazy_glBindMultiTextureEXT@12 00430690 f   cinder:GLee.obj
 0001:0002f6c0       _GLee_Lazy_glEnableClientStateIndexedEXT@8 004306c0 f   cinder:GLee.obj
 0001:0002f6f0       _GLee_Lazy_glDisableClientStateIndexedEXT@8 004306f0 f   cinder:GLee.obj
 0001:0002f720       _GLee_Lazy_glMultiTexCoordPointerEXT@20 00430720 f   cinder:GLee.obj
 0001:0002f750       _GLee_Lazy_glMultiTexEnvfEXT@16 00430750 f   cinder:GLee.obj
 0001:0002f780       _GLee_Lazy_glMultiTexEnvfvEXT@16 00430780 f   cinder:GLee.obj
 0001:0002f7b0       _GLee_Lazy_glMultiTexEnviEXT@16 004307b0 f   cinder:GLee.obj
 0001:0002f7e0       _GLee_Lazy_glMultiTexEnvivEXT@16 004307e0 f   cinder:GLee.obj
 0001:0002f810       _GLee_Lazy_glMultiTexGendEXT@20 00430810 f   cinder:GLee.obj
 0001:0002f840       _GLee_Lazy_glMultiTexGendvEXT@16 00430840 f   cinder:GLee.obj
 0001:0002f870       _GLee_Lazy_glMultiTexGenfEXT@16 00430870 f   cinder:GLee.obj
 0001:0002f8a0       _GLee_Lazy_glMultiTexGenfvEXT@16 004308a0 f   cinder:GLee.obj
 0001:0002f8d0       _GLee_Lazy_glMultiTexGeniEXT@16 004308d0 f   cinder:GLee.obj
 0001:0002f900       _GLee_Lazy_glMultiTexGenivEXT@16 00430900 f   cinder:GLee.obj
 0001:0002f930       _GLee_Lazy_glGetMultiTexEnvfvEXT@16 00430930 f   cinder:GLee.obj
 0001:0002f960       _GLee_Lazy_glGetMultiTexEnvivEXT@16 00430960 f   cinder:GLee.obj
 0001:0002f990       _GLee_Lazy_glGetMultiTexGendvEXT@16 00430990 f   cinder:GLee.obj
 0001:0002f9c0       _GLee_Lazy_glGetMultiTexGenfvEXT@16 004309c0 f   cinder:GLee.obj
 0001:0002f9f0       _GLee_Lazy_glGetMultiTexGenivEXT@16 004309f0 f   cinder:GLee.obj
 0001:0002fa20       _GLee_Lazy_glGetFloatIndexedvEXT@12 00430a20 f   cinder:GLee.obj
 0001:0002fa50       _GLee_Lazy_glGetDoubleIndexedvEXT@12 00430a50 f   cinder:GLee.obj
 0001:0002fa80       _GLee_Lazy_glGetPointerIndexedvEXT@12 00430a80 f   cinder:GLee.obj
 0001:0002fab0       _GLee_Lazy_glCompressedTextureImage3DEXT@40 00430ab0 f   cinder:GLee.obj
 0001:0002fb00       _GLee_Lazy_glCompressedTextureImage2DEXT@36 00430b00 f   cinder:GLee.obj
 0001:0002fb40       _GLee_Lazy_glCompressedTextureImage1DEXT@32 00430b40 f   cinder:GLee.obj
 0001:0002fb80       _GLee_Lazy_glCompressedTextureSubImage3DEXT@48 00430b80 f   cinder:GLee.obj
 0001:0002fbd0       _GLee_Lazy_glCompressedTextureSubImage2DEXT@40 00430bd0 f   cinder:GLee.obj
 0001:0002fc20       _GLee_Lazy_glCompressedTextureSubImage1DEXT@32 00430c20 f   cinder:GLee.obj
 0001:0002fc60       _GLee_Lazy_glGetCompressedTextureImageEXT@16 00430c60 f   cinder:GLee.obj
 0001:0002fc90       _GLee_Lazy_glCompressedMultiTexImage3DEXT@40 00430c90 f   cinder:GLee.obj
 0001:0002fce0       _GLee_Lazy_glCompressedMultiTexImage2DEXT@36 00430ce0 f   cinder:GLee.obj
 0001:0002fd20       _GLee_Lazy_glCompressedMultiTexImage1DEXT@32 00430d20 f   cinder:GLee.obj
 0001:0002fd60       _GLee_Lazy_glCompressedMultiTexSubImage3DEXT@48 00430d60 f   cinder:GLee.obj
 0001:0002fdb0       _GLee_Lazy_glCompressedMultiTexSubImage2DEXT@40 00430db0 f   cinder:GLee.obj
 0001:0002fe00       _GLee_Lazy_glCompressedMultiTexSubImage1DEXT@32 00430e00 f   cinder:GLee.obj
 0001:0002fe40       _GLee_Lazy_glGetCompressedMultiTexImageEXT@16 00430e40 f   cinder:GLee.obj
 0001:0002fe70       _GLee_Lazy_glNamedProgramStringEXT@20 00430e70 f   cinder:GLee.obj
 0001:0002fea0       _GLee_Lazy_glNamedProgramLocalParameter4dEXT@44 00430ea0 f   cinder:GLee.obj
 0001:0002fef0       _GLee_Lazy_glNamedProgramLocalParameter4dvEXT@16 00430ef0 f   cinder:GLee.obj
 0001:0002ff20       _GLee_Lazy_glNamedProgramLocalParameter4fEXT@28 00430f20 f   cinder:GLee.obj
 0001:0002ff70       _GLee_Lazy_glNamedProgramLocalParameter4fvEXT@16 00430f70 f   cinder:GLee.obj
 0001:0002ffa0       _GLee_Lazy_glGetNamedProgramLocalParameterdvEXT@16 00430fa0 f   cinder:GLee.obj
 0001:0002ffd0       _GLee_Lazy_glGetNamedProgramLocalParameterfvEXT@16 00430fd0 f   cinder:GLee.obj
 0001:00030000       _GLee_Lazy_glGetNamedProgramivEXT@16 00431000 f   cinder:GLee.obj
 0001:00030030       _GLee_Lazy_glGetNamedProgramStringEXT@16 00431030 f   cinder:GLee.obj
 0001:00030060       _GLee_Lazy_glNamedProgramLocalParameters4fvEXT@20 00431060 f   cinder:GLee.obj
 0001:00030090       _GLee_Lazy_glNamedProgramLocalParameterI4iEXT@28 00431090 f   cinder:GLee.obj
 0001:000300d0       _GLee_Lazy_glNamedProgramLocalParameterI4ivEXT@16 004310d0 f   cinder:GLee.obj
 0001:00030100       _GLee_Lazy_glNamedProgramLocalParametersI4ivEXT@20 00431100 f   cinder:GLee.obj
 0001:00030130       _GLee_Lazy_glNamedProgramLocalParameterI4uiEXT@28 00431130 f   cinder:GLee.obj
 0001:00030170       _GLee_Lazy_glNamedProgramLocalParameterI4uivEXT@16 00431170 f   cinder:GLee.obj
 0001:000301a0       _GLee_Lazy_glNamedProgramLocalParametersI4uivEXT@20 004311a0 f   cinder:GLee.obj
 0001:000301d0       _GLee_Lazy_glGetNamedProgramLocalParameterIivEXT@16 004311d0 f   cinder:GLee.obj
 0001:00030200       _GLee_Lazy_glGetNamedProgramLocalParameterIuivEXT@16 00431200 f   cinder:GLee.obj
 0001:00030230       _GLee_Lazy_glTextureParameterIivEXT@16 00431230 f   cinder:GLee.obj
 0001:00030260       _GLee_Lazy_glTextureParameterIuivEXT@16 00431260 f   cinder:GLee.obj
 0001:00030290       _GLee_Lazy_glGetTextureParameterIivEXT@16 00431290 f   cinder:GLee.obj
 0001:000302c0       _GLee_Lazy_glGetTextureParameterIuivEXT@16 004312c0 f   cinder:GLee.obj
 0001:000302f0       _GLee_Lazy_glMultiTexParameterIivEXT@16 004312f0 f   cinder:GLee.obj
 0001:00030320       _GLee_Lazy_glMultiTexParameterIuivEXT@16 00431320 f   cinder:GLee.obj
 0001:00030350       _GLee_Lazy_glGetMultiTexParameterIivEXT@16 00431350 f   cinder:GLee.obj
 0001:00030380       _GLee_Lazy_glGetMultiTexParameterIuivEXT@16 00431380 f   cinder:GLee.obj
 0001:000303b0       _GLee_Lazy_glProgramUniform1fEXT@12 004313b0 f   cinder:GLee.obj
 0001:000303e0       _GLee_Lazy_glProgramUniform2fEXT@16 004313e0 f   cinder:GLee.obj
 0001:00030410       _GLee_Lazy_glProgramUniform3fEXT@20 00431410 f   cinder:GLee.obj
 0001:00030450       _GLee_Lazy_glProgramUniform4fEXT@24 00431450 f   cinder:GLee.obj
 0001:00030490       _GLee_Lazy_glProgramUniform1iEXT@12 00431490 f   cinder:GLee.obj
 0001:000304c0       _GLee_Lazy_glProgramUniform2iEXT@16 004314c0 f   cinder:GLee.obj
 0001:000304f0       _GLee_Lazy_glProgramUniform3iEXT@20 004314f0 f   cinder:GLee.obj
 0001:00030520       _GLee_Lazy_glProgramUniform4iEXT@24 00431520 f   cinder:GLee.obj
 0001:00030560       _GLee_Lazy_glProgramUniform1fvEXT@16 00431560 f   cinder:GLee.obj
 0001:00030590       _GLee_Lazy_glProgramUniform2fvEXT@16 00431590 f   cinder:GLee.obj
 0001:000305c0       _GLee_Lazy_glProgramUniform3fvEXT@16 004315c0 f   cinder:GLee.obj
 0001:000305f0       _GLee_Lazy_glProgramUniform4fvEXT@16 004315f0 f   cinder:GLee.obj
 0001:00030620       _GLee_Lazy_glProgramUniform1ivEXT@16 00431620 f   cinder:GLee.obj
 0001:00030650       _GLee_Lazy_glProgramUniform2ivEXT@16 00431650 f   cinder:GLee.obj
 0001:00030680       _GLee_Lazy_glProgramUniform3ivEXT@16 00431680 f   cinder:GLee.obj
 0001:000306b0       _GLee_Lazy_glProgramUniform4ivEXT@16 004316b0 f   cinder:GLee.obj
 0001:000306e0       _GLee_Lazy_glProgramUniformMatrix2fvEXT@20 004316e0 f   cinder:GLee.obj
 0001:00030710       _GLee_Lazy_glProgramUniformMatrix3fvEXT@20 00431710 f   cinder:GLee.obj
 0001:00030740       _GLee_Lazy_glProgramUniformMatrix4fvEXT@20 00431740 f   cinder:GLee.obj
 0001:00030770       _GLee_Lazy_glProgramUniformMatrix2x3fvEXT@20 00431770 f   cinder:GLee.obj
 0001:000307a0       _GLee_Lazy_glProgramUniformMatrix3x2fvEXT@20 004317a0 f   cinder:GLee.obj
 0001:000307d0       _GLee_Lazy_glProgramUniformMatrix2x4fvEXT@20 004317d0 f   cinder:GLee.obj
 0001:00030800       _GLee_Lazy_glProgramUniformMatrix4x2fvEXT@20 00431800 f   cinder:GLee.obj
 0001:00030830       _GLee_Lazy_glProgramUniformMatrix3x4fvEXT@20 00431830 f   cinder:GLee.obj
 0001:00030860       _GLee_Lazy_glProgramUniformMatrix4x3fvEXT@20 00431860 f   cinder:GLee.obj
 0001:00030890       _GLee_Lazy_glProgramUniform1uiEXT@12 00431890 f   cinder:GLee.obj
 0001:000308c0       _GLee_Lazy_glProgramUniform2uiEXT@16 004318c0 f   cinder:GLee.obj
 0001:000308f0       _GLee_Lazy_glProgramUniform3uiEXT@20 004318f0 f   cinder:GLee.obj
 0001:00030920       _GLee_Lazy_glProgramUniform4uiEXT@24 00431920 f   cinder:GLee.obj
 0001:00030960       _GLee_Lazy_glProgramUniform1uivEXT@16 00431960 f   cinder:GLee.obj
 0001:00030990       _GLee_Lazy_glProgramUniform2uivEXT@16 00431990 f   cinder:GLee.obj
 0001:000309c0       _GLee_Lazy_glProgramUniform3uivEXT@16 004319c0 f   cinder:GLee.obj
 0001:000309f0       _GLee_Lazy_glProgramUniform4uivEXT@16 004319f0 f   cinder:GLee.obj
 0001:00030a20       _GLee_Lazy_glNamedBufferDataEXT@16 00431a20 f   cinder:GLee.obj
 0001:00030a50       _GLee_Lazy_glNamedBufferSubDataEXT@16 00431a50 f   cinder:GLee.obj
 0001:00030a80       _GLee_Lazy_glMapNamedBufferEXT@8 00431a80 f   cinder:GLee.obj
 0001:00030ab0       _GLee_Lazy_glUnmapNamedBufferEXT@4 00431ab0 f   cinder:GLee.obj
 0001:00030ae0       _GLee_Lazy_glGetNamedBufferParameterivEXT@12 00431ae0 f   cinder:GLee.obj
 0001:00030b10       _GLee_Lazy_glGetNamedBufferPointervEXT@12 00431b10 f   cinder:GLee.obj
 0001:00030b40       _GLee_Lazy_glGetNamedBufferSubDataEXT@16 00431b40 f   cinder:GLee.obj
 0001:00030b70       _GLee_Lazy_glTextureBufferEXT@16 00431b70 f   cinder:GLee.obj
 0001:00030ba0       _GLee_Lazy_glMultiTexBufferEXT@16 00431ba0 f   cinder:GLee.obj
 0001:00030bd0       _GLee_Lazy_glNamedRenderbufferStorageEXT@16 00431bd0 f   cinder:GLee.obj
 0001:00030c00       _GLee_Lazy_glGetNamedRenderbufferParameterivEXT@12 00431c00 f   cinder:GLee.obj
 0001:00030c30       _GLee_Lazy_glCheckNamedFramebufferStatusEXT@8 00431c30 f   cinder:GLee.obj
 0001:00030c60       _GLee_Lazy_glNamedFramebufferTexture1DEXT@20 00431c60 f   cinder:GLee.obj
 0001:00030c90       _GLee_Lazy_glNamedFramebufferTexture2DEXT@20 00431c90 f   cinder:GLee.obj
 0001:00030cc0       _GLee_Lazy_glNamedFramebufferTexture3DEXT@24 00431cc0 f   cinder:GLee.obj
 0001:00030d00       _GLee_Lazy_glNamedFramebufferRenderbufferEXT@16 00431d00 f   cinder:GLee.obj
 0001:00030d30       _GLee_Lazy_glGetNamedFramebufferAttachmentParameterivEXT@16 00431d30 f   cinder:GLee.obj
 0001:00030d60       _GLee_Lazy_glGenerateTextureMipmapEXT@8 00431d60 f   cinder:GLee.obj
 0001:00030d90       _GLee_Lazy_glGenerateMultiTexMipmapEXT@8 00431d90 f   cinder:GLee.obj
 0001:00030dc0       _GLee_Lazy_glFramebufferDrawBufferEXT@8 00431dc0 f   cinder:GLee.obj
 0001:00030df0       _GLee_Lazy_glFramebufferDrawBuffersEXT@12 00431df0 f   cinder:GLee.obj
 0001:00030e20       _GLee_Lazy_glFramebufferReadBufferEXT@8 00431e20 f   cinder:GLee.obj
 0001:00030e50       _GLee_Lazy_glGetFramebufferParameterivEXT@12 00431e50 f   cinder:GLee.obj
 0001:00030e80       _GLee_Lazy_glNamedRenderbufferStorageMultisampleEXT@20 00431e80 f   cinder:GLee.obj
 0001:00030eb0       _GLee_Lazy_glNamedRenderbufferStorageMultisampleCoverageEXT@24 00431eb0 f   cinder:GLee.obj
 0001:00030ef0       _GLee_Lazy_glNamedFramebufferTextureEXT@16 00431ef0 f   cinder:GLee.obj
 0001:00030f20       _GLee_Lazy_glNamedFramebufferTextureLayerEXT@20 00431f20 f   cinder:GLee.obj
 0001:00030f50       _GLee_Lazy_glNamedFramebufferTextureFaceEXT@20 00431f50 f   cinder:GLee.obj
 0001:00030f80       _GLee_Lazy_glTextureRenderbufferEXT@12 00431f80 f   cinder:GLee.obj
 0001:00030fb0       _GLee_Lazy_glMultiTexRenderbufferEXT@12 00431fb0 f   cinder:GLee.obj
 0001:00030fe0       _GLee_Lazy_glGetMultisamplefvNV@12 00431fe0 f   cinder:GLee.obj
 0001:00031010       _GLee_Lazy_glSampleMaskIndexedNV@8 00432010 f   cinder:GLee.obj
 0001:00031040       _GLee_Lazy_glTexRenderbufferNV@8 00432040 f   cinder:GLee.obj
 0001:00031070       _GLee_Lazy_glBindTransformFeedbackNV@8 00432070 f   cinder:GLee.obj
 0001:000310a0       _GLee_Lazy_glDeleteTransformFeedbacksNV@8 004320a0 f   cinder:GLee.obj
 0001:000310d0       _GLee_Lazy_glGenTransformFeedbacksNV@8 004320d0 f   cinder:GLee.obj
 0001:00031100       _GLee_Lazy_glIsTransformFeedbackNV@4 00432100 f   cinder:GLee.obj
 0001:00031130       _GLee_Lazy_glPauseTransformFeedbackNV@0 00432130 f   cinder:GLee.obj
 0001:00031150       _GLee_Lazy_glResumeTransformFeedbackNV@0 00432150 f   cinder:GLee.obj
 0001:00031170       _GLee_Lazy_glDrawTransformFeedbackNV@8 00432170 f   cinder:GLee.obj
 0001:000311a0       _GLee_Lazy_glBlendFuncSeparateINGR@16 004321a0 f   cinder:GLee.obj
 0001:000311d0       _GLee_Lazy_glIglooInterfaceSGIX@8 004321d0 f   cinder:GLee.obj
 0001:00031200       _GLee_Lazy_glFragmentLightModeliEXT@8 00432200 f   cinder:GLee.obj
 0001:00031230       _GLee_Lazy_glFragmentLightModelfEXT@8 00432230 f   cinder:GLee.obj
 0001:00031260       _GLee_Lazy_glFragmentLightModelivEXT@8 00432260 f   cinder:GLee.obj
 0001:00031290       _GLee_Lazy_glFragmentLightModelfvEXT@8 00432290 f   cinder:GLee.obj
 0001:000312c0       _GLee_Lazy_glFragmentLightiEXT@12 004322c0 f   cinder:GLee.obj
 0001:000312f0       _GLee_Lazy_glFragmentLightfEXT@12 004322f0 f   cinder:GLee.obj
 0001:00031320       _GLee_Lazy_glFragmentLightivEXT@12 00432320 f   cinder:GLee.obj
 0001:00031350       _GLee_Lazy_glFragmentLightfvEXT@12 00432350 f   cinder:GLee.obj
 0001:00031380       _GLee_Lazy_glGetFragmentLightivEXT@12 00432380 f   cinder:GLee.obj
 0001:000313b0       _GLee_Lazy_glGetFragmentLightfvEXT@12 004323b0 f   cinder:GLee.obj
 0001:000313e0       _GLee_Lazy_glFragmentMaterialfEXT@12 004323e0 f   cinder:GLee.obj
 0001:00031410       _GLee_Lazy_glFragmentMaterialiEXT@12 00432410 f   cinder:GLee.obj
 0001:00031440       _GLee_Lazy_glFragmentMaterialfvEXT@12 00432440 f   cinder:GLee.obj
 0001:00031470       _GLee_Lazy_glFragmentMaterialivEXT@12 00432470 f   cinder:GLee.obj
 0001:000314a0       _GLee_Lazy_glFragmentColorMaterialEXT@8 004324a0 f   cinder:GLee.obj
 0001:000314d0       _GLee_Lazy_glGetFragmentMaterialfvEXT@12 004324d0 f   cinder:GLee.obj
 0001:00031500       _GLee_Lazy_glGetFragmentMaterialivEXT@12 00432500 f   cinder:GLee.obj
 0001:00031530       _GLee_Lazy_glLightEnviEXT@8 00432530 f   cinder:GLee.obj
 0001:00031560       _GLee_Lazy_glProgramParameteriEXT@12 00432560 f   cinder:GLee.obj
 0001:00031590       _GLee_Lazy_glFramebufferTextureEXT@16 00432590 f   cinder:GLee.obj
 0001:000315c0       _GLee_Lazy_glFramebufferTextureLayerEXT@20 004325c0 f   cinder:GLee.obj
 0001:000315f0       _GLee_Lazy_glFramebufferTextureFaceEXT@20 004325f0 f   cinder:GLee.obj
 0001:00031620       _GLee_Lazy_glBeginSceneEXT@0 00432620 f   cinder:GLee.obj
 0001:00031640       _GLee_Lazy_glEndSceneEXT@0 00432640 f   cinder:GLee.obj
 0001:00031660       _GLee_Lazy_glProgramLocalParameterI4iNV@24 00432660 f   cinder:GLee.obj
 0001:000316a0       _GLee_Lazy_glProgramLocalParameterI4ivNV@12 004326a0 f   cinder:GLee.obj
 0001:000316d0       _GLee_Lazy_glProgramLocalParametersI4ivNV@16 004326d0 f   cinder:GLee.obj
 0001:00031700       _GLee_Lazy_glProgramLocalParameterI4uiNV@24 00432700 f   cinder:GLee.obj
 0001:00031740       _GLee_Lazy_glProgramLocalParameterI4uivNV@12 00432740 f   cinder:GLee.obj
 0001:00031770       _GLee_Lazy_glProgramLocalParametersI4uivNV@16 00432770 f   cinder:GLee.obj
 0001:000317a0       _GLee_Lazy_glProgramEnvParameterI4iNV@24 004327a0 f   cinder:GLee.obj
 0001:000317e0       _GLee_Lazy_glProgramEnvParameterI4ivNV@12 004327e0 f   cinder:GLee.obj
 0001:00031810       _GLee_Lazy_glProgramEnvParametersI4ivNV@16 00432810 f   cinder:GLee.obj
 0001:00031840       _GLee_Lazy_glProgramEnvParameterI4uiNV@24 00432840 f   cinder:GLee.obj
 0001:00031880       _GLee_Lazy_glProgramEnvParameterI4uivNV@12 00432880 f   cinder:GLee.obj
 0001:000318b0       _GLee_Lazy_glProgramEnvParametersI4uivNV@16 004328b0 f   cinder:GLee.obj
 0001:000318e0       _GLee_Lazy_glGetProgramLocalParameterIivNV@12 004328e0 f   cinder:GLee.obj
 0001:00031910       _GLee_Lazy_glGetProgramLocalParameterIuivNV@12 00432910 f   cinder:GLee.obj
 0001:00031940       _GLee_Lazy_glGetProgramEnvParameterIivNV@12 00432940 f   cinder:GLee.obj
 0001:00031970       _GLee_Lazy_glGetProgramEnvParameterIuivNV@12 00432970 f   cinder:GLee.obj
 0001:000319a0       _GLee_Lazy_glVertexAttribI2iEXT@12 004329a0 f   cinder:GLee.obj
 0001:000319d0       _GLee_Lazy_glVertexAttribI3iEXT@16 004329d0 f   cinder:GLee.obj
 0001:00031a00       _GLee_Lazy_glVertexAttribI4iEXT@20 00432a00 f   cinder:GLee.obj
 0001:00031a30       _GLee_Lazy_glVertexAttribI1uiEXT@8 00432a30 f   cinder:GLee.obj
 0001:00031a60       _GLee_Lazy_glVertexAttribI2uiEXT@12 00432a60 f   cinder:GLee.obj
 0001:00031a90       _GLee_Lazy_glVertexAttribI3uiEXT@16 00432a90 f   cinder:GLee.obj
 0001:00031ac0       _GLee_Lazy_glVertexAttribI4uiEXT@20 00432ac0 f   cinder:GLee.obj
 0001:00031af0       _GLee_Lazy_glVertexAttribI1ivEXT@8 00432af0 f   cinder:GLee.obj
 0001:00031b20       _GLee_Lazy_glVertexAttribI2ivEXT@8 00432b20 f   cinder:GLee.obj
 0001:00031b50       _GLee_Lazy_glVertexAttribI3ivEXT@8 00432b50 f   cinder:GLee.obj
 0001:00031b80       _GLee_Lazy_glVertexAttribI4ivEXT@8 00432b80 f   cinder:GLee.obj
 0001:00031bb0       _GLee_Lazy_glVertexAttribI1uivEXT@8 00432bb0 f   cinder:GLee.obj
 0001:00031be0       _GLee_Lazy_glVertexAttribI2uivEXT@8 00432be0 f   cinder:GLee.obj
 0001:00031c10       _GLee_Lazy_glVertexAttribI3uivEXT@8 00432c10 f   cinder:GLee.obj
 0001:00031c40       _GLee_Lazy_glVertexAttribI4uivEXT@8 00432c40 f   cinder:GLee.obj
 0001:00031c70       _GLee_Lazy_glVertexAttribI4bvEXT@8 00432c70 f   cinder:GLee.obj
 0001:00031ca0       _GLee_Lazy_glVertexAttribI4svEXT@8 00432ca0 f   cinder:GLee.obj
 0001:00031cd0       _GLee_Lazy_glVertexAttribI4ubvEXT@8 00432cd0 f   cinder:GLee.obj
 0001:00031d00       _GLee_Lazy_glVertexAttribI4usvEXT@8 00432d00 f   cinder:GLee.obj
 0001:00031d30       _GLee_Lazy_glVertexAttribIPointerEXT@20 00432d30 f   cinder:GLee.obj
 0001:00031d60       _GLee_Lazy_glGetVertexAttribIivEXT@12 00432d60 f   cinder:GLee.obj
 0001:00031d90       _GLee_Lazy_glGetVertexAttribIuivEXT@12 00432d90 f   cinder:GLee.obj
 0001:00031dc0       _GLee_Lazy_glDepthRangefOES@8 00432dc0 f   cinder:GLee.obj
 0001:00031df0       _GLee_Lazy_glFrustumfOES@24 00432df0 f   cinder:GLee.obj
 0001:00031e40       _GLee_Lazy_glOrthofOES@24  00432e40 f   cinder:GLee.obj
 0001:00031e90       _GLee_Lazy_glClipPlanefOES@8 00432e90 f   cinder:GLee.obj
 0001:00031ec0       _GLee_Lazy_glGetClipPlanefOES@8 00432ec0 f   cinder:GLee.obj
 0001:00031ef0       _GLee_Lazy_glClearDepthfOES@8 00432ef0 f   cinder:GLee.obj
 0001:00031f20       _GLee_Lazy_wglCreateBufferRegionARB@12 00432f20 f   cinder:GLee.obj
 0001:00031f50       _GLee_Lazy_wglDeleteBufferRegionARB@4 00432f50 f   cinder:GLee.obj
 0001:00031f70       _GLee_Lazy_wglSaveBufferRegionARB@20 00432f70 f   cinder:GLee.obj
 0001:00031fb0       _GLee_Lazy_wglRestoreBufferRegionARB@28 00432fb0 f   cinder:GLee.obj
 0001:00031ff0       _GLee_Lazy_wglGetExtensionsStringARB@4 00432ff0 f   cinder:GLee.obj
 0001:00032020       _GLee_Lazy_wglGetPixelFormatAttribivARB@24 00433020 f   cinder:GLee.obj
 0001:00032060       _GLee_Lazy_wglGetPixelFormatAttribfvARB@24 00433060 f   cinder:GLee.obj
 0001:000320a0       _GLee_Lazy_wglChoosePixelFormatARB@24 004330a0 f   cinder:GLee.obj
 0001:000320e0       _GLee_Lazy_wglMakeContextCurrentARB@12 004330e0 f   cinder:GLee.obj
 0001:00032110       _GLee_Lazy_wglGetCurrentReadDCARB@0 00433110 f   cinder:GLee.obj
 0001:00032130       _GLee_Lazy_wglCreatePbufferARB@20 00433130 f   cinder:GLee.obj
 0001:00032170       _GLee_Lazy_wglGetPbufferDCARB@4 00433170 f   cinder:GLee.obj
 0001:000321a0       _GLee_Lazy_wglReleasePbufferDCARB@8 004331a0 f   cinder:GLee.obj
 0001:000321d0       _GLee_Lazy_wglDestroyPbufferARB@4 004331d0 f   cinder:GLee.obj
 0001:00032200       _GLee_Lazy_wglQueryPbufferARB@12 00433200 f   cinder:GLee.obj
 0001:00032230       _GLee_Lazy_wglBindTexImageARB@8 00433230 f   cinder:GLee.obj
 0001:00032260       _GLee_Lazy_wglReleaseTexImageARB@8 00433260 f   cinder:GLee.obj
 0001:00032290       _GLee_Lazy_wglSetPbufferAttribARB@8 00433290 f   cinder:GLee.obj
 0001:000322c0       _GLee_Lazy_wglCreateContextAttribsARB@12 004332c0 f   cinder:GLee.obj
 0001:000322f0       _GLee_Lazy_wglMakeContextCurrentEXT@12 004332f0 f   cinder:GLee.obj
 0001:00032320       _GLee_Lazy_wglGetCurrentReadDCEXT@0 00433320 f   cinder:GLee.obj
 0001:00032340       _GLee_Lazy_wglGetPixelFormatAttribivEXT@24 00433340 f   cinder:GLee.obj
 0001:00032380       _GLee_Lazy_wglGetPixelFormatAttribfvEXT@24 00433380 f   cinder:GLee.obj
 0001:000323c0       _GLee_Lazy_wglChoosePixelFormatEXT@24 004333c0 f   cinder:GLee.obj
 0001:00032400       _GLee_Lazy_wglCreatePbufferEXT@20 00433400 f   cinder:GLee.obj
 0001:00032440       _GLee_Lazy_wglGetPbufferDCEXT@4 00433440 f   cinder:GLee.obj
 0001:00032470       _GLee_Lazy_wglReleasePbufferDCEXT@8 00433470 f   cinder:GLee.obj
 0001:000324a0       _GLee_Lazy_wglDestroyPbufferEXT@4 004334a0 f   cinder:GLee.obj
 0001:000324d0       _GLee_Lazy_wglQueryPbufferEXT@12 004334d0 f   cinder:GLee.obj
 0001:00032500       _GLee_Lazy_wglGetDigitalVideoParametersI3D@12 00433500 f   cinder:GLee.obj
 0001:00032530       _GLee_Lazy_wglSetDigitalVideoParametersI3D@12 00433530 f   cinder:GLee.obj
 0001:00032560       _GLee_Lazy_wglGetGammaTableParametersI3D@12 00433560 f   cinder:GLee.obj
 0001:00032590       _GLee_Lazy_wglSetGammaTableParametersI3D@12 00433590 f   cinder:GLee.obj
 0001:000325c0       _GLee_Lazy_wglGetGammaTableI3D@20 004335c0 f   cinder:GLee.obj
 0001:00032600       _GLee_Lazy_wglSetGammaTableI3D@20 00433600 f   cinder:GLee.obj
 0001:00032640       _GLee_Lazy_wglEnableGenlockI3D@4 00433640 f   cinder:GLee.obj
 0001:00032670       _GLee_Lazy_wglDisableGenlockI3D@4 00433670 f   cinder:GLee.obj
 0001:000326a0       _GLee_Lazy_wglIsEnabledGenlockI3D@8 004336a0 f   cinder:GLee.obj
 0001:000326d0       _GLee_Lazy_wglGenlockSourceI3D@8 004336d0 f   cinder:GLee.obj
 0001:00032700       _GLee_Lazy_wglGetGenlockSourceI3D@8 00433700 f   cinder:GLee.obj
 0001:00032730       _GLee_Lazy_wglGenlockSourceEdgeI3D@8 00433730 f   cinder:GLee.obj
 0001:00032760       _GLee_Lazy_wglGetGenlockSourceEdgeI3D@8 00433760 f   cinder:GLee.obj
 0001:00032790       _GLee_Lazy_wglGenlockSampleRateI3D@8 00433790 f   cinder:GLee.obj
 0001:000327c0       _GLee_Lazy_wglGetGenlockSampleRateI3D@8 004337c0 f   cinder:GLee.obj
 0001:000327f0       _GLee_Lazy_wglGenlockSourceDelayI3D@8 004337f0 f   cinder:GLee.obj
 0001:00032820       _GLee_Lazy_wglGetGenlockSourceDelayI3D@8 00433820 f   cinder:GLee.obj
 0001:00032850       _GLee_Lazy_wglQueryGenlockMaxSourceDelayI3D@12 00433850 f   cinder:GLee.obj
 0001:00032880       _GLee_Lazy_wglCreateImageBufferI3D@12 00433880 f   cinder:GLee.obj
 0001:000328b0       _GLee_Lazy_wglDestroyImageBufferI3D@8 004338b0 f   cinder:GLee.obj
 0001:000328e0       _GLee_Lazy_wglAssociateImageBufferEventsI3D@20 004338e0 f   cinder:GLee.obj
 0001:00032920       _GLee_Lazy_wglReleaseImageBufferEventsI3D@12 00433920 f   cinder:GLee.obj
 0001:00032950       _GLee_Lazy_wglEnableFrameLockI3D@0 00433950 f   cinder:GLee.obj
 0001:00032970       _GLee_Lazy_wglDisableFrameLockI3D@0 00433970 f   cinder:GLee.obj
 0001:00032990       _GLee_Lazy_wglIsEnabledFrameLockI3D@4 00433990 f   cinder:GLee.obj
 0001:000329c0       _GLee_Lazy_wglQueryFrameLockMasterI3D@4 004339c0 f   cinder:GLee.obj
 0001:000329f0       _GLee_Lazy_wglEnumerateVideoDevicesNV@8 004339f0 f   cinder:GLee.obj
 0001:00032a20       _GLee_Lazy_wglBindVideoDeviceNV@16 00433a20 f   cinder:GLee.obj
 0001:00032a50       _GLee_Lazy_wglQueryCurrentContextNV@8 00433a50 f   cinder:GLee.obj
 0001:00032a80       _GLee_Lazy_wglJoinSwapGroupNV@8 00433a80 f   cinder:GLee.obj
 0001:00032ab0       _GLee_Lazy_wglBindSwapBarrierNV@8 00433ab0 f   cinder:GLee.obj
 0001:00032ae0       _GLee_Lazy_wglQuerySwapGroupNV@12 00433ae0 f   cinder:GLee.obj
 0001:00032b10       _GLee_Lazy_wglQueryMaxSwapGroupsNV@12 00433b10 f   cinder:GLee.obj
 0001:00032b40       _GLee_Lazy_wglQueryFrameCountNV@8 00433b40 f   cinder:GLee.obj
 0001:00032b70       _GLee_Lazy_wglResetFrameCountNV@4 00433b70 f   cinder:GLee.obj
 0001:00032ba0       _GLee_Lazy_wglEnumGpusNV@8 00433ba0 f   cinder:GLee.obj
 0001:00032bd0       _GLee_Lazy_wglEnumGpuDevicesNV@12 00433bd0 f   cinder:GLee.obj
 0001:00032c00       _GLee_Lazy_wglCreateAffinityDCNV@4 00433c00 f   cinder:GLee.obj
 0001:00032c30       _GLee_Lazy_wglEnumGpusFromAffinityDCNV@12 00433c30 f   cinder:GLee.obj
 0001:00032c60       _GLee_Lazy_wglDeleteDCNV@4 00433c60 f   cinder:GLee.obj
 0001:00032c90       _GLee_Lazy_wglCreateDisplayColorTableEXT@4 00433c90 f   cinder:GLee.obj
 0001:00032cc0       _GLee_Lazy_wglLoadDisplayColorTableEXT@8 00433cc0 f   cinder:GLee.obj
 0001:00032cf0       _GLee_Lazy_wglBindDisplayColorTableEXT@4 00433cf0 f   cinder:GLee.obj
 0001:00032d20       _GLee_Lazy_wglDestroyDisplayColorTableEXT@4 00433d20 f   cinder:GLee.obj
 0001:00032d40       _GLee_Lazy_wglGetExtensionsStringEXT@0 00433d40 f   cinder:GLee.obj
 0001:00032d60       _GLee_Lazy_wglSwapIntervalEXT@4 00433d60 f   cinder:GLee.obj
 0001:00032d90       _GLee_Lazy_wglGetSwapIntervalEXT@0 00433d90 f   cinder:GLee.obj
 0001:00032db0       _GLee_Lazy_wglAllocateMemoryNV@16 00433db0 f   cinder:GLee.obj
 0001:00032df0       _GLee_Lazy_wglFreeMemoryNV@4 00433df0 f   cinder:GLee.obj
 0001:00032e10       _GLee_Lazy_wglGetSyncValuesOML@16 00433e10 f   cinder:GLee.obj
 0001:00032e40       _GLee_Lazy_wglGetMscRateOML@12 00433e40 f   cinder:GLee.obj
 0001:00032e70       _GLee_Lazy_wglSwapBuffersMscOML@28 00433e70 f   cinder:GLee.obj
 0001:00032eb0       _GLee_Lazy_wglSwapLayerBuffersMscOML@32 00433eb0 f   cinder:GLee.obj
 0001:00032ef0       _GLee_Lazy_wglWaitForMscOML@40 00433ef0 f   cinder:GLee.obj
 0001:00032f40       _GLee_Lazy_wglWaitForSbcOML@24 00433f40 f   cinder:GLee.obj
 0001:00032f80       _GLee_Lazy_wglGetFrameUsageI3D@4 00433f80 f   cinder:GLee.obj
 0001:00032fb0       _GLee_Lazy_wglBeginFrameTrackingI3D@0 00433fb0 f   cinder:GLee.obj
 0001:00032fd0       _GLee_Lazy_wglEndFrameTrackingI3D@0 00433fd0 f   cinder:GLee.obj
 0001:00032ff0       _GLee_Lazy_wglQueryFrameTrackingI3D@12 00433ff0 f   cinder:GLee.obj
 0001:00033020       _GLee_Lazy_wglGetVideoDeviceNV@12 00434020 f   cinder:GLee.obj
 0001:00033050       _GLee_Lazy_wglReleaseVideoDeviceNV@4 00434050 f   cinder:GLee.obj
 0001:00033080       _GLee_Lazy_wglBindVideoImageNV@12 00434080 f   cinder:GLee.obj
 0001:000330b0       _GLee_Lazy_wglReleaseVideoImageNV@8 004340b0 f   cinder:GLee.obj
 0001:000330e0       _GLee_Lazy_wglSendPbufferToVideoNV@16 004340e0 f   cinder:GLee.obj
 0001:00033110       _GLee_Lazy_wglGetVideoInfoNV@12 00434110 f   cinder:GLee.obj
 0001:00033140       ??_GImageIoException@cinder@@UAEPAXI@Z 00434140 f i cinder:Texture.obj
 0001:00033140       ??_EImageIoExceptionIllegalChannelOrder@cinder@@UAEPAXI@Z 00434140 f i cinder:ImageIo.obj
 0001:00033140       ??_GImageIoExceptionIllegalChannelOrder@cinder@@UAEPAXI@Z 00434140 f i cinder:ImageIo.obj
 0001:00033140       ??_GImageIoExceptionFailedLoad@cinder@@UAEPAXI@Z 00434140 f i cinder:ImageIo.obj
 0001:00033140       ??_GImageIoExceptionIllegalColorModel@cinder@@UAEPAXI@Z 00434140 f i cinder:Texture.obj
 0001:00033140       ??_EImageIoException@cinder@@UAEPAXI@Z 00434140 f i cinder:Texture.obj
 0001:00033140       ??_EImageIoExceptionIllegalDataType@cinder@@UAEPAXI@Z 00434140 f i cinder:ImageIo.obj
 0001:00033140       ??_GImageIoExceptionIllegalDataType@cinder@@UAEPAXI@Z 00434140 f i cinder:ImageIo.obj
 0001:00033140       ??_EImageIoExceptionIllegalColorModel@cinder@@UAEPAXI@Z 00434140 f i cinder:Texture.obj
 0001:00033140       ??_EImageIoExceptionFailedLoad@cinder@@UAEPAXI@Z 00434140 f i cinder:ImageIo.obj
 0001:00033140       ??_EException@cinder@@UAEPAXI@Z 00434140 f i cinder:App.obj
 0001:00033140       ??_GException@cinder@@UAEPAXI@Z 00434140 f i cinder:App.obj
 0001:00033170       ??$checked_array_delete@E@boost@@YAXPAE@Z 00434170 f i cinder:Texture.obj
 0001:00033180       ?_Get_deleter@?$_Ref_count_del@EP6AXPAE@Z@tr1@std@@UBEPAXABVtype_info@@@Z 00434180 f i cinder:Texture.obj
 0001:000331b0       ??1ImageIoExceptionIllegalDataType@cinder@@UAE@XZ 004341b0 f i cinder:ImageIo.obj
 0001:000331b0       ??1ImageIoExceptionIllegalColorModel@cinder@@UAE@XZ 004341b0 f i cinder:Texture.obj
 0001:000331b0       ??1ImageIoExceptionFailedLoad@cinder@@UAE@XZ 004341b0 f i cinder:ImageIo.obj
 0001:000331b0       ??1ImageIoExceptionIllegalChannelOrder@cinder@@UAE@XZ 004341b0 f i cinder:ImageIo.obj
 0001:000331c0       ??$_Resetp@EP6AXPAE@Z@?$shared_ptr@E@tr1@std@@AAEXPAEP6AX0@Z@Z 004341c0 f i cinder:Texture.obj
 0001:00033260       ??$?0EP6AXPAE@Z@?$shared_ptr@E@tr1@std@@QAE@PAEP6AX0@Z@Z 00434260 f i cinder:Texture.obj
 0001:00033290       ??0ImageIoException@cinder@@QAE@ABV01@@Z 00434290 f i cinder:Texture.obj
 0001:000332b0       ??0ImageIoExceptionIllegalColorModel@cinder@@QAE@ABV01@@Z 004342b0 f i cinder:Texture.obj
 0001:000332d0       ?calcProjection@CameraPersp@cinder@@MAEXXZ 004342d0 f   cinder:Camera.obj
 0001:000334e0       ??D?$Quaternion@M@cinder@@QAE?BV?$Vec3@M@1@ABV21@@Z 004344e0 f i cinder:Camera.obj
 0001:000335a0       ?set@?$Quaternion@M@cinder@@QAEXABV?$Matrix44@M@2@@Z 004345a0 f i cinder:Camera.obj
 0001:00033700       ??0Camera@cinder@@QAE@XZ   00434700 f i cinder:Camera.obj
 0001:000338e0       ?calcModelView@Camera@cinder@@IAEXXZ 004348e0 f   cinder:Camera.obj
 0001:00033ac0       ?do_always_noconv@codecvt_base@std@@MBE_NXZ 00434ac0 f i libboost_filesystem-vc100-mt-s-1_48:path.obj
 0001:00033ac0       ?getsWindowsPaintEvents@AppBasic@app@cinder@@UAE_NXZ 00434ac0 f i CCforLiveVisualsApp.obj
 0001:00033ac0       ?receivesEvents@App@app@cinder@@UBE_NXZ 00434ac0 f i CCforLiveVisualsApp.obj
 0001:00033ac0       ?isPersp@CameraPersp@cinder@@UBE_NXZ 00434ac0 f i cinder:Camera.obj
 0001:00033ad0       ?normalized@?$Quaternion@M@cinder@@QBE?AV12@XZ 00434ad0 f i cinder:Camera.obj
 0001:00033b80       ?alignZAxisWithTarget@?$Matrix44@M@cinder@@SA?AV12@V?$Vec3@M@2@0@Z 00434b80 f i cinder:Camera.obj
 0001:00033ee0       ?lookAt@Camera@cinder@@QAEXABV?$Vec3@M@2@0@Z 00434ee0 f   cinder:Camera.obj
 0001:00034010       ??0CameraPersp@cinder@@QAE@HHM@Z 00435010 f   cinder:Camera.obj
 0001:00034110       ?assign@?$basic_string@_WU?$char_traits@_W@std@@V?$allocator@_W@2@@std@@QAEAAV12@$$QAV12@@Z 00435110 f i cinder:Text.obj
 0001:00034190       ??$_Allocate@G@std@@YAPAGIPAG@Z 00435190 f i cinder:Font.obj
 0001:000341f0       ?destroy@sp_counted_base@detail@boost@@UAEXXZ 004351f0 f i cinder:CinderMsw.obj
 0001:00034200       ??_G?$sp_counted_impl_pd@PAUdelete_data@?$thread_specific_ptr@UComInitializer@msw@cinder@@@boost@@U?$do_heap_delete@Udelete_data@?$thread_specific_ptr@UComInitializer@msw@cinder@@@boost@@@detail@3@@detail@boost@@UAEPAXI@Z 00435200 f i cinder:CinderMsw.obj
 0001:00034200       ??_Esp_counted_base@detail@boost@@UAEPAXI@Z 00435200 f i cinder:CinderMsw.obj
 0001:00034200       ??_Gsp_counted_base@detail@boost@@UAEPAXI@Z 00435200 f i cinder:CinderMsw.obj
 0001:00034200       ??_E?$sp_counted_impl_pd@PAUdelete_data@?$thread_specific_ptr@UComInitializer@msw@cinder@@@boost@@U?$do_heap_delete@Udelete_data@?$thread_specific_ptr@UComInitializer@msw@cinder@@@boost@@@detail@3@@detail@boost@@UAEPAXI@Z 00435200 f i cinder:CinderMsw.obj
 0001:00034230       _IsEqualGUID               00435230 f i cinder:CinderMsw.obj
 0001:000342a0       ?free_raw_heap_memory@detail@boost@@YAXPAX@Z 004352a0 f i cinder:CinderMsw.obj
 0001:000342c0       ?ComDelete@msw@cinder@@YAXPAX@Z 004352c0 f   cinder:CinderMsw.obj
 0001:000342e0       ?QueryInterface@ComOStream@msw@cinder@@UAGJABU_GUID@@PAPAX@Z 004352e0 f   cinder:CinderMsw.obj
 0001:00034340       ?AddRef@ComOStream@msw@cinder@@UAGKXZ 00435340 f   cinder:CinderMsw.obj
 0001:00034360       ?get_deleter@?$sp_counted_impl_pd@PAUdelete_data@?$thread_specific_ptr@UComInitializer@msw@cinder@@@boost@@U?$do_heap_delete@Udelete_data@?$thread_specific_ptr@UComInitializer@msw@cinder@@@boost@@@detail@3@@detail@boost@@UAEPAXABVtype_info@@@Z 00435360 f i cinder:CinderMsw.obj
 0001:00034390       ??1?$shared_ptr@Utss_cleanup_function@detail@boost@@@boost@@QAE@XZ 00435390 f i cinder:CinderMsw.obj
 0001:000343d0       ??_Gtss_cleanup_function@detail@boost@@UAEPAXI@Z 004353d0 f i cinder:CinderMsw.obj
 0001:000343d0       ??_Etss_cleanup_function@detail@boost@@UAEPAXI@Z 004353d0 f i cinder:CinderMsw.obj
 0001:000343d0       ??_Gdelete_data@?$thread_specific_ptr@UComInitializer@msw@cinder@@@boost@@UAEPAXI@Z 004353d0 f i cinder:CinderMsw.obj
 0001:000343d0       ??_Edelete_data@?$thread_specific_ptr@UComInitializer@msw@cinder@@@boost@@UAEPAXI@Z 004353d0 f i cinder:CinderMsw.obj
 0001:00034400       ??Rdelete_data@?$thread_specific_ptr@UComInitializer@msw@cinder@@@boost@@UAEXPAX@Z 00435400 f i cinder:CinderMsw.obj
 0001:00034420       ??R?$do_heap_delete@Udelete_data@?$thread_specific_ptr@UComInitializer@msw@cinder@@@boost@@@detail@boost@@QBEXPAUdelete_data@?$thread_specific_ptr@UComInitializer@msw@cinder@@@2@@Z 00435420 f i cinder:CinderMsw.obj
 0001:00034450       ?dispose@?$sp_counted_impl_pd@PAUdelete_data@?$thread_specific_ptr@UComInitializer@msw@cinder@@@boost@@U?$do_heap_delete@Udelete_data@?$thread_specific_ptr@UComInitializer@msw@cinder@@@boost@@@detail@3@@detail@boost@@UAEXXZ 00435450 f i cinder:CinderMsw.obj
 0001:00034470       ?Write@ComOStream@msw@cinder@@UAGJPBXKPAK@Z 00435470 f   cinder:CinderMsw.obj
 0001:000344a0       ?Seek@ComOStream@msw@cinder@@UAGJT_LARGE_INTEGER@@KPAT_ULARGE_INTEGER@@@Z 004354a0 f   cinder:CinderMsw.obj
 0001:00034540       ??1?$thread_specific_ptr@UComInitializer@msw@cinder@@@boost@@QAE@XZ 00435540 f i cinder:CinderMsw.obj
 0001:000345e0       ??0?$error_info_injector@Vbad_alloc@std@@@exception_detail@boost@@QAE@ABU012@@Z 004355e0 f i cinder:CinderMsw.obj
 0001:00034680       ??_E?$error_info_injector@Vbad_alloc@std@@@exception_detail@boost@@WM@AEPAXI@Z 00435680 f i cinder:CinderMsw.obj
 0001:00034690       ??1?$error_info_injector@Vbad_alloc@std@@@exception_detail@boost@@UAE@XZ 00435690 f i cinder:CinderMsw.obj
 0001:000346d0       ??1?$clone_impl@U?$error_info_injector@Vbad_alloc@std@@@exception_detail@boost@@@exception_detail@boost@@UAE@XZ 004356d0 f i cinder:CinderMsw.obj
 0001:00034720       ??$?0PAUdelete_data@?$thread_specific_ptr@UComInitializer@msw@cinder@@@boost@@U?$do_heap_delete@Udelete_data@?$thread_specific_ptr@UComInitializer@msw@cinder@@@boost@@@detail@2@@shared_count@detail@boost@@QAE@PAUdelete_data@?$thread_specific_ptr@UComInitializer@msw@cinder@@@2@U?$do_heap_delete@Udelete_data@?$thread_specific_ptr@UComInitializer@msw@cinder@@@boost@@@12@@Z 00435720 f i cinder:CinderMsw.obj
 0001:000347b0       ?initializeCom@msw@cinder@@YAXK@Z 004357b0 f   cinder:CinderMsw.obj
 0001:00034840       ??_E?$error_info_injector@Vbad_alloc@std@@@exception_detail@boost@@UAEPAXI@Z 00435840 f i cinder:CinderMsw.obj
 0001:00034840       ??_G?$error_info_injector@Vbad_alloc@std@@@exception_detail@boost@@UAEPAXI@Z 00435840 f i cinder:CinderMsw.obj
 0001:000348a0       ??$enable_error_info@Vbad_alloc@std@@@boost@@YA?AU?$error_info_injector@Vbad_alloc@std@@@exception_detail@0@ABVbad_alloc@std@@@Z 004358a0 f i cinder:CinderMsw.obj
 0001:000348f0       ??_E?$clone_impl@U?$error_info_injector@Vbad_alloc@std@@@exception_detail@boost@@@exception_detail@boost@@WCA@AEPAXI@Z 004358f0 f i cinder:CinderMsw.obj
 0001:00034900       ??_E?$clone_impl@U?$error_info_injector@Vbad_alloc@std@@@exception_detail@boost@@@exception_detail@boost@@WM@AEPAXI@Z 00435900 f i cinder:CinderMsw.obj
 0001:00034910       ??0?$clone_impl@U?$error_info_injector@Vbad_alloc@std@@@exception_detail@boost@@@exception_detail@boost@@QAE@ABV012@@Z 00435910 f i cinder:CinderMsw.obj
 0001:00034950       ??_G?$clone_impl@U?$error_info_injector@Vbad_alloc@std@@@exception_detail@boost@@@exception_detail@boost@@UAEPAXI@Z 00435950 f i cinder:CinderMsw.obj
 0001:00034950       ??_E?$clone_impl@U?$error_info_injector@Vbad_alloc@std@@@exception_detail@boost@@@exception_detail@boost@@UAEPAXI@Z 00435950 f i cinder:CinderMsw.obj
 0001:000349b0       ?clone@?$clone_impl@U?$error_info_injector@Vbad_alloc@std@@@exception_detail@boost@@@exception_detail@boost@@EBEPBVclone_base@23@XZ 004359b0 f i cinder:CinderMsw.obj
 0001:00034a30       ?rethrow@?$clone_impl@U?$error_info_injector@Vbad_alloc@std@@@exception_detail@boost@@@exception_detail@boost@@EBEXXZ 00435a30 f i cinder:CinderMsw.obj
 0001:00034a70       ??$enable_current_exception@U?$error_info_injector@Vbad_alloc@std@@@exception_detail@boost@@@boost@@YA?AV?$clone_impl@U?$error_info_injector@Vbad_alloc@std@@@exception_detail@boost@@@exception_detail@0@ABU?$error_info_injector@Vbad_alloc@std@@@20@@Z 00435a70 f i cinder:CinderMsw.obj
 0001:00034b00       ?Release@ComOStream@msw@cinder@@UAGKXZ 00435b00 f   cinder:CinderMsw.obj
 0001:00034b60       ??$throw_exception@Vbad_alloc@std@@@boost@@YAXABVbad_alloc@std@@@Z 00435b60 f i cinder:CinderMsw.obj
 0001:00034bc0       ??$heap_new@Udelete_data@?$thread_specific_ptr@UComInitializer@msw@cinder@@@boost@@@detail@boost@@YAPAUdelete_data@?$thread_specific_ptr@UComInitializer@msw@cinder@@@1@XZ 00435bc0 f i cinder:CinderMsw.obj
 0001:00034c40       ??0ImageIo@cinder@@IAE@XZ  00435c40 f   cinder:ImageIo.obj
 0001:00034c60       ?channelOrderHasAlpha@ImageIo@cinder@@SA_NW4ChannelOrder@12@@Z 00435c60 f   cinder:ImageIo.obj
 0001:00034c80       ?dataTypeBytes@ImageIo@cinder@@SAEW4DataType@12@@Z 00435c80 f   cinder:ImageIo.obj
 0001:00034cb0       ?isPremultiplied@ImageSource@cinder@@QBE_NXZ 00435cb0 f   cinder:ImageIo.obj
 0001:00034cc0       ?_Min@?$_Tree_val@V?$_Tmap_traits@V?$basic_string@DU?$char_traits@D@std@@V?$allocator@D@2@@std@@V?$multimap@HP6A?AV?$shared_ptr@VImageSource@cinder@@@tr1@std@@V?$shared_ptr@VDataSource@cinder@@@23@VOptions@ImageSource@cinder@@@ZU?$less@H@3@V?$allocator@U?$pair@$$CBHP6A?AV?$shared_ptr@VImageSource@cinder@@@tr1@std@@V?$shared_ptr@VDataSource@cinder@@@23@VOptions@ImageSource@cinder@@@Z@std@@@3@@2@U?$less@V?$basic_string@DU?$char_traits@D@std@@V?$allocator@D@2@@std@@@2@V?$allocator@U?$pair@$$CBV?$basic_string@DU?$char_traits@D@std@@V?$allocator@D@2@@std@@V?$multimap@HP6A?AV?$shared_ptr@VImageSource@cinder@@@tr1@std@@V?$shared_ptr@VDataSource@cinder@@@23@VOptions@ImageSource@cinder@@@ZU?$less@H@3@V?$allocator@U?$pair@$$CBHP6A?AV?$shared_ptr@VImageSource@cinder@@@tr1@std@@V?$shared_ptr@VDataSource@cinder@@@23@VOptions@ImageSource@cinder@@@Z@std@@@3@@2@@std@@@2@$0A@@std@@@std@@SAPAU_Node@?$_Tree_nod@V?$_Tmap_traits@V?$basic_string@DU?$char_traits@D@std@@V?$allocator@D@2@@std@@V?$multimap@HP6A?AV?$shared_ptr@VImageSource@cinder@@@tr1@std@@V?$shared_ptr@VDataSource@cinder@@@23@VOptions@ImageSource@cinder@@@ZU?$less@H@3@V?$allocator@U?$pair@$$CBHP6A?AV?$shared_ptr@VImageSource@cinder@@@tr1@std@@V?$shared_ptr@VDataSource@cinder@@@23@VOptions@ImageSource@cinder@@@Z@std@@@3@@2@U?$less@V?$basic_string@DU?$char_traits@D@std@@V?$allocator@D@2@@std@@@2@V?$allocator@U?$pair@$$CBV?$basic_string@DU?$char_traits@D@std@@V?$allocator@D@2@@std@@V?$multimap@HP6A?AV?$shared_ptr@VImageSource@cinder@@@tr1@std@@V?$shared_ptr@VDataSource@cinder@@@23@VOptions@ImageSource@cinder@@@ZU?$less@H@3@V?$allocator@U?$pair@$$CBHP6A?AV?$shared_ptr@VImageSource@cinder@@@tr1@std@@V?$shared_ptr@VDataSource@cinder@@@23@VOptions@ImageSource@cinder@@@Z@std@@@3@@2@@std@@@2@$0A@@std@@@2@PAU342@@Z 00435cc0 f i cinder:ImageIo.obj
 0001:00034cc0       ?_Min@?$_Tree_val@V?$_Tmap_traits@V?$basic_string@DU?$char_traits@D@std@@V?$allocator@D@2@@std@@V?$multimap@HU?$pair@P6A?AV?$shared_ptr@VImageTarget@cinder@@@tr1@std@@V?$shared_ptr@VDataTarget@cinder@@@23@V?$shared_ptr@VImageSource@cinder@@@23@VOptions@ImageTarget@cinder@@ABV?$basic_string@DU?$char_traits@D@std@@V?$allocator@D@2@@3@@ZV93@@std@@U?$less@H@2@V?$allocator@U?$pair@$$CBHU?$pair@P6A?AV?$shared_ptr@VImageTarget@cinder@@@tr1@std@@V?$shared_ptr@VDataTarget@cinder@@@23@V?$shared_ptr@VImageSource@cinder@@@23@VOptions@ImageTarget@cinder@@ABV?$basic_string@DU?$char_traits@D@std@@V?$allocator@D@2@@3@@ZV93@@std@@@std@@@2@@2@U?$less@V?$basic_string@DU?$char_traits@D@std@@V?$allocator@D@2@@std@@@2@V?$allocator@U?$pair@$$CBV?$basic_string@DU?$char_traits@D@std@@V?$allocator@D@2@@std@@V?$multimap@HU?$pair@P6A?AV?$shared_ptr@VImageTarget@cinder@@@tr1@std@@V?$shared_ptr@VDataTarget@cinder@@@23@V?$shared_ptr@VImageSource@cinder@@@23@VOptions@ImageTarget@cinder@@ABV?$basic_string@DU?$char_traits@D@std@@V?$allocator@D@2@@3@@ZV93@@std@@U?$less@H@2@V?$allocator@U?$pair@$$CBHU?$pair@P6A?AV?$shared_ptr@VImageTarget@cinder@@@tr1@std@@V?$shared_ptr@VDataTarget@cinder@@@23@V?$shared_ptr@VImageSource@cinder@@@23@VOptions@ImageTarget@cinder@@ABV?$basic_string@DU?$char_traits@D@std@@V?$allocator@D@2@@3@@ZV93@@std@@@std@@@2@@2@@std@@@2@$0A@@std@@@std@@SAPAU_Node@?$_Tree_nod@V?$_Tmap_traits@V?$basic_string@DU?$char_traits@D@std@@V?$allocator@D@2@@std@@V?$multimap@HU?$pair@P6A?AV?$shared_ptr@VImageTarget@cinder@@@tr1@std@@V?$shared_ptr@VDataTarget@cinder@@@23@V?$shared_ptr@VImageSource@cinder@@@23@VOptions@ImageTarget@cinder@@ABV?$basic_string@DU?$char_traits@D@std@@V?$allocator@D@2@@3@@ZV93@@std@@U?$less@H@2@V?$allocator@U?$pair@$$CBHU?$pair@P6A?AV?$shared_ptr@VImageTarget@cinder@@@tr1@std@@V?$shared_ptr@VDataTarget@cinder@@@23@V?$shared_ptr@VImageSource@cinder@@@23@VOptions@ImageTarget@cinder@@ABV?$basic_string@DU?$char_traits@D@std@@V?$allocator@D@2@@3@@ZV93@@std@@@std@@@2@@2@U?$less@V?$basic_string@DU?$char_traits@D@std@@V?$allocator@D@2@@std@@@2@V?$allocator@U?$pair@$$CBV?$basic_string@DU?$char_traits@D@std@@V?$allocator@D@2@@std@@V?$multimap@HU?$pair@P6A?AV?$shared_ptr@VImageTarget@cinder@@@tr1@std@@V?$shared_ptr@VDataTarget@cinder@@@23@V?$shared_ptr@VImageSource@cinder@@@23@VOptions@ImageTarget@cinder@@ABV?$basic_string@DU?$char_traits@D@std@@V?$allocator@D@2@@3@@ZV93@@std@@U?$less@H@2@V?$allocator@U?$pair@$$CBHU?$pair@P6A?AV?$shared_ptr@VImageTarget@cinder@@@tr1@std@@V?$shared_ptr@VDataTarget@cinder@@@23@V?$shared_ptr@VImageSource@cinder@@@23@VOptions@ImageTarget@cinder@@ABV?$basic_string@DU?$char_traits@D@std@@V?$allocator@D@2@@3@@ZV93@@std@@@std@@@2@@2@@std@@@2@$0A@@std@@@2@PAU342@@Z 00435cc0 f i cinder:ImageIo.obj
 0001:00034ce0       ?_Min@?$_Tree_val@V?$_Tmap_traits@HP6A?AV?$shared_ptr@VImageSource@cinder@@@tr1@std@@V?$shared_ptr@VDataSource@cinder@@@23@VOptions@ImageSource@cinder@@@ZU?$less@H@3@V?$allocator@U?$pair@$$CBHP6A?AV?$shared_ptr@VImageSource@cinder@@@tr1@std@@V?$shared_ptr@VDataSource@cinder@@@23@VOptions@ImageSource@cinder@@@Z@std@@@3@$0A@@std@@@std@@SAPAU_Node@?$_Tree_nod@V?$_Tmap_traits@HP6A?AV?$shared_ptr@VImageSource@cinder@@@tr1@std@@V?$shared_ptr@VDataSource@cinder@@@23@VOptions@ImageSource@cinder@@@ZU?$less@H@3@V?$allocator@U?$pair@$$CBHP6A?AV?$shared_ptr@VImageSource@cinder@@@tr1@std@@V?$shared_ptr@VDataSource@cinder@@@23@VOptions@ImageSource@cinder@@@Z@std@@@3@$0A@@std@@@2@PAU342@@Z 00435ce0 f i cinder:ImageIo.obj
 0001:00034ce0       ?_Min@?$_Tree_val@V?$_Tmap_traits@HP6A?AV?$shared_ptr@VImageSource@cinder@@@tr1@std@@V?$shared_ptr@VDataSource@cinder@@@23@VOptions@ImageSource@cinder@@@ZU?$less@H@3@V?$allocator@U?$pair@$$CBHP6A?AV?$shared_ptr@VImageSource@cinder@@@tr1@std@@V?$shared_ptr@VDataSource@cinder@@@23@VOptions@ImageSource@cinder@@@Z@std@@@3@$00@std@@@std@@SAPAU_Node@?$_Tree_nod@V?$_Tmap_traits@HP6A?AV?$shared_ptr@VImageSource@cinder@@@tr1@std@@V?$shared_ptr@VDataSource@cinder@@@23@VOptions@ImageSource@cinder@@@ZU?$less@H@3@V?$allocator@U?$pair@$$CBHP6A?AV?$shared_ptr@VImageSource@cinder@@@tr1@std@@V?$shared_ptr@VDataSource@cinder@@@23@VOptions@ImageSource@cinder@@@Z@std@@@3@$00@std@@@2@PAU342@@Z 00435ce0 f i cinder:ImageIo.obj
 0001:00034d00       ?_Rrotate@?$_Tree@V?$_Tmap_traits@HP6A?AV?$shared_ptr@VImageSource@cinder@@@tr1@std@@V?$shared_ptr@VDataSource@cinder@@@23@VOptions@ImageSource@cinder@@@ZU?$less@H@3@V?$allocator@U?$pair@$$CBHP6A?AV?$shared_ptr@VImageSource@cinder@@@tr1@std@@V?$shared_ptr@VDataSource@cinder@@@23@VOptions@ImageSource@cinder@@@Z@std@@@3@$00@std@@@std@@IAEXPAU_Node@?$_Tree_nod@V?$_Tmap_traits@HP6A?AV?$shared_ptr@VImageSource@cinder@@@tr1@std@@V?$shared_ptr@VDataSource@cinder@@@23@VOptions@ImageSource@cinder@@@ZU?$less@H@3@V?$allocator@U?$pair@$$CBHP6A?AV?$shared_ptr@VImageSource@cinder@@@tr1@std@@V?$shared_ptr@VDataSource@cinder@@@23@VOptions@ImageSource@cinder@@@Z@std@@@3@$00@std@@@2@@Z 00435d00 f i cinder:ImageIo.obj
 0001:00034d00       ?_Rrotate@?$_Tree@V?$_Tmap_traits@HP6A?AV?$shared_ptr@VImageSource@cinder@@@tr1@std@@V?$shared_ptr@VDataSource@cinder@@@23@VOptions@ImageSource@cinder@@@ZU?$less@H@3@V?$allocator@U?$pair@$$CBHP6A?AV?$shared_ptr@VImageSource@cinder@@@tr1@std@@V?$shared_ptr@VDataSource@cinder@@@23@VOptions@ImageSource@cinder@@@Z@std@@@3@$0A@@std@@@std@@IAEXPAU_Node@?$_Tree_nod@V?$_Tmap_traits@HP6A?AV?$shared_ptr@VImageSource@cinder@@@tr1@std@@V?$shared_ptr@VDataSource@cinder@@@23@VOptions@ImageSource@cinder@@@ZU?$less@H@3@V?$allocator@U?$pair@$$CBHP6A?AV?$shared_ptr@VImageSource@cinder@@@tr1@std@@V?$shared_ptr@VDataSource@cinder@@@23@VOptions@ImageSource@cinder@@@Z@std@@@3@$0A@@std@@@2@@Z 00435d00 f i cinder:ImageIo.obj
 0001:00034d60       ?_Lrotate@?$_Tree@V?$_Tmap_traits@V?$basic_string@DU?$char_traits@D@std@@V?$allocator@D@2@@std@@V?$multimap@HP6A?AV?$shared_ptr@VImageSource@cinder@@@tr1@std@@V?$shared_ptr@VDataSource@cinder@@@23@VOptions@ImageSource@cinder@@@ZU?$less@H@3@V?$allocator@U?$pair@$$CBHP6A?AV?$shared_ptr@VImageSource@cinder@@@tr1@std@@V?$shared_ptr@VDataSource@cinder@@@23@VOptions@ImageSource@cinder@@@Z@std@@@3@@2@U?$less@V?$basic_string@DU?$char_traits@D@std@@V?$allocator@D@2@@std@@@2@V?$allocator@U?$pair@$$CBV?$basic_string@DU?$char_traits@D@std@@V?$allocator@D@2@@std@@V?$multimap@HP6A?AV?$shared_ptr@VImageSource@cinder@@@tr1@std@@V?$shared_ptr@VDataSource@cinder@@@23@VOptions@ImageSource@cinder@@@ZU?$less@H@3@V?$allocator@U?$pair@$$CBHP6A?AV?$shared_ptr@VImageSource@cinder@@@tr1@std@@V?$shared_ptr@VDataSource@cinder@@@23@VOptions@ImageSource@cinder@@@Z@std@@@3@@2@@std@@@2@$0A@@std@@@std@@IAEXPAU_Node@?$_Tree_nod@V?$_Tmap_traits@V?$basic_string@DU?$char_traits@D@std@@V?$allocator@D@2@@std@@V?$multimap@HP6A?AV?$shared_ptr@VImageSource@cinder@@@tr1@std@@V?$shared_ptr@VDataSource@cinder@@@23@VOptions@ImageSource@cinder@@@ZU?$less@H@3@V?$allocator@U?$pair@$$CBHP6A?AV?$shared_ptr@VImageSource@cinder@@@tr1@std@@V?$shared_ptr@VDataSource@cinder@@@23@VOptions@ImageSource@cinder@@@Z@std@@@3@@2@U?$less@V?$basic_string@DU?$char_traits@D@std@@V?$allocator@D@2@@std@@@2@V?$allocator@U?$pair@$$CBV?$basic_string@DU?$char_traits@D@std@@V?$allocator@D@2@@std@@V?$multimap@HP6A?AV?$shared_ptr@VImageSource@cinder@@@tr1@std@@V?$shared_ptr@VDataSource@cinder@@@23@VOptions@ImageSource@cinder@@@ZU?$less@H@3@V?$allocator@U?$pair@$$CBHP6A?AV?$shared_ptr@VImageSource@cinder@@@tr1@std@@V?$shared_ptr@VDataSource@cinder@@@23@VOptions@ImageSource@cinder@@@Z@std@@@3@@2@@std@@@2@$0A@@std@@@2@@Z 00435d60 f i cinder:ImageIo.obj
 0001:00034d60       ?_Lrotate@?$_Tree@V?$_Tmap_traits@V?$basic_string@DU?$char_traits@D@std@@V?$allocator@D@2@@std@@V?$multimap@HU?$pair@P6A?AV?$shared_ptr@VImageTarget@cinder@@@tr1@std@@V?$shared_ptr@VDataTarget@cinder@@@23@V?$shared_ptr@VImageSource@cinder@@@23@VOptions@ImageTarget@cinder@@ABV?$basic_string@DU?$char_traits@D@std@@V?$allocator@D@2@@3@@ZV93@@std@@U?$less@H@2@V?$allocator@U?$pair@$$CBHU?$pair@P6A?AV?$shared_ptr@VImageTarget@cinder@@@tr1@std@@V?$shared_ptr@VDataTarget@cinder@@@23@V?$shared_ptr@VImageSource@cinder@@@23@VOptions@ImageTarget@cinder@@ABV?$basic_string@DU?$char_traits@D@std@@V?$allocator@D@2@@3@@ZV93@@std@@@std@@@2@@2@U?$less@V?$basic_string@DU?$char_traits@D@std@@V?$allocator@D@2@@std@@@2@V?$allocator@U?$pair@$$CBV?$basic_string@DU?$char_traits@D@std@@V?$allocator@D@2@@std@@V?$multimap@HU?$pair@P6A?AV?$shared_ptr@VImageTarget@cinder@@@tr1@std@@V?$shared_ptr@VDataTarget@cinder@@@23@V?$shared_ptr@VImageSource@cinder@@@23@VOptions@ImageTarget@cinder@@ABV?$basic_string@DU?$char_traits@D@std@@V?$allocator@D@2@@3@@ZV93@@std@@U?$less@H@2@V?$allocator@U?$pair@$$CBHU?$pair@P6A?AV?$shared_ptr@VImageTarget@cinder@@@tr1@std@@V?$shared_ptr@VDataTarget@cinder@@@23@V?$shared_ptr@VImageSource@cinder@@@23@VOptions@ImageTarget@cinder@@ABV?$basic_string@DU?$char_traits@D@std@@V?$allocator@D@2@@3@@ZV93@@std@@@std@@@2@@2@@std@@@2@$0A@@std@@@std@@IAEXPAU_Node@?$_Tree_nod@V?$_Tmap_traits@V?$basic_string@DU?$char_traits@D@std@@V?$allocator@D@2@@std@@V?$multimap@HU?$pair@P6A?AV?$shared_ptr@VImageTarget@cinder@@@tr1@std@@V?$shared_ptr@VDataTarget@cinder@@@23@V?$shared_ptr@VImageSource@cinder@@@23@VOptions@ImageTarget@cinder@@ABV?$basic_string@DU?$char_traits@D@std@@V?$allocator@D@2@@3@@ZV93@@std@@U?$less@H@2@V?$allocator@U?$pair@$$CBHU?$pair@P6A?AV?$shared_ptr@VImageTarget@cinder@@@tr1@std@@V?$shared_ptr@VDataTarget@cinder@@@23@V?$shared_ptr@VImageSource@cinder@@@23@VOptions@ImageTarget@cinder@@ABV?$basic_string@DU?$char_traits@D@std@@V?$allocator@D@2@@3@@ZV93@@std@@@std@@@2@@2@U?$less@V?$basic_string@DU?$char_traits@D@std@@V?$allocator@D@2@@std@@@2@V?$allocator@U?$pair@$$CBV?$basic_string@DU?$char_traits@D@std@@V?$allocator@D@2@@std@@V?$multimap@HU?$pair@P6A?AV?$shared_ptr@VImageTarget@cinder@@@tr1@std@@V?$shared_ptr@VDataTarget@cinder@@@23@V?$shared_ptr@VImageSource@cinder@@@23@VOptions@ImageTarget@cinder@@ABV?$basic_string@DU?$char_traits@D@std@@V?$allocator@D@2@@3@@ZV93@@std@@U?$less@H@2@V?$allocator@U?$pair@$$CBHU?$pair@P6A?AV?$shared_ptr@VImageTarget@cinder@@@tr1@std@@V?$shared_ptr@VDataTarget@cinder@@@23@V?$shared_ptr@VImageSource@cinder@@@23@VOptions@ImageTarget@cinder@@ABV?$basic_string@DU?$char_traits@D@std@@V?$allocator@D@2@@3@@ZV93@@std@@@std@@@2@@2@@std@@@2@$0A@@std@@@2@@Z 00435d60 f i cinder:ImageIo.obj
 0001:00034dc0       ?_Rrotate@?$_Tree@V?$_Tmap_traits@V?$basic_string@DU?$char_traits@D@std@@V?$allocator@D@2@@std@@V?$multimap@HP6A?AV?$shared_ptr@VImageSource@cinder@@@tr1@std@@V?$shared_ptr@VDataSource@cinder@@@23@VOptions@ImageSource@cinder@@@ZU?$less@H@3@V?$allocator@U?$pair@$$CBHP6A?AV?$shared_ptr@VImageSource@cinder@@@tr1@std@@V?$shared_ptr@VDataSource@cinder@@@23@VOptions@ImageSource@cinder@@@Z@std@@@3@@2@U?$less@V?$basic_string@DU?$char_traits@D@std@@V?$allocator@D@2@@std@@@2@V?$allocator@U?$pair@$$CBV?$basic_string@DU?$char_traits@D@std@@V?$allocator@D@2@@std@@V?$multimap@HP6A?AV?$shared_ptr@VImageSource@cinder@@@tr1@std@@V?$shared_ptr@VDataSource@cinder@@@23@VOptions@ImageSource@cinder@@@ZU?$less@H@3@V?$allocator@U?$pair@$$CBHP6A?AV?$shared_ptr@VImageSource@cinder@@@tr1@std@@V?$shared_ptr@VDataSource@cinder@@@23@VOptions@ImageSource@cinder@@@Z@std@@@3@@2@@std@@@2@$0A@@std@@@std@@IAEXPAU_Node@?$_Tree_nod@V?$_Tmap_traits@V?$basic_string@DU?$char_traits@D@std@@V?$allocator@D@2@@std@@V?$multimap@HP6A?AV?$shared_ptr@VImageSource@cinder@@@tr1@std@@V?$shared_ptr@VDataSource@cinder@@@23@VOptions@ImageSource@cinder@@@ZU?$less@H@3@V?$allocator@U?$pair@$$CBHP6A?AV?$shared_ptr@VImageSource@cinder@@@tr1@std@@V?$shared_ptr@VDataSource@cinder@@@23@VOptions@ImageSource@cinder@@@Z@std@@@3@@2@U?$less@V?$basic_string@DU?$char_traits@D@std@@V?$allocator@D@2@@std@@@2@V?$allocator@U?$pair@$$CBV?$basic_string@DU?$char_traits@D@std@@V?$allocator@D@2@@std@@V?$multimap@HP6A?AV?$shared_ptr@VImageSource@cinder@@@tr1@std@@V?$shared_ptr@VDataSource@cinder@@@23@VOptions@ImageSource@cinder@@@ZU?$less@H@3@V?$allocator@U?$pair@$$CBHP6A?AV?$shared_ptr@VImageSource@cinder@@@tr1@std@@V?$shared_ptr@VDataSource@cinder@@@23@VOptions@ImageSource@cinder@@@Z@std@@@3@@2@@std@@@2@$0A@@std@@@2@@Z 00435dc0 f i cinder:ImageIo.obj
 0001:00034dc0       ?_Rrotate@?$_Tree@V?$_Tmap_traits@V?$basic_string@DU?$char_traits@D@std@@V?$allocator@D@2@@std@@V?$multimap@HU?$pair@P6A?AV?$shared_ptr@VImageTarget@cinder@@@tr1@std@@V?$shared_ptr@VDataTarget@cinder@@@23@V?$shared_ptr@VImageSource@cinder@@@23@VOptions@ImageTarget@cinder@@ABV?$basic_string@DU?$char_traits@D@std@@V?$allocator@D@2@@3@@ZV93@@std@@U?$less@H@2@V?$allocator@U?$pair@$$CBHU?$pair@P6A?AV?$shared_ptr@VImageTarget@cinder@@@tr1@std@@V?$shared_ptr@VDataTarget@cinder@@@23@V?$shared_ptr@VImageSource@cinder@@@23@VOptions@ImageTarget@cinder@@ABV?$basic_string@DU?$char_traits@D@std@@V?$allocator@D@2@@3@@ZV93@@std@@@std@@@2@@2@U?$less@V?$basic_string@DU?$char_traits@D@std@@V?$allocator@D@2@@std@@@2@V?$allocator@U?$pair@$$CBV?$basic_string@DU?$char_traits@D@std@@V?$allocator@D@2@@std@@V?$multimap@HU?$pair@P6A?AV?$shared_ptr@VImageTarget@cinder@@@tr1@std@@V?$shared_ptr@VDataTarget@cinder@@@23@V?$shared_ptr@VImageSource@cinder@@@23@VOptions@ImageTarget@cinder@@ABV?$basic_string@DU?$char_traits@D@std@@V?$allocator@D@2@@3@@ZV93@@std@@U?$less@H@2@V?$allocator@U?$pair@$$CBHU?$pair@P6A?AV?$shared_ptr@VImageTarget@cinder@@@tr1@std@@V?$shared_ptr@VDataTarget@cinder@@@23@V?$shared_ptr@VImageSource@cinder@@@23@VOptions@ImageTarget@cinder@@ABV?$basic_string@DU?$char_traits@D@std@@V?$allocator@D@2@@3@@ZV93@@std@@@std@@@2@@2@@std@@@2@$0A@@std@@@std@@IAEXPAU_Node@?$_Tree_nod@V?$_Tmap_traits@V?$basic_string@DU?$char_traits@D@std@@V?$allocator@D@2@@std@@V?$multimap@HU?$pair@P6A?AV?$shared_ptr@VImageTarget@cinder@@@tr1@std@@V?$shared_ptr@VDataTarget@cinder@@@23@V?$shared_ptr@VImageSource@cinder@@@23@VOptions@ImageTarget@cinder@@ABV?$basic_string@DU?$char_traits@D@std@@V?$allocator@D@2@@3@@ZV93@@std@@U?$less@H@2@V?$allocator@U?$pair@$$CBHU?$pair@P6A?AV?$shared_ptr@VImageTarget@cinder@@@tr1@std@@V?$shared_ptr@VDataTarget@cinder@@@23@V?$shared_ptr@VImageSource@cinder@@@23@VOptions@ImageTarget@cinder@@ABV?$basic_string@DU?$char_traits@D@std@@V?$allocator@D@2@@3@@ZV93@@std@@@std@@@2@@2@U?$less@V?$basic_string@DU?$char_traits@D@std@@V?$allocator@D@2@@std@@@2@V?$allocator@U?$pair@$$CBV?$basic_string@DU?$char_traits@D@std@@V?$allocator@D@2@@std@@V?$multimap@HU?$pair@P6A?AV?$shared_ptr@VImageTarget@cinder@@@tr1@std@@V?$shared_ptr@VDataTarget@cinder@@@23@V?$shared_ptr@VImageSource@cinder@@@23@VOptions@ImageTarget@cinder@@ABV?$basic_string@DU?$char_traits@D@std@@V?$allocator@D@2@@3@@ZV93@@std@@U?$less@H@2@V?$allocator@U?$pair@$$CBHU?$pair@P6A?AV?$shared_ptr@VImageTarget@cinder@@@tr1@std@@V?$shared_ptr@VDataTarget@cinder@@@23@V?$shared_ptr@VImageSource@cinder@@@23@VOptions@ImageTarget@cinder@@ABV?$basic_string@DU?$char_traits@D@std@@V?$allocator@D@2@@3@@ZV93@@std@@@std@@@2@@2@@std@@@2@$0A@@std@@@2@@Z 00435dc0 f i cinder:ImageIo.obj
 0001:00034e20       ?_Max@?$_Tree_val@V?$_Tmap_traits@V?$basic_string@DU?$char_traits@D@std@@V?$allocator@D@2@@std@@V?$multimap@HP6A?AV?$shared_ptr@VImageSource@cinder@@@tr1@std@@V?$shared_ptr@VDataSource@cinder@@@23@VOptions@ImageSource@cinder@@@ZU?$less@H@3@V?$allocator@U?$pair@$$CBHP6A?AV?$shared_ptr@VImageSource@cinder@@@tr1@std@@V?$shared_ptr@VDataSource@cinder@@@23@VOptions@ImageSource@cinder@@@Z@std@@@3@@2@U?$less@V?$basic_string@DU?$char_traits@D@std@@V?$allocator@D@2@@std@@@2@V?$allocator@U?$pair@$$CBV?$basic_string@DU?$char_traits@D@std@@V?$allocator@D@2@@std@@V?$multimap@HP6A?AV?$shared_ptr@VImageSource@cinder@@@tr1@std@@V?$shared_ptr@VDataSource@cinder@@@23@VOptions@ImageSource@cinder@@@ZU?$less@H@3@V?$allocator@U?$pair@$$CBHP6A?AV?$shared_ptr@VImageSource@cinder@@@tr1@std@@V?$shared_ptr@VDataSource@cinder@@@23@VOptions@ImageSource@cinder@@@Z@std@@@3@@2@@std@@@2@$0A@@std@@@std@@SAPAU_Node@?$_Tree_nod@V?$_Tmap_traits@V?$basic_string@DU?$char_traits@D@std@@V?$allocator@D@2@@std@@V?$multimap@HP6A?AV?$shared_ptr@VImageSource@cinder@@@tr1@std@@V?$shared_ptr@VDataSource@cinder@@@23@VOptions@ImageSource@cinder@@@ZU?$less@H@3@V?$allocator@U?$pair@$$CBHP6A?AV?$shared_ptr@VImageSource@cinder@@@tr1@std@@V?$shared_ptr@VDataSource@cinder@@@23@VOptions@ImageSource@cinder@@@Z@std@@@3@@2@U?$less@V?$basic_string@DU?$char_traits@D@std@@V?$allocator@D@2@@std@@@2@V?$allocator@U?$pair@$$CBV?$basic_string@DU?$char_traits@D@std@@V?$allocator@D@2@@std@@V?$multimap@HP6A?AV?$shared_ptr@VImageSource@cinder@@@tr1@std@@V?$shared_ptr@VDataSource@cinder@@@23@VOptions@ImageSource@cinder@@@ZU?$less@H@3@V?$allocator@U?$pair@$$CBHP6A?AV?$shared_ptr@VImageSource@cinder@@@tr1@std@@V?$shared_ptr@VDataSource@cinder@@@23@VOptions@ImageSource@cinder@@@Z@std@@@3@@2@@std@@@2@$0A@@std@@@2@PAU342@@Z 00435e20 f i cinder:ImageIo.obj
 0001:00034e20       ?_Max@?$_Tree_val@V?$_Tmap_traits@V?$basic_string@DU?$char_traits@D@std@@V?$allocator@D@2@@std@@V?$multimap@HU?$pair@P6A?AV?$shared_ptr@VImageTarget@cinder@@@tr1@std@@V?$shared_ptr@VDataTarget@cinder@@@23@V?$shared_ptr@VImageSource@cinder@@@23@VOptions@ImageTarget@cinder@@ABV?$basic_string@DU?$char_traits@D@std@@V?$allocator@D@2@@3@@ZV93@@std@@U?$less@H@2@V?$allocator@U?$pair@$$CBHU?$pair@P6A?AV?$shared_ptr@VImageTarget@cinder@@@tr1@std@@V?$shared_ptr@VDataTarget@cinder@@@23@V?$shared_ptr@VImageSource@cinder@@@23@VOptions@ImageTarget@cinder@@ABV?$basic_string@DU?$char_traits@D@std@@V?$allocator@D@2@@3@@ZV93@@std@@@std@@@2@@2@U?$less@V?$basic_string@DU?$char_traits@D@std@@V?$allocator@D@2@@std@@@2@V?$allocator@U?$pair@$$CBV?$basic_string@DU?$char_traits@D@std@@V?$allocator@D@2@@std@@V?$multimap@HU?$pair@P6A?AV?$shared_ptr@VImageTarget@cinder@@@tr1@std@@V?$shared_ptr@VDataTarget@cinder@@@23@V?$shared_ptr@VImageSource@cinder@@@23@VOptions@ImageTarget@cinder@@ABV?$basic_string@DU?$char_traits@D@std@@V?$allocator@D@2@@3@@ZV93@@std@@U?$less@H@2@V?$allocator@U?$pair@$$CBHU?$pair@P6A?AV?$shared_ptr@VImageTarget@cinder@@@tr1@std@@V?$shared_ptr@VDataTarget@cinder@@@23@V?$shared_ptr@VImageSource@cinder@@@23@VOptions@ImageTarget@cinder@@ABV?$basic_string@DU?$char_traits@D@std@@V?$allocator@D@2@@3@@ZV93@@std@@@std@@@2@@2@@std@@@2@$0A@@std@@@std@@SAPAU_Node@?$_Tree_nod@V?$_Tmap_traits@V?$basic_string@DU?$char_traits@D@std@@V?$allocator@D@2@@std@@V?$multimap@HU?$pair@P6A?AV?$shared_ptr@VImageTarget@cinder@@@tr1@std@@V?$shared_ptr@VDataTarget@cinder@@@23@V?$shared_ptr@VImageSource@cinder@@@23@VOptions@ImageTarget@cinder@@ABV?$basic_string@DU?$char_traits@D@std@@V?$allocator@D@2@@3@@ZV93@@std@@U?$less@H@2@V?$allocator@U?$pair@$$CBHU?$pair@P6A?AV?$shared_ptr@VImageTarget@cinder@@@tr1@std@@V?$shared_ptr@VDataTarget@cinder@@@23@V?$shared_ptr@VImageSource@cinder@@@23@VOptions@ImageTarget@cinder@@ABV?$basic_string@DU?$char_traits@D@std@@V?$allocator@D@2@@3@@ZV93@@std@@@std@@@2@@2@U?$less@V?$basic_string@DU?$char_traits@D@std@@V?$allocator@D@2@@std@@@2@V?$allocator@U?$pair@$$CBV?$basic_string@DU?$char_traits@D@std@@V?$allocator@D@2@@std@@V?$multimap@HU?$pair@P6A?AV?$shared_ptr@VImageTarget@cinder@@@tr1@std@@V?$shared_ptr@VDataTarget@cinder@@@23@V?$shared_ptr@VImageSource@cinder@@@23@VOptions@ImageTarget@cinder@@ABV?$basic_string@DU?$char_traits@D@std@@V?$allocator@D@2@@3@@ZV93@@std@@U?$less@H@2@V?$allocator@U?$pair@$$CBHU?$pair@P6A?AV?$shared_ptr@VImageTarget@cinder@@@tr1@std@@V?$shared_ptr@VDataTarget@cinder@@@23@V?$shared_ptr@VImageSource@cinder@@@23@VOptions@ImageTarget@cinder@@ABV?$basic_string@DU?$char_traits@D@std@@V?$allocator@D@2@@3@@ZV93@@std@@@std@@@2@@2@@std@@@2@$0A@@std@@@2@PAU342@@Z 00435e20 f i cinder:ImageIo.obj
 0001:00034e40       ?_Max@?$_Tree_val@V?$_Tmap_traits@HP6A?AV?$shared_ptr@VImageSource@cinder@@@tr1@std@@V?$shared_ptr@VDataSource@cinder@@@23@VOptions@ImageSource@cinder@@@ZU?$less@H@3@V?$allocator@U?$pair@$$CBHP6A?AV?$shared_ptr@VImageSource@cinder@@@tr1@std@@V?$shared_ptr@VDataSource@cinder@@@23@VOptions@ImageSource@cinder@@@Z@std@@@3@$0A@@std@@@std@@SAPAU_Node@?$_Tree_nod@V?$_Tmap_traits@HP6A?AV?$shared_ptr@VImageSource@cinder@@@tr1@std@@V?$shared_ptr@VDataSource@cinder@@@23@VOptions@ImageSource@cinder@@@ZU?$less@H@3@V?$allocator@U?$pair@$$CBHP6A?AV?$shared_ptr@VImageSource@cinder@@@tr1@std@@V?$shared_ptr@VDataSource@cinder@@@23@VOptions@ImageSource@cinder@@@Z@std@@@3@$0A@@std@@@2@PAU342@@Z 00435e40 f i cinder:ImageIo.obj
 0001:00034e40       ?_Max@?$_Tree_val@V?$_Tmap_traits@HP6A?AV?$shared_ptr@VImageSource@cinder@@@tr1@std@@V?$shared_ptr@VDataSource@cinder@@@23@VOptions@ImageSource@cinder@@@ZU?$less@H@3@V?$allocator@U?$pair@$$CBHP6A?AV?$shared_ptr@VImageSource@cinder@@@tr1@std@@V?$shared_ptr@VDataSource@cinder@@@23@VOptions@ImageSource@cinder@@@Z@std@@@3@$00@std@@@std@@SAPAU_Node@?$_Tree_nod@V?$_Tmap_traits@HP6A?AV?$shared_ptr@VImageSource@cinder@@@tr1@std@@V?$shared_ptr@VDataSource@cinder@@@23@VOptions@ImageSource@cinder@@@ZU?$less@H@3@V?$allocator@U?$pair@$$CBHP6A?AV?$shared_ptr@VImageSource@cinder@@@tr1@std@@V?$shared_ptr@VDataSource@cinder@@@23@VOptions@ImageSource@cinder@@@Z@std@@@3@$00@std@@@2@PAU342@@Z 00435e40 f i cinder:ImageIo.obj
 0001:00034e60       ?_Rrotate@?$_Tree@V?$_Tmap_traits@HU?$pair@P6A?AV?$shared_ptr@VImageTarget@cinder@@@tr1@std@@V?$shared_ptr@VDataTarget@cinder@@@23@V?$shared_ptr@VImageSource@cinder@@@23@VOptions@ImageTarget@cinder@@ABV?$basic_string@DU?$char_traits@D@std@@V?$allocator@D@2@@3@@ZV93@@std@@U?$less@H@2@V?$allocator@U?$pair@$$CBHU?$pair@P6A?AV?$shared_ptr@VImageTarget@cinder@@@tr1@std@@V?$shared_ptr@VDataTarget@cinder@@@23@V?$shared_ptr@VImageSource@cinder@@@23@VOptions@ImageTarget@cinder@@ABV?$basic_string@DU?$char_traits@D@std@@V?$allocator@D@2@@3@@ZV93@@std@@@std@@@2@$00@std@@@std@@IAEXPAU_Node@?$_Tree_nod@V?$_Tmap_traits@HU?$pair@P6A?AV?$shared_ptr@VImageTarget@cinder@@@tr1@std@@V?$shared_ptr@VDataTarget@cinder@@@23@V?$shared_ptr@VImageSource@cinder@@@23@VOptions@ImageTarget@cinder@@ABV?$basic_string@DU?$char_traits@D@std@@V?$allocator@D@2@@3@@ZV93@@std@@U?$less@H@2@V?$allocator@U?$pair@$$CBHU?$pair@P6A?AV?$shared_ptr@VImageTarget@cinder@@@tr1@std@@V?$shared_ptr@VDataTarget@cinder@@@23@V?$shared_ptr@VImageSource@cinder@@@23@VOptions@ImageTarget@cinder@@ABV?$basic_string@DU?$char_traits@D@std@@V?$allocator@D@2@@3@@ZV93@@std@@@std@@@2@$00@std@@@2@@Z 00435e60 f i cinder:ImageIo.obj
 0001:00034ec0       ?_Max@?$_Tree_val@V?$_Tmap_traits@HU?$pair@P6A?AV?$shared_ptr@VImageTarget@cinder@@@tr1@std@@V?$shared_ptr@VDataTarget@cinder@@@23@V?$shared_ptr@VImageSource@cinder@@@23@VOptions@ImageTarget@cinder@@ABV?$basic_string@DU?$char_traits@D@std@@V?$allocator@D@2@@3@@ZV93@@std@@U?$less@H@2@V?$allocator@U?$pair@$$CBHU?$pair@P6A?AV?$shared_ptr@VImageTarget@cinder@@@tr1@std@@V?$shared_ptr@VDataTarget@cinder@@@23@V?$shared_ptr@VImageSource@cinder@@@23@VOptions@ImageTarget@cinder@@ABV?$basic_string@DU?$char_traits@D@std@@V?$allocator@D@2@@3@@ZV93@@std@@@std@@@2@$00@std@@@std@@SAPAU_Node@?$_Tree_nod@V?$_Tmap_traits@HU?$pair@P6A?AV?$shared_ptr@VImageTarget@cinder@@@tr1@std@@V?$shared_ptr@VDataTarget@cinder@@@23@V?$shared_ptr@VImageSource@cinder@@@23@VOptions@ImageTarget@cinder@@ABV?$basic_string@DU?$char_traits@D@std@@V?$allocator@D@2@@3@@ZV93@@std@@U?$less@H@2@V?$allocator@U?$pair@$$CBHU?$pair@P6A?AV?$shared_ptr@VImageTarget@cinder@@@tr1@std@@V?$shared_ptr@VDataTarget@cinder@@@23@V?$shared_ptr@VImageSource@cinder@@@23@VOptions@ImageTarget@cinder@@ABV?$basic_string@DU?$char_traits@D@std@@V?$allocator@D@2@@3@@ZV93@@std@@@std@@@2@$00@std@@@2@PAU342@@Z 00435ec0 f i cinder:ImageIo.obj
 0001:00034ee0       ?_Min@?$_Tree_val@V?$_Tmap_traits@HU?$pair@P6A?AV?$shared_ptr@VImageTarget@cinder@@@tr1@std@@V?$shared_ptr@VDataTarget@cinder@@@23@V?$shared_ptr@VImageSource@cinder@@@23@VOptions@ImageTarget@cinder@@ABV?$basic_string@DU?$char_traits@D@std@@V?$allocator@D@2@@3@@ZV93@@std@@U?$less@H@2@V?$allocator@U?$pair@$$CBHU?$pair@P6A?AV?$shared_ptr@VImageTarget@cinder@@@tr1@std@@V?$shared_ptr@VDataTarget@cinder@@@23@V?$shared_ptr@VImageSource@cinder@@@23@VOptions@ImageTarget@cinder@@ABV?$basic_string@DU?$char_traits@D@std@@V?$allocator@D@2@@3@@ZV93@@std@@@std@@@2@$00@std@@@std@@SAPAU_Node@?$_Tree_nod@V?$_Tmap_traits@HU?$pair@P6A?AV?$shared_ptr@VImageTarget@cinder@@@tr1@std@@V?$shared_ptr@VDataTarget@cinder@@@23@V?$shared_ptr@VImageSource@cinder@@@23@VOptions@ImageTarget@cinder@@ABV?$basic_string@DU?$char_traits@D@std@@V?$allocator@D@2@@3@@ZV93@@std@@U?$less@H@2@V?$allocator@U?$pair@$$CBHU?$pair@P6A?AV?$shared_ptr@VImageTarget@cinder@@@tr1@std@@V?$shared_ptr@VDataTarget@cinder@@@23@V?$shared_ptr@VImageSource@cinder@@@23@VOptions@ImageTarget@cinder@@ABV?$basic_string@DU?$char_traits@D@std@@V?$allocator@D@2@@3@@ZV93@@std@@@std@@@2@$00@std@@@2@PAU342@@Z 00435ee0 f i cinder:ImageIo.obj
 0001:00034f00       ??E?$_Tree_unchecked_const_iterator@V?$_Tree_val@V?$_Tmap_traits@HU?$pair@P6A?AV?$shared_ptr@VImageTarget@cinder@@@tr1@std@@V?$shared_ptr@VDataTarget@cinder@@@23@V?$shared_ptr@VImageSource@cinder@@@23@VOptions@ImageTarget@cinder@@ABV?$basic_string@DU?$char_traits@D@std@@V?$allocator@D@2@@3@@ZV93@@std@@U?$less@H@2@V?$allocator@U?$pair@$$CBHU?$pair@P6A?AV?$shared_ptr@VImageTarget@cinder@@@tr1@std@@V?$shared_ptr@VDataTarget@cinder@@@23@V?$shared_ptr@VImageSource@cinder@@@23@VOptions@ImageTarget@cinder@@ABV?$basic_string@DU?$char_traits@D@std@@V?$allocator@D@2@@3@@ZV93@@std@@@std@@@2@$00@std@@@std@@U_Iterator_base0@2@@std@@QAEAAV01@XZ 00435f00 f i cinder:ImageIo.obj
 0001:00034f50       ??F?$_Tree_unchecked_const_iterator@V?$_Tree_val@V?$_Tmap_traits@V?$basic_string@DU?$char_traits@D@std@@V?$allocator@D@2@@std@@V?$multimap@HU?$pair@P6A?AV?$shared_ptr@VImageTarget@cinder@@@tr1@std@@V?$shared_ptr@VDataTarget@cinder@@@23@V?$shared_ptr@VImageSource@cinder@@@23@VOptions@ImageTarget@cinder@@ABV?$basic_string@DU?$char_traits@D@std@@V?$allocator@D@2@@3@@ZV93@@std@@U?$less@H@2@V?$allocator@U?$pair@$$CBHU?$pair@P6A?AV?$shared_ptr@VImageTarget@cinder@@@tr1@std@@V?$shared_ptr@VDataTarget@cinder@@@23@V?$shared_ptr@VImageSource@cinder@@@23@VOptions@ImageTarget@cinder@@ABV?$basic_string@DU?$char_traits@D@std@@V?$allocator@D@2@@3@@ZV93@@std@@@std@@@2@@2@U?$less@V?$basic_string@DU?$char_traits@D@std@@V?$allocator@D@2@@std@@@2@V?$allocator@U?$pair@$$CBV?$basic_string@DU?$char_traits@D@std@@V?$allocator@D@2@@std@@V?$multimap@HU?$pair@P6A?AV?$shared_ptr@VImageTarget@cinder@@@tr1@std@@V?$shared_ptr@VDataTarget@cinder@@@23@V?$shared_ptr@VImageSource@cinder@@@23@VOptions@ImageTarget@cinder@@ABV?$basic_string@DU?$char_traits@D@std@@V?$allocator@D@2@@3@@ZV93@@std@@U?$less@H@2@V?$allocator@U?$pair@$$CBHU?$pair@P6A?AV?$shared_ptr@VImageTarget@cinder@@@tr1@std@@V?$shared_ptr@VDataTarget@cinder@@@23@V?$shared_ptr@VImageSource@cinder@@@23@VOptions@ImageTarget@cinder@@ABV?$basic_string@DU?$char_traits@D@std@@V?$allocator@D@2@@3@@ZV93@@std@@@std@@@2@@2@@std@@@2@$0A@@std@@@std@@U_Iterator_base0@2@@std@@QAEAAV01@XZ 00435f50 f i cinder:ImageIo.obj
 0001:00034fb0       ??F?$_Tree_unchecked_const_iterator@V?$_Tree_val@V?$_Tmap_traits@HP6A?AV?$shared_ptr@VImageSource@cinder@@@tr1@std@@V?$shared_ptr@VDataSource@cinder@@@23@VOptions@ImageSource@cinder@@@ZU?$less@H@3@V?$allocator@U?$pair@$$CBHP6A?AV?$shared_ptr@VImageSource@cinder@@@tr1@std@@V?$shared_ptr@VDataSource@cinder@@@23@VOptions@ImageSource@cinder@@@Z@std@@@3@$0A@@std@@@std@@U_Iterator_base0@2@@std@@QAEAAV01@XZ 00435fb0 f i cinder:ImageIo.obj
 0001:00035010       ?channelOrderNumChannels@ImageIo@cinder@@SACW4ChannelOrder@12@@Z 00436010 f   cinder:ImageIo.obj
 0001:00035090       ??E?$_Tree_unchecked_const_iterator@V?$_Tree_val@V?$_Tmap_traits@V?$basic_string@DU?$char_traits@D@std@@V?$allocator@D@2@@std@@V?$multimap@HP6A?AV?$shared_ptr@VImageSource@cinder@@@tr1@std@@V?$shared_ptr@VDataSource@cinder@@@23@VOptions@ImageSource@cinder@@@ZU?$less@H@3@V?$allocator@U?$pair@$$CBHP6A?AV?$shared_ptr@VImageSource@cinder@@@tr1@std@@V?$shared_ptr@VDataSource@cinder@@@23@VOptions@ImageSource@cinder@@@Z@std@@@3@@2@U?$less@V?$basic_string@DU?$char_traits@D@std@@V?$allocator@D@2@@std@@@2@V?$allocator@U?$pair@$$CBV?$basic_string@DU?$char_traits@D@std@@V?$allocator@D@2@@std@@V?$multimap@HP6A?AV?$shared_ptr@VImageSource@cinder@@@tr1@std@@V?$shared_ptr@VDataSource@cinder@@@23@VOptions@ImageSource@cinder@@@ZU?$less@H@3@V?$allocator@U?$pair@$$CBHP6A?AV?$shared_ptr@VImageSource@cinder@@@tr1@std@@V?$shared_ptr@VDataSource@cinder@@@23@VOptions@ImageSource@cinder@@@Z@std@@@3@@2@@std@@@2@$0A@@std@@@std@@U_Iterator_base0@2@@std@@QAEAAV01@XZ 00436090 f i cinder:ImageIo.obj
 0001:00035090       ??E?$_Tree_unchecked_const_iterator@V?$_Tree_val@V?$_Tmap_traits@V?$basic_string@DU?$char_traits@D@std@@V?$allocator@D@2@@std@@V?$multimap@HU?$pair@P6A?AV?$shared_ptr@VImageTarget@cinder@@@tr1@std@@V?$shared_ptr@VDataTarget@cinder@@@23@V?$shared_ptr@VImageSource@cinder@@@23@VOptions@ImageTarget@cinder@@ABV?$basic_string@DU?$char_traits@D@std@@V?$allocator@D@2@@3@@ZV93@@std@@U?$less@H@2@V?$allocator@U?$pair@$$CBHU?$pair@P6A?AV?$shared_ptr@VImageTarget@cinder@@@tr1@std@@V?$shared_ptr@VDataTarget@cinder@@@23@V?$shared_ptr@VImageSource@cinder@@@23@VOptions@ImageTarget@cinder@@ABV?$basic_string@DU?$char_traits@D@std@@V?$allocator@D@2@@3@@ZV93@@std@@@std@@@2@@2@U?$less@V?$basic_string@DU?$char_traits@D@std@@V?$allocator@D@2@@std@@@2@V?$allocator@U?$pair@$$CBV?$basic_string@DU?$char_traits@D@std@@V?$allocator@D@2@@std@@V?$multimap@HU?$pair@P6A?AV?$shared_ptr@VImageTarget@cinder@@@tr1@std@@V?$shared_ptr@VDataTarget@cinder@@@23@V?$shared_ptr@VImageSource@cinder@@@23@VOptions@ImageTarget@cinder@@ABV?$basic_string@DU?$char_traits@D@std@@V?$allocator@D@2@@3@@ZV93@@std@@U?$less@H@2@V?$allocator@U?$pair@$$CBHU?$pair@P6A?AV?$shared_ptr@VImageTarget@cinder@@@tr1@std@@V?$shared_ptr@VDataTarget@cinder@@@23@V?$shared_ptr@VImageSource@cinder@@@23@VOptions@ImageTarget@cinder@@ABV?$basic_string@DU?$char_traits@D@std@@V?$allocator@D@2@@3@@ZV93@@std@@@std@@@2@@2@@std@@@2@$0A@@std@@@std@@U_Iterator_base0@2@@std@@QAEAAV01@XZ 00436090 f i cinder:ImageIo.obj
 0001:000350e0       ??E?$_Tree_unchecked_const_iterator@V?$_Tree_val@V?$_Tmap_traits@HP6A?AV?$shared_ptr@VImageSource@cinder@@@tr1@std@@V?$shared_ptr@VDataSource@cinder@@@23@VOptions@ImageSource@cinder@@@ZU?$less@H@3@V?$allocator@U?$pair@$$CBHP6A?AV?$shared_ptr@VImageSource@cinder@@@tr1@std@@V?$shared_ptr@VDataSource@cinder@@@23@VOptions@ImageSource@cinder@@@Z@std@@@3@$00@std@@@std@@U_Iterator_base0@2@@std@@QAEAAV01@XZ 004360e0 f i cinder:ImageIo.obj
 0001:000350e0       ??E?$_Tree_unchecked_const_iterator@V?$_Tree_val@V?$_Tmap_traits@HP6A?AV?$shared_ptr@VImageSource@cinder@@@tr1@std@@V?$shared_ptr@VDataSource@cinder@@@23@VOptions@ImageSource@cinder@@@ZU?$less@H@3@V?$allocator@U?$pair@$$CBHP6A?AV?$shared_ptr@VImageSource@cinder@@@tr1@std@@V?$shared_ptr@VDataSource@cinder@@@23@VOptions@ImageSource@cinder@@@Z@std@@@3@$0A@@std@@@std@@U_Iterator_base0@2@@std@@QAEAAV01@XZ 004360e0 f i cinder:ImageIo.obj
 0001:00035130       ?_Lrotate@?$_Tree@V?$_Tmap_traits@HP6A?AV?$shared_ptr@VImageSource@cinder@@@tr1@std@@V?$shared_ptr@VDataSource@cinder@@@23@VOptions@ImageSource@cinder@@@ZU?$less@H@3@V?$allocator@U?$pair@$$CBHP6A?AV?$shared_ptr@VImageSource@cinder@@@tr1@std@@V?$shared_ptr@VDataSource@cinder@@@23@VOptions@ImageSource@cinder@@@Z@std@@@3@$00@std@@@std@@IAEXPAU_Node@?$_Tree_nod@V?$_Tmap_traits@HP6A?AV?$shared_ptr@VImageSource@cinder@@@tr1@std@@V?$shared_ptr@VDataSource@cinder@@@23@VOptions@ImageSource@cinder@@@ZU?$less@H@3@V?$allocator@U?$pair@$$CBHP6A?AV?$shared_ptr@VImageSource@cinder@@@tr1@std@@V?$shared_ptr@VDataSource@cinder@@@23@VOptions@ImageSource@cinder@@@Z@std@@@3@$00@std@@@2@@Z 00436130 f i cinder:ImageIo.obj
 0001:00035130       ?_Lrotate@?$_Tree@V?$_Tmap_traits@HP6A?AV?$shared_ptr@VImageSource@cinder@@@tr1@std@@V?$shared_ptr@VDataSource@cinder@@@23@VOptions@ImageSource@cinder@@@ZU?$less@H@3@V?$allocator@U?$pair@$$CBHP6A?AV?$shared_ptr@VImageSource@cinder@@@tr1@std@@V?$shared_ptr@VDataSource@cinder@@@23@VOptions@ImageSource@cinder@@@Z@std@@@3@$0A@@std@@@std@@IAEXPAU_Node@?$_Tree_nod@V?$_Tmap_traits@HP6A?AV?$shared_ptr@VImageSource@cinder@@@tr1@std@@V?$shared_ptr@VDataSource@cinder@@@23@VOptions@ImageSource@cinder@@@ZU?$less@H@3@V?$allocator@U?$pair@$$CBHP6A?AV?$shared_ptr@VImageSource@cinder@@@tr1@std@@V?$shared_ptr@VDataSource@cinder@@@23@VOptions@ImageSource@cinder@@@Z@std@@@3@$0A@@std@@@2@@Z 00436130 f i cinder:ImageIo.obj
 0001:00035190       ?_Lrotate@?$_Tree@V?$_Tmap_traits@HU?$pair@P6A?AV?$shared_ptr@VImageTarget@cinder@@@tr1@std@@V?$shared_ptr@VDataTarget@cinder@@@23@V?$shared_ptr@VImageSource@cinder@@@23@VOptions@ImageTarget@cinder@@ABV?$basic_string@DU?$char_traits@D@std@@V?$allocator@D@2@@3@@ZV93@@std@@U?$less@H@2@V?$allocator@U?$pair@$$CBHU?$pair@P6A?AV?$shared_ptr@VImageTarget@cinder@@@tr1@std@@V?$shared_ptr@VDataTarget@cinder@@@23@V?$shared_ptr@VImageSource@cinder@@@23@VOptions@ImageTarget@cinder@@ABV?$basic_string@DU?$char_traits@D@std@@V?$allocator@D@2@@3@@ZV93@@std@@@std@@@2@$00@std@@@std@@IAEXPAU_Node@?$_Tree_nod@V?$_Tmap_traits@HU?$pair@P6A?AV?$shared_ptr@VImageTarget@cinder@@@tr1@std@@V?$shared_ptr@VDataTarget@cinder@@@23@V?$shared_ptr@VImageSource@cinder@@@23@VOptions@ImageTarget@cinder@@ABV?$basic_string@DU?$char_traits@D@std@@V?$allocator@D@2@@3@@ZV93@@std@@U?$less@H@2@V?$allocator@U?$pair@$$CBHU?$pair@P6A?AV?$shared_ptr@VImageTarget@cinder@@@tr1@std@@V?$shared_ptr@VDataTarget@cinder@@@23@V?$shared_ptr@VImageSource@cinder@@@23@VOptions@ImageTarget@cinder@@ABV?$basic_string@DU?$char_traits@D@std@@V?$allocator@D@2@@3@@ZV93@@std@@@std@@@2@$00@std@@@2@@Z 00436190 f i cinder:ImageIo.obj
 0001:000351f0       ?translateRgbColorModelToOffsets@ImageIo@cinder@@SAXW4ChannelOrder@12@PAC1111@Z 004361f0 f   cinder:ImageIo.obj
 0001:000353b0       ??0ImageIoExceptionIllegalChannelOrder@cinder@@QAE@ABV01@@Z 004363b0 f i cinder:ImageIo.obj
 0001:000353d0       ?_Insert@?$_Tree@V?$_Tmap_traits@HP6A?AV?$shared_ptr@VImageSource@cinder@@@tr1@std@@V?$shared_ptr@VDataSource@cinder@@@23@VOptions@ImageSource@cinder@@@ZU?$less@H@3@V?$allocator@U?$pair@$$CBHP6A?AV?$shared_ptr@VImageSource@cinder@@@tr1@std@@V?$shared_ptr@VDataSource@cinder@@@23@VOptions@ImageSource@cinder@@@Z@std@@@3@$0A@@std@@@std@@IAE?AV?$_Tree_iterator@V?$_Tree_val@V?$_Tmap_traits@HP6A?AV?$shared_ptr@VImageSource@cinder@@@tr1@std@@V?$shared_ptr@VDataSource@cinder@@@23@VOptions@ImageSource@cinder@@@ZU?$less@H@3@V?$allocator@U?$pair@$$CBHP6A?AV?$shared_ptr@VImageSource@cinder@@@tr1@std@@V?$shared_ptr@VDataSource@cinder@@@23@VOptions@ImageSource@cinder@@@Z@std@@@3@$0A@@std@@@std@@@2@_NPAU_Node@?$_Tree_nod@V?$_Tmap_traits@HP6A?AV?$shared_ptr@VImageSource@cinder@@@tr1@std@@V?$shared_ptr@VDataSource@cinder@@@23@VOptions@ImageSource@cinder@@@ZU?$less@H@3@V?$allocator@U?$pair@$$CBHP6A?AV?$shared_ptr@VImageSource@cinder@@@tr1@std@@V?$shared_ptr@VDataSource@cinder@@@23@VOptions@ImageSource@cinder@@@Z@std@@@3@$0A@@std@@@2@1@Z 004363d0 f i cinder:ImageIo.obj
 0001:00035600       ??$_Transform@PADV?$_String_iterator@DU?$char_traits@D@std@@V?$allocator@D@2@@std@@P6AHH@Z@std@@YA?AV?$_String_iterator@DU?$char_traits@D@std@@V?$allocator@D@2@@0@PAD0V10@P6AHH@Z@Z 00436600 f i cinder:ImageIo.obj
 0001:00035640       ??$rowFuncSourceRgb@EE$0A@$00@ImageSource@cinder@@IAEXV?$shared_ptr@VImageTarget@cinder@@@tr1@std@@HPBX@Z 00436640 f i cinder:ImageIo.obj
 0001:00035730       ??$rowFuncSourceRgb@EE$0A@$0A@@ImageSource@cinder@@IAEXV?$shared_ptr@VImageTarget@cinder@@@tr1@std@@HPBX@Z 00436730 f i cinder:ImageIo.obj
 0001:00035810       ??$rowFuncSourceGray@EE$0A@$00@ImageSource@cinder@@IAEXV?$shared_ptr@VImageTarget@cinder@@@tr1@std@@HPBX@Z 00436810 f i cinder:ImageIo.obj
 0001:000358f0       ??$rowFuncSourceGray@EE$0A@$0A@@ImageSource@cinder@@IAEXV?$shared_ptr@VImageTarget@cinder@@@tr1@std@@HPBX@Z 004368f0 f i cinder:ImageIo.obj
 0001:000359c0       ??$rowFuncSourceRgb@EE$00$00@ImageSource@cinder@@IAEXV?$shared_ptr@VImageTarget@cinder@@@tr1@std@@HPBX@Z 004369c0 f i cinder:ImageIo.obj
 0001:00035ab0       ??$rowFuncSourceRgb@EE$00$0A@@ImageSource@cinder@@IAEXV?$shared_ptr@VImageTarget@cinder@@@tr1@std@@HPBX@Z 00436ab0 f i cinder:ImageIo.obj
 0001:00035b90       ??$rowFuncSourceGray@EE$00$00@ImageSource@cinder@@IAEXV?$shared_ptr@VImageTarget@cinder@@@tr1@std@@HPBX@Z 00436b90 f i cinder:ImageIo.obj
 0001:00035c50       ??$rowFuncSourceGray@EE$00$0A@@ImageSource@cinder@@IAEXV?$shared_ptr@VImageTarget@cinder@@@tr1@std@@HPBX@Z 00436c50 f i cinder:ImageIo.obj
 0001:00035d00       ??$rowFuncSourceRgb@EG$0A@$00@ImageSource@cinder@@IAEXV?$shared_ptr@VImageTarget@cinder@@@tr1@std@@HPBX@Z 00436d00 f i cinder:ImageIo.obj
 0001:00035e00       ??$rowFuncSourceRgb@EG$0A@$0A@@ImageSource@cinder@@IAEXV?$shared_ptr@VImageTarget@cinder@@@tr1@std@@HPBX@Z 00436e00 f i cinder:ImageIo.obj
 0001:00035ef0       ??$rowFuncSourceGray@EG$0A@$00@ImageSource@cinder@@IAEXV?$shared_ptr@VImageTarget@cinder@@@tr1@std@@HPBX@Z 00436ef0 f i cinder:ImageIo.obj
 0001:00035fe0       ??$rowFuncSourceGray@EG$0A@$0A@@ImageSource@cinder@@IAEXV?$shared_ptr@VImageTarget@cinder@@@tr1@std@@HPBX@Z 00436fe0 f i cinder:ImageIo.obj
 0001:000360b0       ??$rowFuncSourceRgb@EG$00$00@ImageSource@cinder@@IAEXV?$shared_ptr@VImageTarget@cinder@@@tr1@std@@HPBX@Z 004370b0 f i cinder:ImageIo.obj
 0001:000361b0       ??$rowFuncSourceRgb@EG$00$0A@@ImageSource@cinder@@IAEXV?$shared_ptr@VImageTarget@cinder@@@tr1@std@@HPBX@Z 004371b0 f i cinder:ImageIo.obj
 0001:000362a0       ??$rowFuncSourceGray@EG$00$00@ImageSource@cinder@@IAEXV?$shared_ptr@VImageTarget@cinder@@@tr1@std@@HPBX@Z 004372a0 f i cinder:ImageIo.obj
 0001:00036380       ??$rowFuncSourceGray@EG$00$0A@@ImageSource@cinder@@IAEXV?$shared_ptr@VImageTarget@cinder@@@tr1@std@@HPBX@Z 00437380 f i cinder:ImageIo.obj
 0001:00036440       ??$rowFuncSourceRgb@EM$0A@$00@ImageSource@cinder@@IAEXV?$shared_ptr@VImageTarget@cinder@@@tr1@std@@HPBX@Z 00437440 f i cinder:ImageIo.obj
 0001:000367a0       ??$rowFuncSourceRgb@EM$0A@$0A@@ImageSource@cinder@@IAEXV?$shared_ptr@VImageTarget@cinder@@@tr1@std@@HPBX@Z 004377a0 f i cinder:ImageIo.obj
 0001:00036a60       ??$rowFuncSourceGray@EM$0A@$00@ImageSource@cinder@@IAEXV?$shared_ptr@VImageTarget@cinder@@@tr1@std@@HPBX@Z 00437a60 f i cinder:ImageIo.obj
 0001:00036cd0       ??$rowFuncSourceGray@EM$0A@$0A@@ImageSource@cinder@@IAEXV?$shared_ptr@VImageTarget@cinder@@@tr1@std@@HPBX@Z 00437cd0 f i cinder:ImageIo.obj
 0001:00036eb0       ??$rowFuncSourceRgb@EM$00$00@ImageSource@cinder@@IAEXV?$shared_ptr@VImageTarget@cinder@@@tr1@std@@HPBX@Z 00437eb0 f i cinder:ImageIo.obj
 0001:000371a0       ??$rowFuncSourceRgb@EM$00$0A@@ImageSource@cinder@@IAEXV?$shared_ptr@VImageTarget@cinder@@@tr1@std@@HPBX@Z 004381a0 f i cinder:ImageIo.obj
 0001:00037400       ??$rowFuncSourceGray@EM$00$00@ImageSource@cinder@@IAEXV?$shared_ptr@VImageTarget@cinder@@@tr1@std@@HPBX@Z 00438400 f i cinder:ImageIo.obj
 0001:00037600       ??$rowFuncSourceGray@EM$00$0A@@ImageSource@cinder@@IAEXV?$shared_ptr@VImageTarget@cinder@@@tr1@std@@HPBX@Z 00438600 f i cinder:ImageIo.obj
 0001:00037770       ??$rowFuncSourceRgb@GE$0A@$00@ImageSource@cinder@@IAEXV?$shared_ptr@VImageTarget@cinder@@@tr1@std@@HPBX@Z 00438770 f i cinder:ImageIo.obj
 0001:000378a0       ??$rowFuncSourceRgb@GE$0A@$0A@@ImageSource@cinder@@IAEXV?$shared_ptr@VImageTarget@cinder@@@tr1@std@@HPBX@Z 004388a0 f i cinder:ImageIo.obj
 0001:000379b0       ??$rowFuncSourceGray@GE$0A@$00@ImageSource@cinder@@IAEXV?$shared_ptr@VImageTarget@cinder@@@tr1@std@@HPBX@Z 004389b0 f i cinder:ImageIo.obj
 0001:00037ab0       ??$rowFuncSourceGray@GE$0A@$0A@@ImageSource@cinder@@IAEXV?$shared_ptr@VImageTarget@cinder@@@tr1@std@@HPBX@Z 00438ab0 f i cinder:ImageIo.obj
 0001:00037b90       ??$rowFuncSourceRgb@GE$00$00@ImageSource@cinder@@IAEXV?$shared_ptr@VImageTarget@cinder@@@tr1@std@@HPBX@Z 00438b90 f i cinder:ImageIo.obj
 0001:00037cb0       ??$rowFuncSourceRgb@GE$00$0A@@ImageSource@cinder@@IAEXV?$shared_ptr@VImageTarget@cinder@@@tr1@std@@HPBX@Z 00438cb0 f i cinder:ImageIo.obj
 0001:00037db0       ??$rowFuncSourceGray@GE$00$00@ImageSource@cinder@@IAEXV?$shared_ptr@VImageTarget@cinder@@@tr1@std@@HPBX@Z 00438db0 f i cinder:ImageIo.obj
 0001:00037ea0       ??$rowFuncSourceGray@GE$00$0A@@ImageSource@cinder@@IAEXV?$shared_ptr@VImageTarget@cinder@@@tr1@std@@HPBX@Z 00438ea0 f i cinder:ImageIo.obj
 0001:00037f70       ??$rowFuncSourceRgb@GG$0A@$00@ImageSource@cinder@@IAEXV?$shared_ptr@VImageTarget@cinder@@@tr1@std@@HPBX@Z 00438f70 f i cinder:ImageIo.obj
 0001:00038060       ??$rowFuncSourceRgb@GG$0A@$0A@@ImageSource@cinder@@IAEXV?$shared_ptr@VImageTarget@cinder@@@tr1@std@@HPBX@Z 00439060 f i cinder:ImageIo.obj
 0001:00038140       ??$rowFuncSourceGray@GG$0A@$00@ImageSource@cinder@@IAEXV?$shared_ptr@VImageTarget@cinder@@@tr1@std@@HPBX@Z 00439140 f i cinder:ImageIo.obj
 0001:00038220       ??$rowFuncSourceGray@GG$0A@$0A@@ImageSource@cinder@@IAEXV?$shared_ptr@VImageTarget@cinder@@@tr1@std@@HPBX@Z 00439220 f i cinder:ImageIo.obj
 0001:000382f0       ??$rowFuncSourceRgb@GG$00$00@ImageSource@cinder@@IAEXV?$shared_ptr@VImageTarget@cinder@@@tr1@std@@HPBX@Z 004392f0 f i cinder:ImageIo.obj
 0001:000383f0       ??$rowFuncSourceRgb@GG$00$0A@@ImageSource@cinder@@IAEXV?$shared_ptr@VImageTarget@cinder@@@tr1@std@@HPBX@Z 004393f0 f i cinder:ImageIo.obj
 0001:000384e0       ??$rowFuncSourceGray@GG$00$00@ImageSource@cinder@@IAEXV?$shared_ptr@VImageTarget@cinder@@@tr1@std@@HPBX@Z 004394e0 f i cinder:ImageIo.obj
 0001:000385a0       ??$rowFuncSourceGray@GG$00$0A@@ImageSource@cinder@@IAEXV?$shared_ptr@VImageTarget@cinder@@@tr1@std@@HPBX@Z 004395a0 f i cinder:ImageIo.obj
 0001:00038650       ??$rowFuncSourceRgb@GM$0A@$00@ImageSource@cinder@@IAEXV?$shared_ptr@VImageTarget@cinder@@@tr1@std@@HPBX@Z 00439650 f i cinder:ImageIo.obj
 0001:000389b0       ??$rowFuncSourceRgb@GM$0A@$0A@@ImageSource@cinder@@IAEXV?$shared_ptr@VImageTarget@cinder@@@tr1@std@@HPBX@Z 004399b0 f i cinder:ImageIo.obj
 0001:00038c70       ??$rowFuncSourceGray@GM$0A@$00@ImageSource@cinder@@IAEXV?$shared_ptr@VImageTarget@cinder@@@tr1@std@@HPBX@Z 00439c70 f i cinder:ImageIo.obj
 0001:00038ef0       ??$rowFuncSourceGray@GM$0A@$0A@@ImageSource@cinder@@IAEXV?$shared_ptr@VImageTarget@cinder@@@tr1@std@@HPBX@Z 00439ef0 f i cinder:ImageIo.obj
 0001:000390e0       ??$rowFuncSourceRgb@GM$00$00@ImageSource@cinder@@IAEXV?$shared_ptr@VImageTarget@cinder@@@tr1@std@@HPBX@Z 0043a0e0 f i cinder:ImageIo.obj
 0001:000393f0       ??$rowFuncSourceRgb@GM$00$0A@@ImageSource@cinder@@IAEXV?$shared_ptr@VImageTarget@cinder@@@tr1@std@@HPBX@Z 0043a3f0 f i cinder:ImageIo.obj
 0001:00039670       ??$rowFuncSourceGray@GM$00$00@ImageSource@cinder@@IAEXV?$shared_ptr@VImageTarget@cinder@@@tr1@std@@HPBX@Z 0043a670 f i cinder:ImageIo.obj
 0001:00039880       ??$rowFuncSourceGray@GM$00$0A@@ImageSource@cinder@@IAEXV?$shared_ptr@VImageTarget@cinder@@@tr1@std@@HPBX@Z 0043a880 f i cinder:ImageIo.obj
 0001:000399f0       ??$rowFuncSourceRgb@ME$0A@$00@ImageSource@cinder@@IAEXV?$shared_ptr@VImageTarget@cinder@@@tr1@std@@HPBX@Z 0043a9f0 f i cinder:ImageIo.obj
 0001:00039b60       ??$rowFuncSourceRgb@ME$0A@$0A@@ImageSource@cinder@@IAEXV?$shared_ptr@VImageTarget@cinder@@@tr1@std@@HPBX@Z 0043ab60 f i cinder:ImageIo.obj
 0001:00039ca0       ??$rowFuncSourceGray@ME$0A@$00@ImageSource@cinder@@IAEXV?$shared_ptr@VImageTarget@cinder@@@tr1@std@@HPBX@Z 0043aca0 f i cinder:ImageIo.obj
 0001:00039db0       ??$rowFuncSourceGray@ME$0A@$0A@@ImageSource@cinder@@IAEXV?$shared_ptr@VImageTarget@cinder@@@tr1@std@@HPBX@Z 0043adb0 f i cinder:ImageIo.obj
 0001:00039ea0       ??$rowFuncSourceRgb@ME$00$00@ImageSource@cinder@@IAEXV?$shared_ptr@VImageTarget@cinder@@@tr1@std@@HPBX@Z 0043aea0 f i cinder:ImageIo.obj
 0001:00039ff0       ??$rowFuncSourceRgb@ME$00$0A@@ImageSource@cinder@@IAEXV?$shared_ptr@VImageTarget@cinder@@@tr1@std@@HPBX@Z 0043aff0 f i cinder:ImageIo.obj
 0001:0003a100       ??$rowFuncSourceGray@ME$00$00@ImageSource@cinder@@IAEXV?$shared_ptr@VImageTarget@cinder@@@tr1@std@@HPBX@Z 0043b100 f i cinder:ImageIo.obj
 0001:0003a200       ??$rowFuncSourceGray@ME$00$0A@@ImageSource@cinder@@IAEXV?$shared_ptr@VImageTarget@cinder@@@tr1@std@@HPBX@Z 0043b200 f i cinder:ImageIo.obj
 0001:0003a2e0       ??$rowFuncSourceRgb@MG$0A@$00@ImageSource@cinder@@IAEXV?$shared_ptr@VImageTarget@cinder@@@tr1@std@@HPBX@Z 0043b2e0 f i cinder:ImageIo.obj
 0001:0003a450       ??$rowFuncSourceRgb@MG$0A@$0A@@ImageSource@cinder@@IAEXV?$shared_ptr@VImageTarget@cinder@@@tr1@std@@HPBX@Z 0043b450 f i cinder:ImageIo.obj
 0001:0003a590       ??$rowFuncSourceGray@MG$0A@$00@ImageSource@cinder@@IAEXV?$shared_ptr@VImageTarget@cinder@@@tr1@std@@HPBX@Z 0043b590 f i cinder:ImageIo.obj
 0001:0003a6b0       ??$rowFuncSourceGray@MG$0A@$0A@@ImageSource@cinder@@IAEXV?$shared_ptr@VImageTarget@cinder@@@tr1@std@@HPBX@Z 0043b6b0 f i cinder:ImageIo.obj
 0001:0003a7a0       ??$rowFuncSourceRgb@MG$00$00@ImageSource@cinder@@IAEXV?$shared_ptr@VImageTarget@cinder@@@tr1@std@@HPBX@Z 0043b7a0 f i cinder:ImageIo.obj
 0001:0003a8f0       ??$rowFuncSourceRgb@MG$00$0A@@ImageSource@cinder@@IAEXV?$shared_ptr@VImageTarget@cinder@@@tr1@std@@HPBX@Z 0043b8f0 f i cinder:ImageIo.obj
 0001:0003aa10       ??$rowFuncSourceGray@MG$00$00@ImageSource@cinder@@IAEXV?$shared_ptr@VImageTarget@cinder@@@tr1@std@@HPBX@Z 0043ba10 f i cinder:ImageIo.obj
 0001:0003ab20       ??$rowFuncSourceGray@MG$00$0A@@ImageSource@cinder@@IAEXV?$shared_ptr@VImageTarget@cinder@@@tr1@std@@HPBX@Z 0043bb20 f i cinder:ImageIo.obj
 0001:0003ac00       ??$rowFuncSourceRgb@MM$0A@$00@ImageSource@cinder@@IAEXV?$shared_ptr@VImageTarget@cinder@@@tr1@std@@HPBX@Z 0043bc00 f i cinder:ImageIo.obj
 0001:0003ae60       ??$rowFuncSourceRgb@MM$0A@$0A@@ImageSource@cinder@@IAEXV?$shared_ptr@VImageTarget@cinder@@@tr1@std@@HPBX@Z 0043be60 f i cinder:ImageIo.obj
 0001:0003b060       ??$rowFuncSourceGray@MM$0A@$00@ImageSource@cinder@@IAEXV?$shared_ptr@VImageTarget@cinder@@@tr1@std@@HPBX@Z 0043c060 f i cinder:ImageIo.obj
 0001:0003b270       ??$rowFuncSourceGray@MM$0A@$0A@@ImageSource@cinder@@IAEXV?$shared_ptr@VImageTarget@cinder@@@tr1@std@@HPBX@Z 0043c270 f i cinder:ImageIo.obj
 0001:0003b420       ??$rowFuncSourceRgb@MM$00$00@ImageSource@cinder@@IAEXV?$shared_ptr@VImageTarget@cinder@@@tr1@std@@HPBX@Z 0043c420 f i cinder:ImageIo.obj
 0001:0003b670       ??$rowFuncSourceRgb@MM$00$0A@@ImageSource@cinder@@IAEXV?$shared_ptr@VImageTarget@cinder@@@tr1@std@@HPBX@Z 0043c670 f i cinder:ImageIo.obj
 0001:0003b870       ??$rowFuncSourceGray@MM$00$00@ImageSource@cinder@@IAEXV?$shared_ptr@VImageTarget@cinder@@@tr1@std@@HPBX@Z 0043c870 f i cinder:ImageIo.obj
 0001:0003ba30       ??$rowFuncSourceGray@MM$00$0A@@ImageSource@cinder@@IAEXV?$shared_ptr@VImageTarget@cinder@@@tr1@std@@HPBX@Z 0043ca30 f i cinder:ImageIo.obj
 0001:0003bb90       ?setupRowFuncRgbSource@ImageSource@cinder@@IAEXV?$shared_ptr@VImageTarget@cinder@@@tr1@std@@@Z 0043cb90 f   cinder:ImageIo.obj
 0001:0003bca0       ?setupRowFuncGraySource@ImageSource@cinder@@IAEXV?$shared_ptr@VImageTarget@cinder@@@tr1@std@@@Z 0043cca0 f   cinder:ImageIo.obj
 0001:0003bdc0       ?_Lbound@?$_Tree@V?$_Tmap_traits@V?$basic_string@DU?$char_traits@D@std@@V?$allocator@D@2@@std@@V?$multimap@HU?$pair@P6A?AV?$shared_ptr@VImageTarget@cinder@@@tr1@std@@V?$shared_ptr@VDataTarget@cinder@@@23@V?$shared_ptr@VImageSource@cinder@@@23@VOptions@ImageTarget@cinder@@ABV?$basic_string@DU?$char_traits@D@std@@V?$allocator@D@2@@3@@ZV93@@std@@U?$less@H@2@V?$allocator@U?$pair@$$CBHU?$pair@P6A?AV?$shared_ptr@VImageTarget@cinder@@@tr1@std@@V?$shared_ptr@VDataTarget@cinder@@@23@V?$shared_ptr@VImageSource@cinder@@@23@VOptions@ImageTarget@cinder@@ABV?$basic_string@DU?$char_traits@D@std@@V?$allocator@D@2@@3@@ZV93@@std@@@std@@@2@@2@U?$less@V?$basic_string@DU?$char_traits@D@std@@V?$allocator@D@2@@std@@@2@V?$allocator@U?$pair@$$CBV?$basic_string@DU?$char_traits@D@std@@V?$allocator@D@2@@std@@V?$multimap@HU?$pair@P6A?AV?$shared_ptr@VImageTarget@cinder@@@tr1@std@@V?$shared_ptr@VDataTarget@cinder@@@23@V?$shared_ptr@VImageSource@cinder@@@23@VOptions@ImageTarget@cinder@@ABV?$basic_string@DU?$char_traits@D@std@@V?$allocator@D@2@@3@@ZV93@@std@@U?$less@H@2@V?$allocator@U?$pair@$$CBHU?$pair@P6A?AV?$shared_ptr@VImageTarget@cinder@@@tr1@std@@V?$shared_ptr@VDataTarget@cinder@@@23@V?$shared_ptr@VImageSource@cinder@@@23@VOptions@ImageTarget@cinder@@ABV?$basic_string@DU?$char_traits@D@std@@V?$allocator@D@2@@3@@ZV93@@std@@@std@@@2@@2@@std@@@2@$0A@@std@@@std@@IAEPAU_Node@?$_Tree_nod@V?$_Tmap_traits@V?$basic_string@DU?$char_traits@D@std@@V?$allocator@D@2@@std@@V?$multimap@HU?$pair@P6A?AV?$shared_ptr@VImageTarget@cinder@@@tr1@std@@V?$shared_ptr@VDataTarget@cinder@@@23@V?$shared_ptr@VImageSource@cinder@@@23@VOptions@ImageTarget@cinder@@ABV?$basic_string@DU?$char_traits@D@std@@V?$allocator@D@2@@3@@ZV93@@std@@U?$less@H@2@V?$allocator@U?$pair@$$CBHU?$pair@P6A?AV?$shared_ptr@VImageTarget@cinder@@@tr1@std@@V?$shared_ptr@VDataTarget@cinder@@@23@V?$shared_ptr@VImageSource@cinder@@@23@VOptions@ImageTarget@cinder@@ABV?$basic_string@DU?$char_traits@D@std@@V?$allocator@D@2@@3@@ZV93@@std@@@std@@@2@@2@U?$less@V?$basic_string@DU?$char_traits@D@std@@V?$allocator@D@2@@std@@@2@V?$allocator@U?$pair@$$CBV?$basic_string@DU?$char_traits@D@std@@V?$allocator@D@2@@std@@V?$multimap@HU?$pair@P6A?AV?$shared_ptr@VImageTarget@cinder@@@tr1@std@@V?$shared_ptr@VDataTarget@cinder@@@23@V?$shared_ptr@VImageSource@cinder@@@23@VOptions@ImageTarget@cinder@@ABV?$basic_string@DU?$char_traits@D@std@@V?$allocator@D@2@@3@@ZV93@@std@@U?$less@H@2@V?$allocator@U?$pair@$$CBHU?$pair@P6A?AV?$shared_ptr@VImageTarget@cinder@@@tr1@std@@V?$shared_ptr@VDataTarget@cinder@@@23@V?$shared_ptr@VImageSource@cinder@@@23@VOptions@ImageTarget@cinder@@ABV?$basic_string@DU?$char_traits@D@std@@V?$allocator@D@2@@3@@ZV93@@std@@@std@@@2@@2@@std@@@2@$0A@@std@@@2@ABV?$basic_string@DU?$char_traits@D@std@@V?$allocator@D@2@@2@@Z 0043cdc0 f i cinder:ImageIo.obj
 0001:0003be50       ?erase@?$_Tree@V?$_Tmap_traits@HP6A?AV?$shared_ptr@VImageSource@cinder@@@tr1@std@@V?$shared_ptr@VDataSource@cinder@@@23@VOptions@ImageSource@cinder@@@ZU?$less@H@3@V?$allocator@U?$pair@$$CBHP6A?AV?$shared_ptr@VImageSource@cinder@@@tr1@std@@V?$shared_ptr@VDataSource@cinder@@@23@VOptions@ImageSource@cinder@@@Z@std@@@3@$0A@@std@@@std@@QAE?AV?$_Tree_iterator@V?$_Tree_val@V?$_Tmap_traits@HP6A?AV?$shared_ptr@VImageSource@cinder@@@tr1@std@@V?$shared_ptr@VDataSource@cinder@@@23@VOptions@ImageSource@cinder@@@ZU?$less@H@3@V?$allocator@U?$pair@$$CBHP6A?AV?$shared_ptr@VImageSource@cinder@@@tr1@std@@V?$shared_ptr@VDataSource@cinder@@@23@VOptions@ImageSource@cinder@@@Z@std@@@3@$0A@@std@@@std@@@2@V?$_Tree_const_iterator@V?$_Tree_val@V?$_Tmap_traits@HP6A?AV?$shared_ptr@VImageSource@cinder@@@tr1@std@@V?$shared_ptr@VDataSource@cinder@@@23@VOptions@ImageSource@cinder@@@ZU?$less@H@3@V?$allocator@U?$pair@$$CBHP6A?AV?$shared_ptr@VImageSource@cinder@@@tr1@std@@V?$shared_ptr@VDataSource@cinder@@@23@VOptions@ImageSource@cinder@@@Z@std@@@3@$0A@@std@@@std@@@2@@Z 0043ce50 f i cinder:ImageIo.obj
 0001:0003be50       ?erase@?$_Tree@V?$_Tmap_traits@HP6A?AV?$shared_ptr@VImageSource@cinder@@@tr1@std@@V?$shared_ptr@VDataSource@cinder@@@23@VOptions@ImageSource@cinder@@@ZU?$less@H@3@V?$allocator@U?$pair@$$CBHP6A?AV?$shared_ptr@VImageSource@cinder@@@tr1@std@@V?$shared_ptr@VDataSource@cinder@@@23@VOptions@ImageSource@cinder@@@Z@std@@@3@$00@std@@@std@@QAE?AV?$_Tree_iterator@V?$_Tree_val@V?$_Tmap_traits@HP6A?AV?$shared_ptr@VImageSource@cinder@@@tr1@std@@V?$shared_ptr@VDataSource@cinder@@@23@VOptions@ImageSource@cinder@@@ZU?$less@H@3@V?$allocator@U?$pair@$$CBHP6A?AV?$shared_ptr@VImageSource@cinder@@@tr1@std@@V?$shared_ptr@VDataSource@cinder@@@23@VOptions@ImageSource@cinder@@@Z@std@@@3@$00@std@@@std@@@2@V?$_Tree_const_iterator@V?$_Tree_val@V?$_Tmap_traits@HP6A?AV?$shared_ptr@VImageSource@cinder@@@tr1@std@@V?$shared_ptr@VDataSource@cinder@@@23@VOptions@ImageSource@cinder@@@ZU?$less@H@3@V?$allocator@U?$pair@$$CBHP6A?AV?$shared_ptr@VImageSource@cinder@@@tr1@std@@V?$shared_ptr@VDataSource@cinder@@@23@VOptions@ImageSource@cinder@@@Z@std@@@3@$00@std@@@std@@@2@@Z 0043ce50 f i cinder:ImageIo.obj
 0001:0003c0a0       ?_Erase@?$_Tree@V?$_Tmap_traits@HP6A?AV?$shared_ptr@VImageSource@cinder@@@tr1@std@@V?$shared_ptr@VDataSource@cinder@@@23@VOptions@ImageSource@cinder@@@ZU?$less@H@3@V?$allocator@U?$pair@$$CBHP6A?AV?$shared_ptr@VImageSource@cinder@@@tr1@std@@V?$shared_ptr@VDataSource@cinder@@@23@VOptions@ImageSource@cinder@@@Z@std@@@3@$00@std@@@std@@IAEXPAU_Node@?$_Tree_nod@V?$_Tmap_traits@HP6A?AV?$shared_ptr@VImageSource@cinder@@@tr1@std@@V?$shared_ptr@VDataSource@cinder@@@23@VOptions@ImageSource@cinder@@@ZU?$less@H@3@V?$allocator@U?$pair@$$CBHP6A?AV?$shared_ptr@VImageSource@cinder@@@tr1@std@@V?$shared_ptr@VDataSource@cinder@@@23@VOptions@ImageSource@cinder@@@Z@std@@@3@$00@std@@@2@@Z 0043d0a0 f i cinder:ImageIo.obj
 0001:0003c0a0       ?_Erase@?$_Tree@V?$_Tmap_traits@HP6A?AV?$shared_ptr@VImageSource@cinder@@@tr1@std@@V?$shared_ptr@VDataSource@cinder@@@23@VOptions@ImageSource@cinder@@@ZU?$less@H@3@V?$allocator@U?$pair@$$CBHP6A?AV?$shared_ptr@VImageSource@cinder@@@tr1@std@@V?$shared_ptr@VDataSource@cinder@@@23@VOptions@ImageSource@cinder@@@Z@std@@@3@$0A@@std@@@std@@IAEXPAU_Node@?$_Tree_nod@V?$_Tmap_traits@HP6A?AV?$shared_ptr@VImageSource@cinder@@@tr1@std@@V?$shared_ptr@VDataSource@cinder@@@23@VOptions@ImageSource@cinder@@@ZU?$less@H@3@V?$allocator@U?$pair@$$CBHP6A?AV?$shared_ptr@VImageSource@cinder@@@tr1@std@@V?$shared_ptr@VDataSource@cinder@@@23@VOptions@ImageSource@cinder@@@Z@std@@@3@$0A@@std@@@2@@Z 0043d0a0 f i cinder:ImageIo.obj
 0001:0003c0e0       ?_Linsert@?$_Tree@V?$_Tmap_traits@HP6A?AV?$shared_ptr@VImageSource@cinder@@@tr1@std@@V?$shared_ptr@VDataSource@cinder@@@23@VOptions@ImageSource@cinder@@@ZU?$less@H@3@V?$allocator@U?$pair@$$CBHP6A?AV?$shared_ptr@VImageSource@cinder@@@tr1@std@@V?$shared_ptr@VDataSource@cinder@@@23@VOptions@ImageSource@cinder@@@Z@std@@@3@$0A@@std@@@std@@QAE?AU?$pair@V?$_Tree_iterator@V?$_Tree_val@V?$_Tmap_traits@HP6A?AV?$shared_ptr@VImageSource@cinder@@@tr1@std@@V?$shared_ptr@VDataSource@cinder@@@23@VOptions@ImageSource@cinder@@@ZU?$less@H@3@V?$allocator@U?$pair@$$CBHP6A?AV?$shared_ptr@VImageSource@cinder@@@tr1@std@@V?$shared_ptr@VDataSource@cinder@@@23@VOptions@ImageSource@cinder@@@Z@std@@@3@$0A@@std@@@std@@@std@@_N@2@PAU_Node@?$_Tree_nod@V?$_Tmap_traits@HP6A?AV?$shared_ptr@VImageSource@cinder@@@tr1@std@@V?$shared_ptr@VDataSource@cinder@@@23@VOptions@ImageSource@cinder@@@ZU?$less@H@3@V?$allocator@U?$pair@$$CBHP6A?AV?$shared_ptr@VImageSource@cinder@@@tr1@std@@V?$shared_ptr@VDataSource@cinder@@@23@VOptions@ImageSource@cinder@@@Z@std@@@3@$0A@@std@@@2@_N@Z 0043d0e0 f i cinder:ImageIo.obj
 0001:0003c1c0       ??1?$pair@P6A?AV?$shared_ptr@VImageTarget@cinder@@@tr1@std@@V?$shared_ptr@VDataTarget@cinder@@@23@V?$shared_ptr@VImageSource@cinder@@@23@VOptions@ImageTarget@cinder@@ABV?$basic_string@DU?$char_traits@D@std@@V?$allocator@D@2@@3@@ZV93@@std@@QAE@XZ 0043d1c0 f i cinder:ImageIo.obj
 0001:0003c1f0       ?clear@?$_Tree@V?$_Tmap_traits@HP6A?AV?$shared_ptr@VImageSource@cinder@@@tr1@std@@V?$shared_ptr@VDataSource@cinder@@@23@VOptions@ImageSource@cinder@@@ZU?$less@H@3@V?$allocator@U?$pair@$$CBHP6A?AV?$shared_ptr@VImageSource@cinder@@@tr1@std@@V?$shared_ptr@VDataSource@cinder@@@23@VOptions@ImageSource@cinder@@@Z@std@@@3@$00@std@@@std@@QAEXXZ 0043d1f0 f i cinder:ImageIo.obj
 0001:0003c1f0       ?clear@?$_Tree@V?$_Tmap_traits@HP6A?AV?$shared_ptr@VImageSource@cinder@@@tr1@std@@V?$shared_ptr@VDataSource@cinder@@@23@VOptions@ImageSource@cinder@@@ZU?$less@H@3@V?$allocator@U?$pair@$$CBHP6A?AV?$shared_ptr@VImageSource@cinder@@@tr1@std@@V?$shared_ptr@VDataSource@cinder@@@23@VOptions@ImageSource@cinder@@@Z@std@@@3@$0A@@std@@@std@@QAEXXZ 0043d1f0 f i cinder:ImageIo.obj
 0001:0003c240       ??$_Buynode@U?$pair@HP6A?AV?$shared_ptr@VImageSource@cinder@@@tr1@std@@V?$shared_ptr@VDataSource@cinder@@@23@VOptions@ImageSource@cinder@@@Z@std@@@?$_Tree_val@V?$_Tmap_traits@HP6A?AV?$shared_ptr@VImageSource@cinder@@@tr1@std@@V?$shared_ptr@VDataSource@cinder@@@23@VOptions@ImageSource@cinder@@@ZU?$less@H@3@V?$allocator@U?$pair@$$CBHP6A?AV?$shared_ptr@VImageSource@cinder@@@tr1@std@@V?$shared_ptr@VDataSource@cinder@@@23@VOptions@ImageSource@cinder@@@Z@std@@@3@$0A@@std@@@std@@QAEPAU_Node@?$_Tree_nod@V?$_Tmap_traits@HP6A?AV?$shared_ptr@VImageSource@cinder@@@tr1@std@@V?$shared_ptr@VDataSource@cinder@@@23@VOptions@ImageSource@cinder@@@ZU?$less@H@3@V?$allocator@U?$pair@$$CBHP6A?AV?$shared_ptr@VImageSource@cinder@@@tr1@std@@V?$shared_ptr@VDataSource@cinder@@@23@VOptions@ImageSource@cinder@@@Z@std@@@3@$0A@@std@@@1@$$QAU?$pair@HP6A?AV?$shared_ptr@VImageSource@cinder@@@tr1@std@@V?$shared_ptr@VDataSource@cinder@@@23@VOptions@ImageSource@cinder@@@Z@1@@Z 0043d240 f i cinder:ImageIo.obj
 0001:0003c2b0       ??$setupRowFuncForTypesAndTargetColorModel@EE$0A@@ImageSource@cinder@@IAEP801@AEXV?$shared_ptr@VImageTarget@cinder@@@tr1@std@@HPBX@Z0@Z 0043d2b0 f i cinder:ImageIo.obj
 0001:0003c4a0       ??$setupRowFuncForTypesAndTargetColorModel@EE$00@ImageSource@cinder@@IAEP801@AEXV?$shared_ptr@VImageTarget@cinder@@@tr1@std@@HPBX@Z0@Z 0043d4a0 f i cinder:ImageIo.obj
 0001:0003c690       ??$setupRowFuncForTypesAndTargetColorModel@EG$0A@@ImageSource@cinder@@IAEP801@AEXV?$shared_ptr@VImageTarget@cinder@@@tr1@std@@HPBX@Z0@Z 0043d690 f i cinder:ImageIo.obj
 0001:0003c880       ??$setupRowFuncForTypesAndTargetColorModel@EG$00@ImageSource@cinder@@IAEP801@AEXV?$shared_ptr@VImageTarget@cinder@@@tr1@std@@HPBX@Z0@Z 0043d880 f i cinder:ImageIo.obj
 0001:0003ca70       ??$setupRowFuncForTypesAndTargetColorModel@EM$0A@@ImageSource@cinder@@IAEP801@AEXV?$shared_ptr@VImageTarget@cinder@@@tr1@std@@HPBX@Z0@Z 0043da70 f i cinder:ImageIo.obj
 0001:0003cc60       ??$setupRowFuncForTypesAndTargetColorModel@EM$00@ImageSource@cinder@@IAEP801@AEXV?$shared_ptr@VImageTarget@cinder@@@tr1@std@@HPBX@Z0@Z 0043dc60 f i cinder:ImageIo.obj
 0001:0003ce50       ??$setupRowFuncForTypesAndTargetColorModel@GE$0A@@ImageSource@cinder@@IAEP801@AEXV?$shared_ptr@VImageTarget@cinder@@@tr1@std@@HPBX@Z0@Z 0043de50 f i cinder:ImageIo.obj
 0001:0003d040       ??$setupRowFuncForTypesAndTargetColorModel@GE$00@ImageSource@cinder@@IAEP801@AEXV?$shared_ptr@VImageTarget@cinder@@@tr1@std@@HPBX@Z0@Z 0043e040 f i cinder:ImageIo.obj
 0001:0003d230       ??$setupRowFuncForTypesAndTargetColorModel@GG$0A@@ImageSource@cinder@@IAEP801@AEXV?$shared_ptr@VImageTarget@cinder@@@tr1@std@@HPBX@Z0@Z 0043e230 f i cinder:ImageIo.obj
 0001:0003d420       ??$setupRowFuncForTypesAndTargetColorModel@GG$00@ImageSource@cinder@@IAEP801@AEXV?$shared_ptr@VImageTarget@cinder@@@tr1@std@@HPBX@Z0@Z 0043e420 f i cinder:ImageIo.obj
 0001:0003d610       ??$setupRowFuncForTypesAndTargetColorModel@GM$0A@@ImageSource@cinder@@IAEP801@AEXV?$shared_ptr@VImageTarget@cinder@@@tr1@std@@HPBX@Z0@Z 0043e610 f i cinder:ImageIo.obj
 0001:0003d800       ??$setupRowFuncForTypesAndTargetColorModel@GM$00@ImageSource@cinder@@IAEP801@AEXV?$shared_ptr@VImageTarget@cinder@@@tr1@std@@HPBX@Z0@Z 0043e800 f i cinder:ImageIo.obj
 0001:0003d9f0       ??$setupRowFuncForTypesAndTargetColorModel@ME$0A@@ImageSource@cinder@@IAEP801@AEXV?$shared_ptr@VImageTarget@cinder@@@tr1@std@@HPBX@Z0@Z 0043e9f0 f i cinder:ImageIo.obj
 0001:0003dbe0       ??$setupRowFuncForTypesAndTargetColorModel@ME$00@ImageSource@cinder@@IAEP801@AEXV?$shared_ptr@VImageTarget@cinder@@@tr1@std@@HPBX@Z0@Z 0043ebe0 f i cinder:ImageIo.obj
 0001:0003ddd0       ??$setupRowFuncForTypesAndTargetColorModel@MG$0A@@ImageSource@cinder@@IAEP801@AEXV?$shared_ptr@VImageTarget@cinder@@@tr1@std@@HPBX@Z0@Z 0043edd0 f i cinder:ImageIo.obj
 0001:0003dfc0       ??$setupRowFuncForTypesAndTargetColorModel@MG$00@ImageSource@cinder@@IAEP801@AEXV?$shared_ptr@VImageTarget@cinder@@@tr1@std@@HPBX@Z0@Z 0043efc0 f i cinder:ImageIo.obj
 0001:0003e1b0       ??$setupRowFuncForTypesAndTargetColorModel@MM$0A@@ImageSource@cinder@@IAEP801@AEXV?$shared_ptr@VImageTarget@cinder@@@tr1@std@@HPBX@Z0@Z 0043f1b0 f i cinder:ImageIo.obj
 0001:0003e3a0       ??$setupRowFuncForTypesAndTargetColorModel@MM$00@ImageSource@cinder@@IAEP801@AEXV?$shared_ptr@VImageTarget@cinder@@@tr1@std@@HPBX@Z0@Z 0043f3a0 f i cinder:ImageIo.obj
 0001:0003e590       ??1?$pair@HU?$pair@P6A?AV?$shared_ptr@VImageTarget@cinder@@@tr1@std@@V?$shared_ptr@VDataTarget@cinder@@@23@V?$shared_ptr@VImageSource@cinder@@@23@VOptions@ImageTarget@cinder@@ABV?$basic_string@DU?$char_traits@D@std@@V?$allocator@D@2@@3@@ZV93@@std@@@std@@QAE@XZ 0043f590 f i cinder:ImageIo.obj
 0001:0003e5c0       ??4?$shared_ptr@UInst@ImageIoRegistrar@cinder@@@tr1@std@@QAEAAV012@$$QAV012@@Z 0043f5c0 f i cinder:ImageIo.obj
 0001:0003e5c0       ??4?$shared_ptr@V?$map@V?$basic_string@DU?$char_traits@D@std@@V?$allocator@D@2@@std@@PBU_GUID@@U?$less@V?$basic_string@DU?$char_traits@D@std@@V?$allocator@D@2@@std@@@2@V?$allocator@U?$pair@$$CBV?$basic_string@DU?$char_traits@D@std@@V?$allocator@D@2@@std@@PBU_GUID@@@std@@@2@@std@@@tr1@std@@QAEAAV012@$$QAV012@@Z 0043f5c0 f i cinder:ImageTargetFileWic.obj
 0001:0003e5c0       ??4?$shared_ptr@E@tr1@std@@QAEAAV012@$$QAV012@@Z 0043f5c0 f i cinder:Texture.obj
 0001:0003e5c0       ??4?$shared_ptr@UIWICBitmapEncoder@@@tr1@std@@QAEAAV012@$$QAV012@@Z 0043f5c0 f i cinder:ImageTargetFileWic.obj
 0001:0003e5c0       ??4?$shared_ptr@UIWICBitmapFrameEncode@@@tr1@std@@QAEAAV012@$$QAV012@@Z 0043f5c0 f i cinder:ImageTargetFileWic.obj
 0001:0003e630       ?erase@?$_Tree@V?$_Tmap_traits@HP6A?AV?$shared_ptr@VImageSource@cinder@@@tr1@std@@V?$shared_ptr@VDataSource@cinder@@@23@VOptions@ImageSource@cinder@@@ZU?$less@H@3@V?$allocator@U?$pair@$$CBHP6A?AV?$shared_ptr@VImageSource@cinder@@@tr1@std@@V?$shared_ptr@VDataSource@cinder@@@23@VOptions@ImageSource@cinder@@@Z@std@@@3@$0A@@std@@@std@@QAE?AV?$_Tree_iterator@V?$_Tree_val@V?$_Tmap_traits@HP6A?AV?$shared_ptr@VImageSource@cinder@@@tr1@std@@V?$shared_ptr@VDataSource@cinder@@@23@VOptions@ImageSource@cinder@@@ZU?$less@H@3@V?$allocator@U?$pair@$$CBHP6A?AV?$shared_ptr@VImageSource@cinder@@@tr1@std@@V?$shared_ptr@VDataSource@cinder@@@23@VOptions@ImageSource@cinder@@@Z@std@@@3@$0A@@std@@@std@@@2@V?$_Tree_const_iterator@V?$_Tree_val@V?$_Tmap_traits@HP6A?AV?$shared_ptr@VImageSource@cinder@@@tr1@std@@V?$shared_ptr@VDataSource@cinder@@@23@VOptions@ImageSource@cinder@@@ZU?$less@H@3@V?$allocator@U?$pair@$$CBHP6A?AV?$shared_ptr@VImageSource@cinder@@@tr1@std@@V?$shared_ptr@VDataSource@cinder@@@23@VOptions@ImageSource@cinder@@@Z@std@@@3@$0A@@std@@@std@@@2@0@Z 0043f630 f i cinder:ImageIo.obj
 0001:0003e630       ?erase@?$_Tree@V?$_Tmap_traits@HP6A?AV?$shared_ptr@VImageSource@cinder@@@tr1@std@@V?$shared_ptr@VDataSource@cinder@@@23@VOptions@ImageSource@cinder@@@ZU?$less@H@3@V?$allocator@U?$pair@$$CBHP6A?AV?$shared_ptr@VImageSource@cinder@@@tr1@std@@V?$shared_ptr@VDataSource@cinder@@@23@VOptions@ImageSource@cinder@@@Z@std@@@3@$00@std@@@std@@QAE?AV?$_Tree_iterator@V?$_Tree_val@V?$_Tmap_traits@HP6A?AV?$shared_ptr@VImageSource@cinder@@@tr1@std@@V?$shared_ptr@VDataSource@cinder@@@23@VOptions@ImageSource@cinder@@@ZU?$less@H@3@V?$allocator@U?$pair@$$CBHP6A?AV?$shared_ptr@VImageSource@cinder@@@tr1@std@@V?$shared_ptr@VDataSource@cinder@@@23@VOptions@ImageSource@cinder@@@Z@std@@@3@$00@std@@@std@@@2@V?$_Tree_const_iterator@V?$_Tree_val@V?$_Tmap_traits@HP6A?AV?$shared_ptr@VImageSource@cinder@@@tr1@std@@V?$shared_ptr@VDataSource@cinder@@@23@VOptions@ImageSource@cinder@@@ZU?$less@H@3@V?$allocator@U?$pair@$$CBHP6A?AV?$shared_ptr@VImageSource@cinder@@@tr1@std@@V?$shared_ptr@VDataSource@cinder@@@23@VOptions@ImageSource@cinder@@@Z@std@@@3@$00@std@@@std@@@2@0@Z 0043f630 f i cinder:ImageIo.obj
 0001:0003e6d0       ??$setupRowFuncForTypes@EE@ImageSource@cinder@@IAEP801@AEXV?$shared_ptr@VImageTarget@cinder@@@tr1@std@@HPBX@Z0@Z 0043f6d0 f i cinder:ImageIo.obj
 0001:0003e7d0       ??$setupRowFuncForTypes@EG@ImageSource@cinder@@IAEP801@AEXV?$shared_ptr@VImageTarget@cinder@@@tr1@std@@HPBX@Z0@Z 0043f7d0 f i cinder:ImageIo.obj
 0001:0003e8d0       ??$setupRowFuncForTypes@EM@ImageSource@cinder@@IAEP801@AEXV?$shared_ptr@VImageTarget@cinder@@@tr1@std@@HPBX@Z0@Z 0043f8d0 f i cinder:ImageIo.obj
 0001:0003e9d0       ??$setupRowFuncForTypes@GE@ImageSource@cinder@@IAEP801@AEXV?$shared_ptr@VImageTarget@cinder@@@tr1@std@@HPBX@Z0@Z 0043f9d0 f i cinder:ImageIo.obj
 0001:0003ead0       ??$setupRowFuncForTypes@GG@ImageSource@cinder@@IAEP801@AEXV?$shared_ptr@VImageTarget@cinder@@@tr1@std@@HPBX@Z0@Z 0043fad0 f i cinder:ImageIo.obj
 0001:0003ebd0       ??$setupRowFuncForTypes@GM@ImageSource@cinder@@IAEP801@AEXV?$shared_ptr@VImageTarget@cinder@@@tr1@std@@HPBX@Z0@Z 0043fbd0 f i cinder:ImageIo.obj
 0001:0003ecd0       ??$setupRowFuncForTypes@ME@ImageSource@cinder@@IAEP801@AEXV?$shared_ptr@VImageTarget@cinder@@@tr1@std@@HPBX@Z0@Z 0043fcd0 f i cinder:ImageIo.obj
 0001:0003edd0       ??$setupRowFuncForTypes@MG@ImageSource@cinder@@IAEP801@AEXV?$shared_ptr@VImageTarget@cinder@@@tr1@std@@HPBX@Z0@Z 0043fdd0 f i cinder:ImageIo.obj
 0001:0003eed0       ??$setupRowFuncForTypes@MM@ImageSource@cinder@@IAEP801@AEXV?$shared_ptr@VImageTarget@cinder@@@tr1@std@@HPBX@Z0@Z 0043fed0 f i cinder:ImageIo.obj
 0001:0003efd0       ??0ImageIoExceptionFailedLoad@cinder@@QAE@ABV01@@Z 0043ffd0 f i cinder:ImageIo.obj
 0001:0003eff0       ??$setupRowFuncForSourceType@E@ImageSource@cinder@@IAEP801@AEXV?$shared_ptr@VImageTarget@cinder@@@tr1@std@@HPBX@Z0@Z 0043fff0 f i cinder:ImageIo.obj
 0001:0003f100       ??0ImageIoExceptionIllegalDataType@cinder@@QAE@ABV01@@Z 00440100 f i cinder:ImageIo.obj
 0001:0003f120       ??$setupRowFuncForSourceType@G@ImageSource@cinder@@IAEP801@AEXV?$shared_ptr@VImageTarget@cinder@@@tr1@std@@HPBX@Z0@Z 00440120 f i cinder:ImageIo.obj
 0001:0003f230       ??$setupRowFuncForSourceType@M@ImageSource@cinder@@IAEP801@AEXV?$shared_ptr@VImageTarget@cinder@@@tr1@std@@HPBX@Z0@Z 00440230 f i cinder:ImageIo.obj
 0001:0003f340       ?setupRowFunc@ImageSource@cinder@@IAEP812@AEXV?$shared_ptr@VImageTarget@cinder@@@tr1@std@@HPBX@Z0@Z 00440340 f   cinder:ImageIo.obj
 0001:0003f450       ??1?$map@HP6A?AV?$shared_ptr@VImageSource@cinder@@@tr1@std@@V?$shared_ptr@VDataSource@cinder@@@23@VOptions@ImageSource@cinder@@@ZU?$less@H@3@V?$allocator@U?$pair@$$CBHP6A?AV?$shared_ptr@VImageSource@cinder@@@tr1@std@@V?$shared_ptr@VDataSource@cinder@@@23@VOptions@ImageSource@cinder@@@Z@std@@@3@@std@@QAE@XZ 00440450 f i cinder:ImageIo.obj
 0001:0003f4b0       ??$make_pair@AAP6A?AV?$shared_ptr@VImageTarget@cinder@@@tr1@std@@V?$shared_ptr@VDataTarget@cinder@@@23@V?$shared_ptr@VImageSource@cinder@@@23@VOptions@ImageTarget@cinder@@ABV?$basic_string@DU?$char_traits@D@std@@V?$allocator@D@2@@3@@ZV93@@std@@YA?AU?$pair@P6A?AV?$shared_ptr@VImageTarget@cinder@@@tr1@std@@V?$shared_ptr@VDataTarget@cinder@@@23@V?$shared_ptr@VImageSource@cinder@@@23@VOptions@ImageTarget@cinder@@ABV?$basic_string@DU?$char_traits@D@std@@V?$allocator@D@2@@3@@ZV93@@0@AAP6A?AV?$shared_ptr@VImageTarget@cinder@@@tr1@0@V?$shared_ptr@VDataTarget@cinder@@@30@V?$shared_ptr@VImageSource@cinder@@@30@VOptions@ImageTarget@cinder@@ABV?$basic_string@DU?$char_traits@D@std@@V?$allocator@D@2@@0@@Z3@Z 004404b0 f i cinder:ImageIo.obj
 0001:0003f550       ?_Insert@?$_Tree@V?$_Tmap_traits@HU?$pair@P6A?AV?$shared_ptr@VImageTarget@cinder@@@tr1@std@@V?$shared_ptr@VDataTarget@cinder@@@23@V?$shared_ptr@VImageSource@cinder@@@23@VOptions@ImageTarget@cinder@@ABV?$basic_string@DU?$char_traits@D@std@@V?$allocator@D@2@@3@@ZV93@@std@@U?$less@H@2@V?$allocator@U?$pair@$$CBHU?$pair@P6A?AV?$shared_ptr@VImageTarget@cinder@@@tr1@std@@V?$shared_ptr@VDataTarget@cinder@@@23@V?$shared_ptr@VImageSource@cinder@@@23@VOptions@ImageTarget@cinder@@ABV?$basic_string@DU?$char_traits@D@std@@V?$allocator@D@2@@3@@ZV93@@std@@@std@@@2@$00@std@@@std@@IAE?AV?$_Tree_iterator@V?$_Tree_val@V?$_Tmap_traits@HU?$pair@P6A?AV?$shared_ptr@VImageTarget@cinder@@@tr1@std@@V?$shared_ptr@VDataTarget@cinder@@@23@V?$shared_ptr@VImageSource@cinder@@@23@VOptions@ImageTarget@cinder@@ABV?$basic_string@DU?$char_traits@D@std@@V?$allocator@D@2@@3@@ZV93@@std@@U?$less@H@2@V?$allocator@U?$pair@$$CBHU?$pair@P6A?AV?$shared_ptr@VImageTarget@cinder@@@tr1@std@@V?$shared_ptr@VDataTarget@cinder@@@23@V?$shared_ptr@VImageSource@cinder@@@23@VOptions@ImageTarget@cinder@@ABV?$basic_string@DU?$char_traits@D@std@@V?$allocator@D@2@@3@@ZV93@@std@@@std@@@2@$00@std@@@std@@@2@_NPAU_Node@?$_Tree_nod@V?$_Tmap_traits@HU?$pair@P6A?AV?$shared_ptr@VImageTarget@cinder@@@tr1@std@@V?$shared_ptr@VDataTarget@cinder@@@23@V?$shared_ptr@VImageSource@cinder@@@23@VOptions@ImageTarget@cinder@@ABV?$basic_string@DU?$char_traits@D@std@@V?$allocator@D@2@@3@@ZV93@@std@@U?$less@H@2@V?$allocator@U?$pair@$$CBHU?$pair@P6A?AV?$shared_ptr@VImageTarget@cinder@@@tr1@std@@V?$shared_ptr@VDataTarget@cinder@@@23@V?$shared_ptr@VImageSource@cinder@@@23@VOptions@ImageTarget@cinder@@ABV?$basic_string@DU?$char_traits@D@std@@V?$allocator@D@2@@3@@ZV93@@std@@@std@@@2@$00@std@@@2@1@Z 00440550 f i cinder:ImageIo.obj
 0001:0003f7a0       ?erase@?$_Tree@V?$_Tmap_traits@HU?$pair@P6A?AV?$shared_ptr@VImageTarget@cinder@@@tr1@std@@V?$shared_ptr@VDataTarget@cinder@@@23@V?$shared_ptr@VImageSource@cinder@@@23@VOptions@ImageTarget@cinder@@ABV?$basic_string@DU?$char_traits@D@std@@V?$allocator@D@2@@3@@ZV93@@std@@U?$less@H@2@V?$allocator@U?$pair@$$CBHU?$pair@P6A?AV?$shared_ptr@VImageTarget@cinder@@@tr1@std@@V?$shared_ptr@VDataTarget@cinder@@@23@V?$shared_ptr@VImageSource@cinder@@@23@VOptions@ImageTarget@cinder@@ABV?$basic_string@DU?$char_traits@D@std@@V?$allocator@D@2@@3@@ZV93@@std@@@std@@@2@$00@std@@@std@@QAE?AV?$_Tree_iterator@V?$_Tree_val@V?$_Tmap_traits@HU?$pair@P6A?AV?$shared_ptr@VImageTarget@cinder@@@tr1@std@@V?$shared_ptr@VDataTarget@cinder@@@23@V?$shared_ptr@VImageSource@cinder@@@23@VOptions@ImageTarget@cinder@@ABV?$basic_string@DU?$char_traits@D@std@@V?$allocator@D@2@@3@@ZV93@@std@@U?$less@H@2@V?$allocator@U?$pair@$$CBHU?$pair@P6A?AV?$shared_ptr@VImageTarget@cinder@@@tr1@std@@V?$shared_ptr@VDataTarget@cinder@@@23@V?$shared_ptr@VImageSource@cinder@@@23@VOptions@ImageTarget@cinder@@ABV?$basic_string@DU?$char_traits@D@std@@V?$allocator@D@2@@3@@ZV93@@std@@@std@@@2@$00@std@@@std@@@2@V?$_Tree_const_iterator@V?$_Tree_val@V?$_Tmap_traits@HU?$pair@P6A?AV?$shared_ptr@VImageTarget@cinder@@@tr1@std@@V?$shared_ptr@VDataTarget@cinder@@@23@V?$shared_ptr@VImageSource@cinder@@@23@VOptions@ImageTarget@cinder@@ABV?$basic_string@DU?$char_traits@D@std@@V?$allocator@D@2@@3@@ZV93@@std@@U?$less@H@2@V?$allocator@U?$pair@$$CBHU?$pair@P6A?AV?$shared_ptr@VImageTarget@cinder@@@tr1@std@@V?$shared_ptr@VDataTarget@cinder@@@23@V?$shared_ptr@VImageSource@cinder@@@23@VOptions@ImageTarget@cinder@@ABV?$basic_string@DU?$char_traits@D@std@@V?$allocator@D@2@@3@@ZV93@@std@@@std@@@2@$00@std@@@std@@@2@@Z 004407a0 f i cinder:ImageIo.obj
 0001:0003fa20       ?_Erase@?$_Tree@V?$_Tmap_traits@HU?$pair@P6A?AV?$shared_ptr@VImageTarget@cinder@@@tr1@std@@V?$shared_ptr@VDataTarget@cinder@@@23@V?$shared_ptr@VImageSource@cinder@@@23@VOptions@ImageTarget@cinder@@ABV?$basic_string@DU?$char_traits@D@std@@V?$allocator@D@2@@3@@ZV93@@std@@U?$less@H@2@V?$allocator@U?$pair@$$CBHU?$pair@P6A?AV?$shared_ptr@VImageTarget@cinder@@@tr1@std@@V?$shared_ptr@VDataTarget@cinder@@@23@V?$shared_ptr@VImageSource@cinder@@@23@VOptions@ImageTarget@cinder@@ABV?$basic_string@DU?$char_traits@D@std@@V?$allocator@D@2@@3@@ZV93@@std@@@std@@@2@$00@std@@@std@@IAEXPAU_Node@?$_Tree_nod@V?$_Tmap_traits@HU?$pair@P6A?AV?$shared_ptr@VImageTarget@cinder@@@tr1@std@@V?$shared_ptr@VDataTarget@cinder@@@23@V?$shared_ptr@VImageSource@cinder@@@23@VOptions@ImageTarget@cinder@@ABV?$basic_string@DU?$char_traits@D@std@@V?$allocator@D@2@@3@@ZV93@@std@@U?$less@H@2@V?$allocator@U?$pair@$$CBHU?$pair@P6A?AV?$shared_ptr@VImageTarget@cinder@@@tr1@std@@V?$shared_ptr@VDataTarget@cinder@@@23@V?$shared_ptr@VImageSource@cinder@@@23@VOptions@ImageTarget@cinder@@ABV?$basic_string@DU?$char_traits@D@std@@V?$allocator@D@2@@3@@ZV93@@std@@@std@@@2@$00@std@@@2@@Z 00440a20 f i cinder:ImageIo.obj
 0001:0003fa80       ??$make_pair@AAHU?$pair@P6A?AV?$shared_ptr@VImageTarget@cinder@@@tr1@std@@V?$shared_ptr@VDataTarget@cinder@@@23@V?$shared_ptr@VImageSource@cinder@@@23@VOptions@ImageTarget@cinder@@ABV?$basic_string@DU?$char_traits@D@std@@V?$allocator@D@2@@3@@ZV93@@std@@@std@@YA?AU?$pair@HU?$pair@P6A?AV?$shared_ptr@VImageTarget@cinder@@@tr1@std@@V?$shared_ptr@VDataTarget@cinder@@@23@V?$shared_ptr@VImageSource@cinder@@@23@VOptions@ImageTarget@cinder@@ABV?$basic_string@DU?$char_traits@D@std@@V?$allocator@D@2@@3@@ZV93@@std@@@0@AAH$$QAU?$pair@P6A?AV?$shared_ptr@VImageTarget@cinder@@@tr1@std@@V?$shared_ptr@VDataTarget@cinder@@@23@V?$shared_ptr@VImageSource@cinder@@@23@VOptions@ImageTarget@cinder@@ABV?$basic_string@DU?$char_traits@D@std@@V?$allocator@D@2@@3@@ZV93@@0@@Z 00440a80 f i cinder:ImageIo.obj
 0001:0003fac0       ??$_Buynode@AAU?$pair@$$CBHU?$pair@P6A?AV?$shared_ptr@VImageTarget@cinder@@@tr1@std@@V?$shared_ptr@VDataTarget@cinder@@@23@V?$shared_ptr@VImageSource@cinder@@@23@VOptions@ImageTarget@cinder@@ABV?$basic_string@DU?$char_traits@D@std@@V?$allocator@D@2@@3@@ZV93@@std@@@std@@@?$_Tree_val@V?$_Tmap_traits@HU?$pair@P6A?AV?$shared_ptr@VImageTarget@cinder@@@tr1@std@@V?$shared_ptr@VDataTarget@cinder@@@23@V?$shared_ptr@VImageSource@cinder@@@23@VOptions@ImageTarget@cinder@@ABV?$basic_string@DU?$char_traits@D@std@@V?$allocator@D@2@@3@@ZV93@@std@@U?$less@H@2@V?$allocator@U?$pair@$$CBHU?$pair@P6A?AV?$shared_ptr@VImageTarget@cinder@@@tr1@std@@V?$shared_ptr@VDataTarget@cinder@@@23@V?$shared_ptr@VImageSource@cinder@@@23@VOptions@ImageTarget@cinder@@ABV?$basic_string@DU?$char_traits@D@std@@V?$allocator@D@2@@3@@ZV93@@std@@@std@@@2@$00@std@@@std@@QAEPAU_Node@?$_Tree_nod@V?$_Tmap_traits@HU?$pair@P6A?AV?$shared_ptr@VImageTarget@cinder@@@tr1@std@@V?$shared_ptr@VDataTarget@cinder@@@23@V?$shared_ptr@VImageSource@cinder@@@23@VOptions@ImageTarget@cinder@@ABV?$basic_string@DU?$char_traits@D@std@@V?$allocator@D@2@@3@@ZV93@@std@@U?$less@H@2@V?$allocator@U?$pair@$$CBHU?$pair@P6A?AV?$shared_ptr@VImageTarget@cinder@@@tr1@std@@V?$shared_ptr@VDataTarget@cinder@@@23@V?$shared_ptr@VImageSource@cinder@@@23@VOptions@ImageTarget@cinder@@ABV?$basic_string@DU?$char_traits@D@std@@V?$allocator@D@2@@3@@ZV93@@std@@@std@@@2@$00@std@@@1@AAU?$pair@$$CBHU?$pair@P6A?AV?$shared_ptr@VImageTarget@cinder@@@tr1@std@@V?$shared_ptr@VDataTarget@cinder@@@23@V?$shared_ptr@VImageSource@cinder@@@23@VOptions@ImageTarget@cinder@@ABV?$basic_string@DU?$char_traits@D@std@@V?$allocator@D@2@@3@@ZV93@@std@@@1@@Z 00440ac0 f i cinder:ImageIo.obj
 0001:0003fbb0       ?erase@?$_Tree@V?$_Tmap_traits@HU?$pair@P6A?AV?$shared_ptr@VImageTarget@cinder@@@tr1@std@@V?$shared_ptr@VDataTarget@cinder@@@23@V?$shared_ptr@VImageSource@cinder@@@23@VOptions@ImageTarget@cinder@@ABV?$basic_string@DU?$char_traits@D@std@@V?$allocator@D@2@@3@@ZV93@@std@@U?$less@H@2@V?$allocator@U?$pair@$$CBHU?$pair@P6A?AV?$shared_ptr@VImageTarget@cinder@@@tr1@std@@V?$shared_ptr@VDataTarget@cinder@@@23@V?$shared_ptr@VImageSource@cinder@@@23@VOptions@ImageTarget@cinder@@ABV?$basic_string@DU?$char_traits@D@std@@V?$allocator@D@2@@3@@ZV93@@std@@@std@@@2@$00@std@@@std@@QAE?AV?$_Tree_iterator@V?$_Tree_val@V?$_Tmap_traits@HU?$pair@P6A?AV?$shared_ptr@VImageTarget@cinder@@@tr1@std@@V?$shared_ptr@VDataTarget@cinder@@@23@V?$shared_ptr@VImageSource@cinder@@@23@VOptions@ImageTarget@cinder@@ABV?$basic_string@DU?$char_traits@D@std@@V?$allocator@D@2@@3@@ZV93@@std@@U?$less@H@2@V?$allocator@U?$pair@$$CBHU?$pair@P6A?AV?$shared_ptr@VImageTarget@cinder@@@tr1@std@@V?$shared_ptr@VDataTarget@cinder@@@23@V?$shared_ptr@VImageSource@cinder@@@23@VOptions@ImageTarget@cinder@@ABV?$basic_string@DU?$char_traits@D@std@@V?$allocator@D@2@@3@@ZV93@@std@@@std@@@2@$00@std@@@std@@@2@V?$_Tree_const_iterator@V?$_Tree_val@V?$_Tmap_traits@HU?$pair@P6A?AV?$shared_ptr@VImageTarget@cinder@@@tr1@std@@V?$shared_ptr@VDataTarget@cinder@@@23@V?$shared_ptr@VImageSource@cinder@@@23@VOptions@ImageTarget@cinder@@ABV?$basic_string@DU?$char_traits@D@std@@V?$allocator@D@2@@3@@ZV93@@std@@U?$less@H@2@V?$allocator@U?$pair@$$CBHU?$pair@P6A?AV?$shared_ptr@VImageTarget@cinder@@@tr1@std@@V?$shared_ptr@VDataTarget@cinder@@@23@V?$shared_ptr@VImageSource@cinder@@@23@VOptions@ImageTarget@cinder@@ABV?$basic_string@DU?$char_traits@D@std@@V?$allocator@D@2@@3@@ZV93@@std@@@std@@@2@$00@std@@@std@@@2@0@Z 00440bb0 f i cinder:ImageIo.obj
 0001:0003fc70       ??$_Buynode@U?$pair@HU?$pair@P6A?AV?$shared_ptr@VImageTarget@cinder@@@tr1@std@@V?$shared_ptr@VDataTarget@cinder@@@23@V?$shared_ptr@VImageSource@cinder@@@23@VOptions@ImageTarget@cinder@@ABV?$basic_string@DU?$char_traits@D@std@@V?$allocator@D@2@@3@@ZV93@@std@@@std@@@?$_Tree_val@V?$_Tmap_traits@HU?$pair@P6A?AV?$shared_ptr@VImageTarget@cinder@@@tr1@std@@V?$shared_ptr@VDataTarget@cinder@@@23@V?$shared_ptr@VImageSource@cinder@@@23@VOptions@ImageTarget@cinder@@ABV?$basic_string@DU?$char_traits@D@std@@V?$allocator@D@2@@3@@ZV93@@std@@U?$less@H@2@V?$allocator@U?$pair@$$CBHU?$pair@P6A?AV?$shared_ptr@VImageTarget@cinder@@@tr1@std@@V?$shared_ptr@VDataTarget@cinder@@@23@V?$shared_ptr@VImageSource@cinder@@@23@VOptions@ImageTarget@cinder@@ABV?$basic_string@DU?$char_traits@D@std@@V?$allocator@D@2@@3@@ZV93@@std@@@std@@@2@$00@std@@@std@@QAEPAU_Node@?$_Tree_nod@V?$_Tmap_traits@HU?$pair@P6A?AV?$shared_ptr@VImageTarget@cinder@@@tr1@std@@V?$shared_ptr@VDataTarget@cinder@@@23@V?$shared_ptr@VImageSource@cinder@@@23@VOptions@ImageTarget@cinder@@ABV?$basic_string@DU?$char_traits@D@std@@V?$allocator@D@2@@3@@ZV93@@std@@U?$less@H@2@V?$allocator@U?$pair@$$CBHU?$pair@P6A?AV?$shared_ptr@VImageTarget@cinder@@@tr1@std@@V?$shared_ptr@VDataTarget@cinder@@@23@V?$shared_ptr@VImageSource@cinder@@@23@VOptions@ImageTarget@cinder@@ABV?$basic_string@DU?$char_traits@D@std@@V?$allocator@D@2@@3@@ZV93@@std@@@std@@@2@$00@std@@@1@$$QAU?$pair@HU?$pair@P6A?AV?$shared_ptr@VImageTarget@cinder@@@tr1@std@@V?$shared_ptr@VDataTarget@cinder@@@23@V?$shared_ptr@VImageSource@cinder@@@23@VOptions@ImageTarget@cinder@@ABV?$basic_string@DU?$char_traits@D@std@@V?$allocator@D@2@@3@@ZV93@@std@@@1@@Z 00440c70 f i cinder:ImageIo.obj
 0001:0003fd50       ?_Copy@?$_Tree@V?$_Tmap_traits@HU?$pair@P6A?AV?$shared_ptr@VImageTarget@cinder@@@tr1@std@@V?$shared_ptr@VDataTarget@cinder@@@23@V?$shared_ptr@VImageSource@cinder@@@23@VOptions@ImageTarget@cinder@@ABV?$basic_string@DU?$char_traits@D@std@@V?$allocator@D@2@@3@@ZV93@@std@@U?$less@H@2@V?$allocator@U?$pair@$$CBHU?$pair@P6A?AV?$shared_ptr@VImageTarget@cinder@@@tr1@std@@V?$shared_ptr@VDataTarget@cinder@@@23@V?$shared_ptr@VImageSource@cinder@@@23@VOptions@ImageTarget@cinder@@ABV?$basic_string@DU?$char_traits@D@std@@V?$allocator@D@2@@3@@ZV93@@std@@@std@@@2@$00@std@@@std@@IAEPAU_Node@?$_Tree_nod@V?$_Tmap_traits@HU?$pair@P6A?AV?$shared_ptr@VImageTarget@cinder@@@tr1@std@@V?$shared_ptr@VDataTarget@cinder@@@23@V?$shared_ptr@VImageSource@cinder@@@23@VOptions@ImageTarget@cinder@@ABV?$basic_string@DU?$char_traits@D@std@@V?$allocator@D@2@@3@@ZV93@@std@@U?$less@H@2@V?$allocator@U?$pair@$$CBHU?$pair@P6A?AV?$shared_ptr@VImageTarget@cinder@@@tr1@std@@V?$shared_ptr@VDataTarget@cinder@@@23@V?$shared_ptr@VImageSource@cinder@@@23@VOptions@ImageTarget@cinder@@ABV?$basic_string@DU?$char_traits@D@std@@V?$allocator@D@2@@3@@ZV93@@std@@@std@@@2@$00@std@@@2@PAU342@0@Z 00440d50 f i cinder:ImageIo.obj
 0001:0003fe10       ??0?$_Tree@V?$_Tmap_traits@HU?$pair@P6A?AV?$shared_ptr@VImageTarget@cinder@@@tr1@std@@V?$shared_ptr@VDataTarget@cinder@@@23@V?$shared_ptr@VImageSource@cinder@@@23@VOptions@ImageTarget@cinder@@ABV?$basic_string@DU?$char_traits@D@std@@V?$allocator@D@2@@3@@ZV93@@std@@U?$less@H@2@V?$allocator@U?$pair@$$CBHU?$pair@P6A?AV?$shared_ptr@VImageTarget@cinder@@@tr1@std@@V?$shared_ptr@VDataTarget@cinder@@@23@V?$shared_ptr@VImageSource@cinder@@@23@VOptions@ImageTarget@cinder@@ABV?$basic_string@DU?$char_traits@D@std@@V?$allocator@D@2@@3@@ZV93@@std@@@std@@@2@$00@std@@@std@@QAE@$$QAV01@@Z 00440e10 f i cinder:ImageIo.obj
 0001:0003fef0       ??$insert@U?$pair@HU?$pair@P6A?AV?$shared_ptr@VImageTarget@cinder@@@tr1@std@@V?$shared_ptr@VDataTarget@cinder@@@23@V?$shared_ptr@VImageSource@cinder@@@23@VOptions@ImageTarget@cinder@@ABV?$basic_string@DU?$char_traits@D@std@@V?$allocator@D@2@@3@@ZV93@@std@@@std@@@?$_Tree@V?$_Tmap_traits@HU?$pair@P6A?AV?$shared_ptr@VImageTarget@cinder@@@tr1@std@@V?$shared_ptr@VDataTarget@cinder@@@23@V?$shared_ptr@VImageSource@cinder@@@23@VOptions@ImageTarget@cinder@@ABV?$basic_string@DU?$char_traits@D@std@@V?$allocator@D@2@@3@@ZV93@@std@@U?$less@H@2@V?$allocator@U?$pair@$$CBHU?$pair@P6A?AV?$shared_ptr@VImageTarget@cinder@@@tr1@std@@V?$shared_ptr@VDataTarget@cinder@@@23@V?$shared_ptr@VImageSource@cinder@@@23@VOptions@ImageTarget@cinder@@ABV?$basic_string@DU?$char_traits@D@std@@V?$allocator@D@2@@3@@ZV93@@std@@@std@@@2@$00@std@@@std@@QAE?AU?$pair@V?$_Tree_iterator@V?$_Tree_val@V?$_Tmap_traits@HU?$pair@P6A?AV?$shared_ptr@VImageTarget@cinder@@@tr1@std@@V?$shared_ptr@VDataTarget@cinder@@@23@V?$shared_ptr@VImageSource@cinder@@@23@VOptions@ImageTarget@cinder@@ABV?$basic_string@DU?$char_traits@D@std@@V?$allocator@D@2@@3@@ZV93@@std@@U?$less@H@2@V?$allocator@U?$pair@$$CBHU?$pair@P6A?AV?$shared_ptr@VImageTarget@cinder@@@tr1@std@@V?$shared_ptr@VDataTarget@cinder@@@23@V?$shared_ptr@VImageSource@cinder@@@23@VOptions@ImageTarget@cinder@@ABV?$basic_string@DU?$char_traits@D@std@@V?$allocator@D@2@@3@@ZV93@@std@@@std@@@2@$00@std@@@std@@@std@@_N@1@$$QAU?$pair@HU?$pair@P6A?AV?$shared_ptr@VImageTarget@cinder@@@tr1@std@@V?$shared_ptr@VDataTarget@cinder@@@23@V?$shared_ptr@VImageSource@cinder@@@23@VOptions@ImageTarget@cinder@@ABV?$basic_string@DU?$char_traits@D@std@@V?$allocator@D@2@@3@@ZV93@@std@@@1@@Z 00440ef0 f i cinder:ImageIo.obj
 0001:0003ff60       ?_Copy@?$_Tree@V?$_Tmap_traits@HU?$pair@P6A?AV?$shared_ptr@VImageTarget@cinder@@@tr1@std@@V?$shared_ptr@VDataTarget@cinder@@@23@V?$shared_ptr@VImageSource@cinder@@@23@VOptions@ImageTarget@cinder@@ABV?$basic_string@DU?$char_traits@D@std@@V?$allocator@D@2@@3@@ZV93@@std@@U?$less@H@2@V?$allocator@U?$pair@$$CBHU?$pair@P6A?AV?$shared_ptr@VImageTarget@cinder@@@tr1@std@@V?$shared_ptr@VDataTarget@cinder@@@23@V?$shared_ptr@VImageSource@cinder@@@23@VOptions@ImageTarget@cinder@@ABV?$basic_string@DU?$char_traits@D@std@@V?$allocator@D@2@@3@@ZV93@@std@@@std@@@2@$00@std@@@std@@IAEXABV12@@Z 00440f60 f i cinder:ImageIo.obj
 0001:0003ffe0       ?erase@?$_Tree@V?$_Tmap_traits@V?$basic_string@DU?$char_traits@D@std@@V?$allocator@D@2@@std@@V?$multimap@HP6A?AV?$shared_ptr@VImageSource@cinder@@@tr1@std@@V?$shared_ptr@VDataSource@cinder@@@23@VOptions@ImageSource@cinder@@@ZU?$less@H@3@V?$allocator@U?$pair@$$CBHP6A?AV?$shared_ptr@VImageSource@cinder@@@tr1@std@@V?$shared_ptr@VDataSource@cinder@@@23@VOptions@ImageSource@cinder@@@Z@std@@@3@@2@U?$less@V?$basic_string@DU?$char_traits@D@std@@V?$allocator@D@2@@std@@@2@V?$allocator@U?$pair@$$CBV?$basic_string@DU?$char_traits@D@std@@V?$allocator@D@2@@std@@V?$multimap@HP6A?AV?$shared_ptr@VImageSource@cinder@@@tr1@std@@V?$shared_ptr@VDataSource@cinder@@@23@VOptions@ImageSource@cinder@@@ZU?$less@H@3@V?$allocator@U?$pair@$$CBHP6A?AV?$shared_ptr@VImageSource@cinder@@@tr1@std@@V?$shared_ptr@VDataSource@cinder@@@23@VOptions@ImageSource@cinder@@@Z@std@@@3@@2@@std@@@2@$0A@@std@@@std@@QAE?AV?$_Tree_iterator@V?$_Tree_val@V?$_Tmap_traits@V?$basic_string@DU?$char_traits@D@std@@V?$allocator@D@2@@std@@V?$multimap@HP6A?AV?$shared_ptr@VImageSource@cinder@@@tr1@std@@V?$shared_ptr@VDataSource@cinder@@@23@VOptions@ImageSource@cinder@@@ZU?$less@H@3@V?$allocator@U?$pair@$$CBHP6A?AV?$shared_ptr@VImageSource@cinder@@@tr1@std@@V?$shared_ptr@VDataSource@cinder@@@23@VOptions@ImageSource@cinder@@@Z@std@@@3@@2@U?$less@V?$basic_string@DU?$char_traits@D@std@@V?$allocator@D@2@@std@@@2@V?$allocator@U?$pair@$$CBV?$basic_string@DU?$char_traits@D@std@@V?$allocator@D@2@@std@@V?$multimap@HP6A?AV?$shared_ptr@VImageSource@cinder@@@tr1@std@@V?$shared_ptr@VDataSource@cinder@@@23@VOptions@ImageSource@cinder@@@ZU?$less@H@3@V?$allocator@U?$pair@$$CBHP6A?AV?$shared_ptr@VImageSource@cinder@@@tr1@std@@V?$shared_ptr@VDataSource@cinder@@@23@VOptions@ImageSource@cinder@@@Z@std@@@3@@2@@std@@@2@$0A@@std@@@std@@@2@V?$_Tree_const_iterator@V?$_Tree_val@V?$_Tmap_traits@V?$basic_string@DU?$char_traits@D@std@@V?$allocator@D@2@@std@@V?$multimap@HP6A?AV?$shared_ptr@VImageSource@cinder@@@tr1@std@@V?$shared_ptr@VDataSource@cinder@@@23@VOptions@ImageSource@cinder@@@ZU?$less@H@3@V?$allocator@U?$pair@$$CBHP6A?AV?$shared_ptr@VImageSource@cinder@@@tr1@std@@V?$shared_ptr@VDataSource@cinder@@@23@VOptions@ImageSource@cinder@@@Z@std@@@3@@2@U?$less@V?$basic_string@DU?$char_traits@D@std@@V?$allocator@D@2@@std@@@2@V?$allocator@U?$pair@$$CBV?$basic_string@DU?$char_traits@D@std@@V?$allocator@D@2@@std@@V?$multimap@HP6A?AV?$shared_ptr@VImageSource@cinder@@@tr1@std@@V?$shared_ptr@VDataSource@cinder@@@23@VOptions@ImageSource@cinder@@@ZU?$less@H@3@V?$allocator@U?$pair@$$CBHP6A?AV?$shared_ptr@VImageSource@cinder@@@tr1@std@@V?$shared_ptr@VDataSource@cinder@@@23@VOptions@ImageSource@cinder@@@Z@std@@@3@@2@@std@@@2@$0A@@std@@@std@@@2@@Z 00440fe0 f i cinder:ImageIo.obj
 0001:000402b0       ?_Erase@?$_Tree@V?$_Tmap_traits@V?$basic_string@DU?$char_traits@D@std@@V?$allocator@D@2@@std@@V?$multimap@HP6A?AV?$shared_ptr@VImageSource@cinder@@@tr1@std@@V?$shared_ptr@VDataSource@cinder@@@23@VOptions@ImageSource@cinder@@@ZU?$less@H@3@V?$allocator@U?$pair@$$CBHP6A?AV?$shared_ptr@VImageSource@cinder@@@tr1@std@@V?$shared_ptr@VDataSource@cinder@@@23@VOptions@ImageSource@cinder@@@Z@std@@@3@@2@U?$less@V?$basic_string@DU?$char_traits@D@std@@V?$allocator@D@2@@std@@@2@V?$allocator@U?$pair@$$CBV?$basic_string@DU?$char_traits@D@std@@V?$allocator@D@2@@std@@V?$multimap@HP6A?AV?$shared_ptr@VImageSource@cinder@@@tr1@std@@V?$shared_ptr@VDataSource@cinder@@@23@VOptions@ImageSource@cinder@@@ZU?$less@H@3@V?$allocator@U?$pair@$$CBHP6A?AV?$shared_ptr@VImageSource@cinder@@@tr1@std@@V?$shared_ptr@VDataSource@cinder@@@23@VOptions@ImageSource@cinder@@@Z@std@@@3@@2@@std@@@2@$0A@@std@@@std@@IAEXPAU_Node@?$_Tree_nod@V?$_Tmap_traits@V?$basic_string@DU?$char_traits@D@std@@V?$allocator@D@2@@std@@V?$multimap@HP6A?AV?$shared_ptr@VImageSource@cinder@@@tr1@std@@V?$shared_ptr@VDataSource@cinder@@@23@VOptions@ImageSource@cinder@@@ZU?$less@H@3@V?$allocator@U?$pair@$$CBHP6A?AV?$shared_ptr@VImageSource@cinder@@@tr1@std@@V?$shared_ptr@VDataSource@cinder@@@23@VOptions@ImageSource@cinder@@@Z@std@@@3@@2@U?$less@V?$basic_string@DU?$char_traits@D@std@@V?$allocator@D@2@@std@@@2@V?$allocator@U?$pair@$$CBV?$basic_string@DU?$char_traits@D@std@@V?$allocator@D@2@@std@@V?$multimap@HP6A?AV?$shared_ptr@VImageSource@cinder@@@tr1@std@@V?$shared_ptr@VDataSource@cinder@@@23@VOptions@ImageSource@cinder@@@ZU?$less@H@3@V?$allocator@U?$pair@$$CBHP6A?AV?$shared_ptr@VImageSource@cinder@@@tr1@std@@V?$shared_ptr@VDataSource@cinder@@@23@VOptions@ImageSource@cinder@@@Z@std@@@3@@2@@std@@@2@$0A@@std@@@2@@Z 004412b0 f i cinder:ImageIo.obj
 0001:00040390       ??0?$_Tree@V?$_Tmap_traits@HU?$pair@P6A?AV?$shared_ptr@VImageTarget@cinder@@@tr1@std@@V?$shared_ptr@VDataTarget@cinder@@@23@V?$shared_ptr@VImageSource@cinder@@@23@VOptions@ImageTarget@cinder@@ABV?$basic_string@DU?$char_traits@D@std@@V?$allocator@D@2@@3@@ZV93@@std@@U?$less@H@2@V?$allocator@U?$pair@$$CBHU?$pair@P6A?AV?$shared_ptr@VImageTarget@cinder@@@tr1@std@@V?$shared_ptr@VDataTarget@cinder@@@23@V?$shared_ptr@VImageSource@cinder@@@23@VOptions@ImageTarget@cinder@@ABV?$basic_string@DU?$char_traits@D@std@@V?$allocator@D@2@@3@@ZV93@@std@@@std@@@2@$00@std@@@std@@QAE@ABV01@@Z 00441390 f i cinder:ImageIo.obj
 0001:00040460       ??1?$multimap@HU?$pair@P6A?AV?$shared_ptr@VImageTarget@cinder@@@tr1@std@@V?$shared_ptr@VDataTarget@cinder@@@23@V?$shared_ptr@VImageSource@cinder@@@23@VOptions@ImageTarget@cinder@@ABV?$basic_string@DU?$char_traits@D@std@@V?$allocator@D@2@@3@@ZV93@@std@@U?$less@H@2@V?$allocator@U?$pair@$$CBHU?$pair@P6A?AV?$shared_ptr@VImageTarget@cinder@@@tr1@std@@V?$shared_ptr@VDataTarget@cinder@@@23@V?$shared_ptr@VImageSource@cinder@@@23@VOptions@ImageTarget@cinder@@ABV?$basic_string@DU?$char_traits@D@std@@V?$allocator@D@2@@3@@ZV93@@std@@@std@@@2@@std@@QAE@XZ 00441460 f i cinder:ImageIo.obj
 0001:000404c0       ??1?$pair@V?$basic_string@DU?$char_traits@D@std@@V?$allocator@D@2@@std@@V?$multimap@HU?$pair@P6A?AV?$shared_ptr@VImageTarget@cinder@@@tr1@std@@V?$shared_ptr@VDataTarget@cinder@@@23@V?$shared_ptr@VImageSource@cinder@@@23@VOptions@ImageTarget@cinder@@ABV?$basic_string@DU?$char_traits@D@std@@V?$allocator@D@2@@3@@ZV93@@std@@U?$less@H@2@V?$allocator@U?$pair@$$CBHU?$pair@P6A?AV?$shared_ptr@VImageTarget@cinder@@@tr1@std@@V?$shared_ptr@VDataTarget@cinder@@@23@V?$shared_ptr@VImageSource@cinder@@@23@VOptions@ImageTarget@cinder@@ABV?$basic_string@DU?$char_traits@D@std@@V?$allocator@D@2@@3@@ZV93@@std@@@std@@@2@@2@@std@@QAE@XZ 004414c0 f i cinder:ImageIo.obj
 0001:00040550       ?erase@?$_Tree@V?$_Tmap_traits@V?$basic_string@DU?$char_traits@D@std@@V?$allocator@D@2@@std@@V?$multimap@HP6A?AV?$shared_ptr@VImageSource@cinder@@@tr1@std@@V?$shared_ptr@VDataSource@cinder@@@23@VOptions@ImageSource@cinder@@@ZU?$less@H@3@V?$allocator@U?$pair@$$CBHP6A?AV?$shared_ptr@VImageSource@cinder@@@tr1@std@@V?$shared_ptr@VDataSource@cinder@@@23@VOptions@ImageSource@cinder@@@Z@std@@@3@@2@U?$less@V?$basic_string@DU?$char_traits@D@std@@V?$allocator@D@2@@std@@@2@V?$allocator@U?$pair@$$CBV?$basic_string@DU?$char_traits@D@std@@V?$allocator@D@2@@std@@V?$multimap@HP6A?AV?$shared_ptr@VImageSource@cinder@@@tr1@std@@V?$shared_ptr@VDataSource@cinder@@@23@VOptions@ImageSource@cinder@@@ZU?$less@H@3@V?$allocator@U?$pair@$$CBHP6A?AV?$shared_ptr@VImageSource@cinder@@@tr1@std@@V?$shared_ptr@VDataSource@cinder@@@23@VOptions@ImageSource@cinder@@@Z@std@@@3@@2@@std@@@2@$0A@@std@@@std@@QAE?AV?$_Tree_iterator@V?$_Tree_val@V?$_Tmap_traits@V?$basic_string@DU?$char_traits@D@std@@V?$allocator@D@2@@std@@V?$multimap@HP6A?AV?$shared_ptr@VImageSource@cinder@@@tr1@std@@V?$shared_ptr@VDataSource@cinder@@@23@VOptions@ImageSource@cinder@@@ZU?$less@H@3@V?$allocator@U?$pair@$$CBHP6A?AV?$shared_ptr@VImageSource@cinder@@@tr1@std@@V?$shared_ptr@VDataSource@cinder@@@23@VOptions@ImageSource@cinder@@@Z@std@@@3@@2@U?$less@V?$basic_string@DU?$char_traits@D@std@@V?$allocator@D@2@@std@@@2@V?$allocator@U?$pair@$$CBV?$basic_string@DU?$char_traits@D@std@@V?$allocator@D@2@@std@@V?$multimap@HP6A?AV?$shared_ptr@VImageSource@cinder@@@tr1@std@@V?$shared_ptr@VDataSource@cinder@@@23@VOptions@ImageSource@cinder@@@ZU?$less@H@3@V?$allocator@U?$pair@$$CBHP6A?AV?$shared_ptr@VImageSource@cinder@@@tr1@std@@V?$shared_ptr@VDataSource@cinder@@@23@VOptions@ImageSource@cinder@@@Z@std@@@3@@2@@std@@@2@$0A@@std@@@std@@@2@V?$_Tree_const_iterator@V?$_Tree_val@V?$_Tmap_traits@V?$basic_string@DU?$char_traits@D@std@@V?$allocator@D@2@@std@@V?$multimap@HP6A?AV?$shared_ptr@VImageSource@cinder@@@tr1@std@@V?$shared_ptr@VDataSource@cinder@@@23@VOptions@ImageSource@cinder@@@ZU?$less@H@3@V?$allocator@U?$pair@$$CBHP6A?AV?$shared_ptr@VImageSource@cinder@@@tr1@std@@V?$shared_ptr@VDataSource@cinder@@@23@VOptions@ImageSource@cinder@@@Z@std@@@3@@2@U?$less@V?$basic_string@DU?$char_traits@D@std@@V?$allocator@D@2@@std@@@2@V?$allocator@U?$pair@$$CBV?$basic_string@DU?$char_traits@D@std@@V?$allocator@D@2@@std@@V?$multimap@HP6A?AV?$shared_ptr@VImageSource@cinder@@@tr1@std@@V?$shared_ptr@VDataSource@cinder@@@23@VOptions@ImageSource@cinder@@@ZU?$less@H@3@V?$allocator@U?$pair@$$CBHP6A?AV?$shared_ptr@VImageSource@cinder@@@tr1@std@@V?$shared_ptr@VDataSource@cinder@@@23@VOptions@ImageSource@cinder@@@Z@std@@@3@@2@@std@@@2@$0A@@std@@@std@@@2@0@Z 00441550 f i cinder:ImageIo.obj
 0001:00040610       ??$make_pair@AAV?$basic_string@DU?$char_traits@D@std@@V?$allocator@D@2@@std@@AAV?$multimap@HU?$pair@P6A?AV?$shared_ptr@VImageTarget@cinder@@@tr1@std@@V?$shared_ptr@VDataTarget@cinder@@@23@V?$shared_ptr@VImageSource@cinder@@@23@VOptions@ImageTarget@cinder@@ABV?$basic_string@DU?$char_traits@D@std@@V?$allocator@D@2@@3@@ZV93@@std@@U?$less@H@2@V?$allocator@U?$pair@$$CBHU?$pair@P6A?AV?$shared_ptr@VImageTarget@cinder@@@tr1@std@@V?$shared_ptr@VDataTarget@cinder@@@23@V?$shared_ptr@VImageSource@cinder@@@23@VOptions@ImageTarget@cinder@@ABV?$basic_string@DU?$char_traits@D@std@@V?$allocator@D@2@@3@@ZV93@@std@@@std@@@2@@2@@std@@YA?AU?$pair@V?$basic_string@DU?$char_traits@D@std@@V?$allocator@D@2@@std@@V?$multimap@HU?$pair@P6A?AV?$shared_ptr@VImageTarget@cinder@@@tr1@std@@V?$shared_ptr@VDataTarget@cinder@@@23@V?$shared_ptr@VImageSource@cinder@@@23@VOptions@ImageTarget@cinder@@ABV?$basic_string@DU?$char_traits@D@std@@V?$allocator@D@2@@3@@ZV93@@std@@U?$less@H@2@V?$allocator@U?$pair@$$CBHU?$pair@P6A?AV?$shared_ptr@VImageTarget@cinder@@@tr1@std@@V?$shared_ptr@VDataTarget@cinder@@@23@V?$shared_ptr@VImageSource@cinder@@@23@VOptions@ImageTarget@cinder@@ABV?$basic_string@DU?$char_traits@D@std@@V?$allocator@D@2@@3@@ZV93@@std@@@std@@@2@@2@@0@AAV?$basic_string@DU?$char_traits@D@std@@V?$allocator@D@2@@0@AAV?$multimap@HU?$pair@P6A?AV?$shared_ptr@VImageTarget@cinder@@@tr1@std@@V?$shared_ptr@VDataTarget@cinder@@@23@V?$shared_ptr@VImageSource@cinder@@@23@VOptions@ImageTarget@cinder@@ABV?$basic_string@DU?$char_traits@D@std@@V?$allocator@D@2@@3@@ZV93@@std@@U?$less@H@2@V?$allocator@U?$pair@$$CBHU?$pair@P6A?AV?$shared_ptr@VImageTarget@cinder@@@tr1@std@@V?$shared_ptr@VDataTarget@cinder@@@23@V?$shared_ptr@VImageSource@cinder@@@23@VOptions@ImageTarget@cinder@@ABV?$basic_string@DU?$char_traits@D@std@@V?$allocator@D@2@@3@@ZV93@@std@@@std@@@2@@0@@Z 00441610 f i cinder:ImageIo.obj
 0001:00040690       ??$_Destroy@U?$pair@$$CBV?$basic_string@DU?$char_traits@D@std@@V?$allocator@D@2@@std@@V?$multimap@HU?$pair@P6A?AV?$shared_ptr@VImageTarget@cinder@@@tr1@std@@V?$shared_ptr@VDataTarget@cinder@@@23@V?$shared_ptr@VImageSource@cinder@@@23@VOptions@ImageTarget@cinder@@ABV?$basic_string@DU?$char_traits@D@std@@V?$allocator@D@2@@3@@ZV93@@std@@U?$less@H@2@V?$allocator@U?$pair@$$CBHU?$pair@P6A?AV?$shared_ptr@VImageTarget@cinder@@@tr1@std@@V?$shared_ptr@VDataTarget@cinder@@@23@V?$shared_ptr@VImageSource@cinder@@@23@VOptions@ImageTarget@cinder@@ABV?$basic_string@DU?$char_traits@D@std@@V?$allocator@D@2@@3@@ZV93@@std@@@std@@@2@@2@@std@@@std@@YAXPAU?$pair@$$CBV?$basic_string@DU?$char_traits@D@std@@V?$allocator@D@2@@std@@V?$multimap@HU?$pair@P6A?AV?$shared_ptr@VImageTarget@cinder@@@tr1@std@@V?$shared_ptr@VDataTarget@cinder@@@23@V?$shared_ptr@VImageSource@cinder@@@23@VOptions@ImageTarget@cinder@@ABV?$basic_string@DU?$char_traits@D@std@@V?$allocator@D@2@@3@@ZV93@@std@@U?$less@H@2@V?$allocator@U?$pair@$$CBHU?$pair@P6A?AV?$shared_ptr@VImageTarget@cinder@@@tr1@std@@V?$shared_ptr@VDataTarget@cinder@@@23@V?$shared_ptr@VImageSource@cinder@@@23@VOptions@ImageTarget@cinder@@ABV?$basic_string@DU?$char_traits@D@std@@V?$allocator@D@2@@3@@ZV93@@std@@@std@@@2@@2@@0@@Z 00441690 f i cinder:ImageIo.obj
 0001:00040720       ??1?$map@V?$basic_string@DU?$char_traits@D@std@@V?$allocator@D@2@@std@@V?$multimap@HP6A?AV?$shared_ptr@VImageSource@cinder@@@tr1@std@@V?$shared_ptr@VDataSource@cinder@@@23@VOptions@ImageSource@cinder@@@ZU?$less@H@3@V?$allocator@U?$pair@$$CBHP6A?AV?$shared_ptr@VImageSource@cinder@@@tr1@std@@V?$shared_ptr@VDataSource@cinder@@@23@VOptions@ImageSource@cinder@@@Z@std@@@3@@2@U?$less@V?$basic_string@DU?$char_traits@D@std@@V?$allocator@D@2@@std@@@2@V?$allocator@U?$pair@$$CBV?$basic_string@DU?$char_traits@D@std@@V?$allocator@D@2@@std@@V?$multimap@HP6A?AV?$shared_ptr@VImageSource@cinder@@@tr1@std@@V?$shared_ptr@VDataSource@cinder@@@23@VOptions@ImageSource@cinder@@@ZU?$less@H@3@V?$allocator@U?$pair@$$CBHP6A?AV?$shared_ptr@VImageSource@cinder@@@tr1@std@@V?$shared_ptr@VDataSource@cinder@@@23@VOptions@ImageSource@cinder@@@Z@std@@@3@@2@@std@@@2@@std@@QAE@XZ 00441720 f i cinder:ImageIo.obj
 0001:00040780       ??$_Buynode@U?$pair@V?$basic_string@DU?$char_traits@D@std@@V?$allocator@D@2@@std@@V?$multimap@HU?$pair@P6A?AV?$shared_ptr@VImageTarget@cinder@@@tr1@std@@V?$shared_ptr@VDataTarget@cinder@@@23@V?$shared_ptr@VImageSource@cinder@@@23@VOptions@ImageTarget@cinder@@ABV?$basic_string@DU?$char_traits@D@std@@V?$allocator@D@2@@3@@ZV93@@std@@U?$less@H@2@V?$allocator@U?$pair@$$CBHU?$pair@P6A?AV?$shared_ptr@VImageTarget@cinder@@@tr1@std@@V?$shared_ptr@VDataTarget@cinder@@@23@V?$shared_ptr@VImageSource@cinder@@@23@VOptions@ImageTarget@cinder@@ABV?$basic_string@DU?$char_traits@D@std@@V?$allocator@D@2@@3@@ZV93@@std@@@std@@@2@@2@@std@@@?$_Tree_val@V?$_Tmap_traits@V?$basic_string@DU?$char_traits@D@std@@V?$allocator@D@2@@std@@V?$multimap@HU?$pair@P6A?AV?$shared_ptr@VImageTarget@cinder@@@tr1@std@@V?$shared_ptr@VDataTarget@cinder@@@23@V?$shared_ptr@VImageSource@cinder@@@23@VOptions@ImageTarget@cinder@@ABV?$basic_string@DU?$char_traits@D@std@@V?$allocator@D@2@@3@@ZV93@@std@@U?$less@H@2@V?$allocator@U?$pair@$$CBHU?$pair@P6A?AV?$shared_ptr@VImageTarget@cinder@@@tr1@std@@V?$shared_ptr@VDataTarget@cinder@@@23@V?$shared_ptr@VImageSource@cinder@@@23@VOptions@ImageTarget@cinder@@ABV?$basic_string@DU?$char_traits@D@std@@V?$allocator@D@2@@3@@ZV93@@std@@@std@@@2@@2@U?$less@V?$basic_string@DU?$char_traits@D@std@@V?$allocator@D@2@@std@@@2@V?$allocator@U?$pair@$$CBV?$basic_string@DU?$char_traits@D@std@@V?$allocator@D@2@@std@@V?$multimap@HU?$pair@P6A?AV?$shared_ptr@VImageTarget@cinder@@@tr1@std@@V?$shared_ptr@VDataTarget@cinder@@@23@V?$shared_ptr@VImageSource@cinder@@@23@VOptions@ImageTarget@cinder@@ABV?$basic_string@DU?$char_traits@D@std@@V?$allocator@D@2@@3@@ZV93@@std@@U?$less@H@2@V?$allocator@U?$pair@$$CBHU?$pair@P6A?AV?$shared_ptr@VImageTarget@cinder@@@tr1@std@@V?$shared_ptr@VDataTarget@cinder@@@23@V?$shared_ptr@VImageSource@cinder@@@23@VOptions@ImageTarget@cinder@@ABV?$basic_string@DU?$char_traits@D@std@@V?$allocator@D@2@@3@@ZV93@@std@@@std@@@2@@2@@std@@@2@$0A@@std@@@std@@QAEPAU_Node@?$_Tree_nod@V?$_Tmap_traits@V?$basic_string@DU?$char_traits@D@std@@V?$allocator@D@2@@std@@V?$multimap@HU?$pair@P6A?AV?$shared_ptr@VImageTarget@cinder@@@tr1@std@@V?$shared_ptr@VDataTarget@cinder@@@23@V?$shared_ptr@VImageSource@cinder@@@23@VOptions@ImageTarget@cinder@@ABV?$basic_string@DU?$char_traits@D@std@@V?$allocator@D@2@@3@@ZV93@@std@@U?$less@H@2@V?$allocator@U?$pair@$$CBHU?$pair@P6A?AV?$shared_ptr@VImageTarget@cinder@@@tr1@std@@V?$shared_ptr@VDataTarget@cinder@@@23@V?$shared_ptr@VImageSource@cinder@@@23@VOptions@ImageTarget@cinder@@ABV?$basic_string@DU?$char_traits@D@std@@V?$allocator@D@2@@3@@ZV93@@std@@@std@@@2@@2@U?$less@V?$basic_string@DU?$char_traits@D@std@@V?$allocator@D@2@@std@@@2@V?$allocator@U?$pair@$$CBV?$basic_string@DU?$char_traits@D@std@@V?$allocator@D@2@@std@@V?$multimap@HU?$pair@P6A?AV?$shared_ptr@VImageTarget@cinder@@@tr1@std@@V?$shared_ptr@VDataTarget@cinder@@@23@V?$shared_ptr@VImageSource@cinder@@@23@VOptions@ImageTarget@cinder@@ABV?$basic_string@DU?$char_traits@D@std@@V?$allocator@D@2@@3@@ZV93@@std@@U?$less@H@2@V?$allocator@U?$pair@$$CBHU?$pair@P6A?AV?$shared_ptr@VImageTarget@cinder@@@tr1@std@@V?$shared_ptr@VDataTarget@cinder@@@23@V?$shared_ptr@VImageSource@cinder@@@23@VOptions@ImageTarget@cinder@@ABV?$basic_string@DU?$char_traits@D@std@@V?$allocator@D@2@@3@@ZV93@@std@@@std@@@2@@2@@std@@@2@$0A@@std@@@1@$$QAU?$pair@V?$basic_string@DU?$char_traits@D@std@@V?$allocator@D@2@@std@@V?$multimap@HU?$pair@P6A?AV?$shared_ptr@VImageTarget@cinder@@@tr1@std@@V?$shared_ptr@VDataTarget@cinder@@@23@V?$shared_ptr@VImageSource@cinder@@@23@VOptions@ImageTarget@cinder@@ABV?$basic_string@DU?$char_traits@D@std@@V?$allocator@D@2@@3@@ZV93@@std@@U?$less@H@2@V?$allocator@U?$pair@$$CBHU?$pair@P6A?AV?$shared_ptr@VImageTarget@cinder@@@tr1@std@@V?$shared_ptr@VDataTarget@cinder@@@23@V?$shared_ptr@VImageSource@cinder@@@23@VOptions@ImageTarget@cinder@@ABV?$basic_string@DU?$char_traits@D@std@@V?$allocator@D@2@@3@@ZV93@@std@@@std@@@2@@2@@1@@Z 00441780 f i cinder:ImageIo.obj
 0001:00040870       ?_Insert@?$_Tree@V?$_Tmap_traits@V?$basic_string@DU?$char_traits@D@std@@V?$allocator@D@2@@std@@V?$multimap@HU?$pair@P6A?AV?$shared_ptr@VImageTarget@cinder@@@tr1@std@@V?$shared_ptr@VDataTarget@cinder@@@23@V?$shared_ptr@VImageSource@cinder@@@23@VOptions@ImageTarget@cinder@@ABV?$basic_string@DU?$char_traits@D@std@@V?$allocator@D@2@@3@@ZV93@@std@@U?$less@H@2@V?$allocator@U?$pair@$$CBHU?$pair@P6A?AV?$shared_ptr@VImageTarget@cinder@@@tr1@std@@V?$shared_ptr@VDataTarget@cinder@@@23@V?$shared_ptr@VImageSource@cinder@@@23@VOptions@ImageTarget@cinder@@ABV?$basic_string@DU?$char_traits@D@std@@V?$allocator@D@2@@3@@ZV93@@std@@@std@@@2@@2@U?$less@V?$basic_string@DU?$char_traits@D@std@@V?$allocator@D@2@@std@@@2@V?$allocator@U?$pair@$$CBV?$basic_string@DU?$char_traits@D@std@@V?$allocator@D@2@@std@@V?$multimap@HU?$pair@P6A?AV?$shared_ptr@VImageTarget@cinder@@@tr1@std@@V?$shared_ptr@VDataTarget@cinder@@@23@V?$shared_ptr@VImageSource@cinder@@@23@VOptions@ImageTarget@cinder@@ABV?$basic_string@DU?$char_traits@D@std@@V?$allocator@D@2@@3@@ZV93@@std@@U?$less@H@2@V?$allocator@U?$pair@$$CBHU?$pair@P6A?AV?$shared_ptr@VImageTarget@cinder@@@tr1@std@@V?$shared_ptr@VDataTarget@cinder@@@23@V?$shared_ptr@VImageSource@cinder@@@23@VOptions@ImageTarget@cinder@@ABV?$basic_string@DU?$char_traits@D@std@@V?$allocator@D@2@@3@@ZV93@@std@@@std@@@2@@2@@std@@@2@$0A@@std@@@std@@IAE?AV?$_Tree_iterator@V?$_Tree_val@V?$_Tmap_traits@V?$basic_string@DU?$char_traits@D@std@@V?$allocator@D@2@@std@@V?$multimap@HU?$pair@P6A?AV?$shared_ptr@VImageTarget@cinder@@@tr1@std@@V?$shared_ptr@VDataTarget@cinder@@@23@V?$shared_ptr@VImageSource@cinder@@@23@VOptions@ImageTarget@cinder@@ABV?$basic_string@DU?$char_traits@D@std@@V?$allocator@D@2@@3@@ZV93@@std@@U?$less@H@2@V?$allocator@U?$pair@$$CBHU?$pair@P6A?AV?$shared_ptr@VImageTarget@cinder@@@tr1@std@@V?$shared_ptr@VDataTarget@cinder@@@23@V?$shared_ptr@VImageSource@cinder@@@23@VOptions@ImageTarget@cinder@@ABV?$basic_string@DU?$char_traits@D@std@@V?$allocator@D@2@@3@@ZV93@@std@@@std@@@2@@2@U?$less@V?$basic_string@DU?$char_traits@D@std@@V?$allocator@D@2@@std@@@2@V?$allocator@U?$pair@$$CBV?$basic_string@DU?$char_traits@D@std@@V?$allocator@D@2@@std@@V?$multimap@HU?$pair@P6A?AV?$shared_ptr@VImageTarget@cinder@@@tr1@std@@V?$shared_ptr@VDataTarget@cinder@@@23@V?$shared_ptr@VImageSource@cinder@@@23@VOptions@ImageTarget@cinder@@ABV?$basic_string@DU?$char_traits@D@std@@V?$allocator@D@2@@3@@ZV93@@std@@U?$less@H@2@V?$allocator@U?$pair@$$CBHU?$pair@P6A?AV?$shared_ptr@VImageTarget@cinder@@@tr1@std@@V?$shared_ptr@VDataTarget@cinder@@@23@V?$shared_ptr@VImageSource@cinder@@@23@VOptions@ImageTarget@cinder@@ABV?$basic_string@DU?$char_traits@D@std@@V?$allocator@D@2@@3@@ZV93@@std@@@std@@@2@@2@@std@@@2@$0A@@std@@@std@@@2@_NPAU_Node@?$_Tree_nod@V?$_Tmap_traits@V?$basic_string@DU?$char_traits@D@std@@V?$allocator@D@2@@std@@V?$multimap@HU?$pair@P6A?AV?$shared_ptr@VImageTarget@cinder@@@tr1@std@@V?$shared_ptr@VDataTarget@cinder@@@23@V?$shared_ptr@VImageSource@cinder@@@23@VOptions@ImageTarget@cinder@@ABV?$basic_string@DU?$char_traits@D@std@@V?$allocator@D@2@@3@@ZV93@@std@@U?$less@H@2@V?$allocator@U?$pair@$$CBHU?$pair@P6A?AV?$shared_ptr@VImageTarget@cinder@@@tr1@std@@V?$shared_ptr@VDataTarget@cinder@@@23@V?$shared_ptr@VImageSource@cinder@@@23@VOptions@ImageTarget@cinder@@ABV?$basic_string@DU?$char_traits@D@std@@V?$allocator@D@2@@3@@ZV93@@std@@@std@@@2@@2@U?$less@V?$basic_string@DU?$char_traits@D@std@@V?$allocator@D@2@@std@@@2@V?$allocator@U?$pair@$$CBV?$basic_string@DU?$char_traits@D@std@@V?$allocator@D@2@@std@@V?$multimap@HU?$pair@P6A?AV?$shared_ptr@VImageTarget@cinder@@@tr1@std@@V?$shared_ptr@VDataTarget@cinder@@@23@V?$shared_ptr@VImageSource@cinder@@@23@VOptions@ImageTarget@cinder@@ABV?$basic_string@DU?$char_traits@D@std@@V?$allocator@D@2@@3@@ZV93@@std@@U?$less@H@2@V?$allocator@U?$pair@$$CBHU?$pair@P6A?AV?$shared_ptr@VImageTarget@cinder@@@tr1@std@@V?$shared_ptr@VDataTarget@cinder@@@23@V?$shared_ptr@VImageSource@cinder@@@23@VOptions@ImageTarget@cinder@@ABV?$basic_string@DU?$char_traits@D@std@@V?$allocator@D@2@@3@@ZV93@@std@@@std@@@2@@2@@std@@@2@$0A@@std@@@2@1@Z 00441870 f i cinder:ImageIo.obj
 0001:00040aa0       ?erase@?$_Tree@V?$_Tmap_traits@V?$basic_string@DU?$char_traits@D@std@@V?$allocator@D@2@@std@@V?$multimap@HU?$pair@P6A?AV?$shared_ptr@VImageTarget@cinder@@@tr1@std@@V?$shared_ptr@VDataTarget@cinder@@@23@V?$shared_ptr@VImageS8de6e224d2e6bfd61b9b6814a738cec7 00441aa0 f i cinder:ImageIo.obj
 0001:00040d70       ?_Erase@?$_Tree@V?$_Tmap_traits@V?$basic_string@DU?$char_traits@D@std@@V?$allocator@D@2@@std@@V?$multimap@HU?$pair@P6A?AV?$shared_ptr@VImageTarget@cinder@@@tr1@std@@V?$shared_ptr@VDataTarget@cinder@@@23@V?$shared_ptr@VImageSource@cinder@@@23@VOptions@ImageTarget@cinder@@ABV?$basic_string@DU?$char_traits@D@std@@V?$allocator@D@2@@3@@ZV93@@std@@U?$less@H@2@V?$allocator@U?$pair@$$CBHU?$pair@P6A?AV?$shared_ptr@VImageTarget@cinder@@@tr1@std@@V?$shared_ptr@VDataTarget@cinder@@@23@V?$shared_ptr@VImageSource@cinder@@@23@VOptions@ImageTarget@cinder@@ABV?$basic_string@DU?$char_traits@D@std@@V?$allocator@D@2@@3@@ZV93@@std@@@std@@@2@@2@U?$less@V?$basic_string@DU?$char_traits@D@std@@V?$allocator@D@2@@std@@@2@V?$allocator@U?$pair@$$CBV?$basic_string@DU?$char_traits@D@std@@V?$allocator@D@2@@std@@V?$multimap@HU?$pair@P6A?AV?$shared_ptr@VImageTarget@cinder@@@tr1@std@@V?$shared_ptr@VDataTarget@cinder@@@23@V?$shared_ptr@VImageSource@cinder@@@23@VOptions@ImageTarget@cinder@@ABV?$basic_string@DU?$char_traits@D@std@@V?$allocator@D@2@@3@@ZV93@@std@@U?$less@H@2@V?$allocator@U?$pair@$$CBHU?$pair@P6A?AV?$shared_ptr@VImageTarget@cinder@@@tr1@std@@V?$shared_ptr@VDataTarget@cinder@@@23@V?$shared_ptr@VImageSource@cinder@@@23@VOptions@ImageTarget@cinder@@ABV?$basic_string@DU?$char_traits@D@std@@V?$allocator@D@2@@3@@ZV93@@std@@@std@@@2@@2@@std@@@2@$0A@@std@@@std@@IAEXPAU_Node@?$_Tree_nod@V?$_Tmap_traits@V?$basic_string@DU?$char_traits@D@std@@V?$allocator@D@2@@std@@V?$multimap@HU?$pair@P6A?AV?$shared_ptr@VImageTarget@cinder@@@tr1@std@@V?$shared_ptr@VDataTarget@cinder@@@23@V?$shared_ptr@VImageSource@cinder@@@23@VOptions@ImageTarget@cinder@@ABV?$basic_string@DU?$char_traits@D@std@@V?$allocator@D@2@@3@@ZV93@@std@@U?$less@H@2@V?$allocator@U?$pair@$$CBHU?$pair@P6A?AV?$shared_ptr@VImageTarget@cinder@@@tr1@std@@V?$shared_ptr@VDataTarget@cinder@@@23@V?$shared_ptr@VImageSource@cinder@@@23@VOptions@ImageTarget@cinder@@ABV?$basic_string@DU?$char_traits@D@std@@V?$allocator@D@2@@3@@ZV93@@std@@@std@@@2@@2@U?$less@V?$basic_string@DU?$char_traits@D@std@@V?$allocator@D@2@@std@@@2@V?$allocator@U?$pair@$$CBV?$basic_string@DU?$char_traits@D@std@@V?$allocator@D@2@@std@@V?$multimap@HU?$pair@P6A?AV?$shared_ptr@VImageTarget@cinder@@@tr1@std@@V?$shared_ptr@VDataTarget@cinder@@@23@V?$shared_ptr@VImageSource@cinder@@@23@VOptions@ImageTarget@cinder@@ABV?$basic_string@DU?$char_traits@D@std@@V?$allocator@D@2@@3@@ZV93@@std@@U?$less@H@2@V?$allocator@U?$pair@$$CBHU?$pair@P6A?AV?$shared_ptr@VImageTarget@cinder@@@tr1@std@@V?$shared_ptr@VDataTarget@cinder@@@23@V?$shared_ptr@VImageSource@cinder@@@23@VOptions@ImageTarget@cinder@@ABV?$basic_string@DU?$char_traits@D@std@@V?$allocator@D@2@@3@@ZV93@@std@@@std@@@2@@2@@std@@@2@$0A@@std@@@2@@Z 00441d70 f i cinder:ImageIo.obj
 0001:00040e50       ?_Linsert@?$_Tree@V?$_Tmap_traits@V?$basic_string@DU?$char_traits@D@std@@V?$allocator@D@2@@std@@V?$multimap@HU?$pair@P6A?AV?$shared_ptr@VImageTarget@cinder@@@tr1@std@@V?$shared_ptr@VDataTarget@cinder@@@23@V?$shared_ptr@VIma35db66e00551a5ac0eb0b1d003874bcc 00441e50 f i cinder:ImageIo.obj
 0001:00041000       ?registerTargetType@Inst@ImageIoRegistrar@cinder@@QAEXV?$basic_string@DU?$char_traits@D@std@@V?$allocator@D@2@@std@@P6A?AV?$shared_ptr@VImageTarget@cinder@@@tr1@5@V?$shared_ptr@VDataTarget@cinder@@@75@V?$shared_ptr@VImageSource@cinder@@@75@VOptions@ImageTarget@3@ABV45@@ZH4@Z 00442000 f   cinder:ImageIo.obj
 0001:00041320       ?erase@?$_Tree@V?$_Tmap_traits@V?$basic_string@DU?$char_traits@D@std@@V?$allocator@D@2@@std@@V?$multimap@HU?$pair@P6A?AV?$shared_ptr@VImageTarget@cinder@@@tr1@std@@V?$shared_ptr@VDataTarget@cinder@@@23@V?$shared_ptr@VImageSda3424650875b2c85800043577b5cf4c 00442320 f i cinder:ImageIo.obj
 0001:000413e0       ??1Inst@ImageIoRegistrar@cinder@@QAE@XZ 004423e0 f i cinder:ImageIo.obj
 0001:000414a0       ??0Inst@ImageIoRegistrar@cinder@@QAE@XZ 004424a0 f i cinder:ImageIo.obj
 0001:000415f0       ?_Destroy@?$_Ref_count@UInst@ImageIoRegistrar@cinder@@@tr1@std@@EAEXXZ 004425f0 f i cinder:ImageIo.obj
 0001:00041610       ??$_Resetp@UInst@ImageIoRegistrar@cinder@@@?$shared_ptr@UInst@ImageIoRegistrar@cinder@@@tr1@std@@AAEXPAUInst@ImageIoRegistrar@cinder@@@Z 00442610 f i cinder:ImageIo.obj
 0001:000416b0       ?instance@ImageIoRegistrar@cinder@@CAPAUInst@12@XZ 004426b0 f   cinder:ImageIo.obj
 0001:000417a0       ?registerTargetType@ImageIoRegistrar@cinder@@SAXV?$basic_string@DU?$char_traits@D@std@@V?$allocator@D@2@@std@@P6A?AV?$shared_ptr@VImageTarget@cinder@@@tr1@4@V?$shared_ptr@VDataTarget@cinder@@@64@V?$shared_ptr@VImageSource@cinder@@@64@VOptions@ImageTarget@2@ABV34@@ZH4@Z 004427a0 f   cinder:ImageIo.obj
 0001:00041840       ?registerSourceGeneric@ImageIoRegistrar@cinder@@SAXP6A?AV?$shared_ptr@VImageSource@cinder@@@tr1@std@@V?$shared_ptr@VDataSource@cinder@@@45@VOptions@ImageSource@2@@ZH@Z 00442840 f   cinder:ImageIo.obj
 0001:00041880       ?_Destroy@?$_Ref_count@UObj@?$ChannelT@E@cinder@@@tr1@std@@EAEXXZ 00442880 f i cinder:Channel.obj
 0001:000418c0       ??$_Resetp@UObj@?$ChannelT@E@cinder@@@?$shared_ptr@UObj@?$ChannelT@E@cinder@@@tr1@std@@AAEXPAUObj@?$ChannelT@E@cinder@@@Z 004428c0 f i cinder:Channel.obj
 0001:00041980       ??0?$ChannelT@E@cinder@@QAE@HHHEPAE@Z 00442980 f i cinder:Channel.obj
 0001:00041e60       ?translateNativeKeyCode@KeyEvent@app@cinder@@SAHH@Z 00442e60 f   cinder:KeyEvent.obj
 0001:00041e90       ?min@?$math@M@cinder@@SAMMM@Z 00442e90 f i cinder:TimelineItem.obj
 0001:00041ec0       ?loopTime@TimelineItem@cinder@@IAEMM@Z 00442ec0 f   cinder:TimelineItem.obj
 0001:00041f50       ?updateDuration@TimelineItem@cinder@@IBEXXZ 00442f50 f   cinder:TimelineItem.obj
 0001:00041fc0       ?stepTo@TimelineItem@cinder@@QAEXM_N@Z 00442fc0 f   cinder:TimelineItem.obj
 0001:000421a0       ??0TimelineItem@cinder@@QAE@PAVTimeline@1@PAXMM@Z 004431a0 f   cinder:TimelineItem.obj
 0001:00042220       ?writeData@OStream@cinder@@QAEXPBXI@Z 00443220 f   cinder:Stream.obj
 0001:00042230       ??1?$scoped_array@_W@boost@@QAE@XZ 00443230 f i libboost_filesystem-vc100-mt-s-1_48:operations.obj
 0001:00042230       ??1?$scoped_array@D@boost@@QAE@XZ 00443230 f i cinder:Stream.obj
 0001:00042240       ?append@?$basic_string@DU?$char_traits@D@std@@V?$allocator@D@2@@std@@QAEAAV12@ID@Z 00443240 f i cinder:Stream.obj
 0001:000422f0       _heapAlloc                 004432f0 f   cinder:tess.obj
 0001:00042310       _heapRealloc               00443310 f   cinder:tess.obj
 0001:00042330       _heapFree                  00443330 f   cinder:tess.obj
 0001:00042350       ?_Get_deleter@?$_Ref_count_del@UIWICStream@@P6AXPAX@Z@tr1@std@@UBEPAXABVtype_info@@@Z 00443350 f i cinder:ImageSourceFileWic.obj
 0001:00042350       ?_Get_deleter@?$_Ref_count_del@UIWICBitmapEncoder@@P6AXPAX@Z@tr1@std@@UBEPAXABVtype_info@@@Z 00443350 f i cinder:ImageTargetFileWic.obj
 0001:00042350       ?_Get_deleter@?$_Ref_count_del@UIWICFormatConverter@@P6AXPAX@Z@tr1@std@@UBEPAXABVtype_info@@@Z 00443350 f i cinder:ImageSourceFileWic.obj
 0001:00042350       ?_Get_deleter@?$_Ref_count_del@UIWICImagingFactory@@P6AXPAX@Z@tr1@std@@UBEPAXABVtype_info@@@Z 00443350 f i cinder:ImageSourceFileWic.obj
 0001:00042350       ?_Get_deleter@?$_Ref_count_del@UIWICBitmapDecoder@@P6AXPAX@Z@tr1@std@@UBEPAXABVtype_info@@@Z 00443350 f i cinder:ImageSourceFileWic.obj
 0001:00042350       ?_Get_deleter@?$_Ref_count_del@UIWICBitmapFrameEncode@@P6AXPAX@Z@tr1@std@@UBEPAXABVtype_info@@@Z 00443350 f i cinder:ImageTargetFileWic.obj
 0001:00042350       ?_Get_deleter@?$_Ref_count_del@UIWICBitmapFrameDecode@@P6AXPAX@Z@tr1@std@@UBEPAXABVtype_info@@@Z 00443350 f i cinder:ImageSourceFileWic.obj
 0001:00042350       ?_Get_deleter@?$_Ref_count_del@VComOStream@msw@cinder@@P6AXPAX@Z@tr1@std@@UBEPAXABVtype_info@@@Z 00443350 f i cinder:ImageTargetFileWic.obj
 0001:00042380       ?processFormat@ImageSourceFileWic@cinder@@IAE_NABU_GUID@@PAU3@@Z 00443380 f   cinder:ImageSourceFileWic.obj
 0001:000426a0       ??$_Resetp@VImageSourceFileWic@cinder@@@?$shared_ptr@VImageSourceFileWic@cinder@@@tr1@std@@AAEXPAVImageSourceFileWic@cinder@@@Z 004436a0 f i cinder:ImageSourceFileWic.obj
 0001:00042740       ??$_Resetp@UIWICImagingFactory@@P6AXPAX@Z@?$shared_ptr@UIWICImagingFactory@@@tr1@std@@AAEXPAUIWICImagingFactory@@P6AXPAX@Z@Z 00443740 f i cinder:ImageSourceFileWic.obj
 0001:000427e0       ??$_Resetp@UIWICStream@@P6AXPAX@Z@?$shared_ptr@UIWICStream@@@tr1@std@@AAEXPAUIWICStream@@P6AXPAX@Z@Z 004437e0 f i cinder:ImageSourceFileWic.obj
 0001:00042880       ??$_Resetp@UIWICBitmapDecoder@@P6AXPAX@Z@?$shared_ptr@UIWICBitmapDecoder@@@tr1@std@@AAEXPAUIWICBitmapDecoder@@P6AXPAX@Z@Z 00443880 f i cinder:ImageSourceFileWic.obj
 0001:00042920       ??$_Resetp@UIWICBitmapFrameDecode@@P6AXPAX@Z@?$shared_ptr@UIWICBitmapFrameDecode@@@tr1@std@@AAEXPAUIWICBitmapFrameDecode@@P6AXPAX@Z@Z 00443920 f i cinder:ImageSourceFileWic.obj
 0001:000429c0       ??$_Resetp@UIWICFormatConverter@@P6AXPAX@Z@?$shared_ptr@UIWICFormatConverter@@@tr1@std@@AAEXPAUIWICFormatConverter@@P6AXPAX@Z@Z 004439c0 f i cinder:ImageSourceFileWic.obj
 0001:00042a60       ?load@ImageSourceFileWic@cinder@@UAEXV?$shared_ptr@VImageTarget@cinder@@@tr1@std@@@Z 00443a60 f   cinder:ImageSourceFileWic.obj
 0001:00042b80       ??$makeComShared@UIWICImagingFactory@@@msw@cinder@@YA?AV?$shared_ptr@UIWICImagingFactory@@@tr1@std@@PAUIWICImagingFactory@@@Z 00443b80 f i cinder:ImageSourceFileWic.obj
 0001:00042bb0       ??$makeComShared@UIWICStream@@@msw@cinder@@YA?AV?$shared_ptr@UIWICStream@@@tr1@std@@PAUIWICStream@@@Z 00443bb0 f i cinder:ImageSourceFileWic.obj
 0001:00042be0       ??$makeComShared@UIWICBitmapDecoder@@@msw@cinder@@YA?AV?$shared_ptr@UIWICBitmapDecoder@@@tr1@std@@PAUIWICBitmapDecoder@@@Z 00443be0 f i cinder:ImageSourceFileWic.obj
 0001:00042c10       ??$makeComShared@UIWICBitmapFrameDecode@@@msw@cinder@@YA?AV?$shared_ptr@UIWICBitmapFrameDecode@@@tr1@std@@PAUIWICBitmapFrameDecode@@@Z 00443c10 f i cinder:ImageSourceFileWic.obj
 0001:00042c40       ??$makeComShared@UIWICFormatConverter@@@msw@cinder@@YA?AV?$shared_ptr@UIWICFormatConverter@@@tr1@std@@PAUIWICFormatConverter@@@Z 00443c40 f i cinder:ImageSourceFileWic.obj
 0001:00042c70       ??0ImageSourceFileWic@cinder@@IAE@V?$shared_ptr@VDataSource@cinder@@@tr1@std@@VOptions@ImageSource@1@@Z 00443c70 f   cinder:ImageSourceFileWic.obj
 0001:00043190       ??_GImageSourceFileWic@cinder@@UAEPAXI@Z 00444190 f i cinder:ImageSourceFileWic.obj
 0001:00043190       ??_EImageSourceFileWic@cinder@@UAEPAXI@Z 00444190 f i cinder:ImageSourceFileWic.obj
 0001:00043220       ?createFileWicRef@ImageSourceFileWic@cinder@@SA?AV?$shared_ptr@VImageSourceFileWic@cinder@@@tr1@std@@V?$shared_ptr@VDataSource@cinder@@@45@VOptions@ImageSource@2@@Z 00444220 f   cinder:ImageSourceFileWic.obj
 0001:000432f0       ?createRef@ImageSourceFileWic@cinder@@SA?AV?$shared_ptr@VImageSource@cinder@@@tr1@std@@V?$shared_ptr@VDataSource@cinder@@@45@VOptions@ImageSource@2@@Z 004442f0 f i cinder:ImageSourceFileWic.obj
 0001:000433e0       ?registerSelf@ImageSourceFileWic@cinder@@SAXXZ 004443e0 f   cinder:ImageSourceFileWic.obj
 0001:000433f0       ?_Max@?$_Tree_val@V?$_Tmap_traits@V?$basic_string@DU?$char_traits@D@std@@V?$allocator@D@2@@std@@PBU_GUID@@U?$less@V?$basic_string@DU?$char_traits@D@std@@V?$allocator@D@2@@std@@@2@V?$allocator@U?$pair@$$CBV?$basic_string@DU?$char_traits@D@std@@V?$allocator@D@2@@std@@PBU_GUID@@@std@@@2@$0A@@std@@@std@@SAPAU_Node@?$_Tree_nod@V?$_Tmap_traits@V?$basic_string@DU?$char_traits@D@std@@V?$allocator@D@2@@std@@PBU_GUID@@U?$less@V?$basic_string@DU?$char_traits@D@std@@V?$allocator@D@2@@std@@@2@V?$allocator@U?$pair@$$CBV?$basic_string@DU?$char_traits@D@std@@V?$allocator@D@2@@std@@PBU_GUID@@@std@@@2@$0A@@std@@@2@PAU342@@Z 004443f0 f i cinder:ImageTargetFileWic.obj
 0001:00043410       ?_Min@?$_Tree_val@V?$_Tmap_traits@V?$basic_string@DU?$char_traits@D@std@@V?$allocator@D@2@@std@@PBU_GUID@@U?$less@V?$basic_string@DU?$char_traits@D@std@@V?$allocator@D@2@@std@@@2@V?$allocator@U?$pair@$$CBV?$basic_string@DU?$char_traits@D@std@@V?$allocator@D@2@@std@@PBU_GUID@@@std@@@2@$0A@@std@@@std@@SAPAU_Node@?$_Tree_nod@V?$_Tmap_traits@V?$basic_string@DU?$char_traits@D@std@@V?$allocator@D@2@@std@@PBU_GUID@@U?$less@V?$basic_string@DU?$char_traits@D@std@@V?$allocator@D@2@@std@@@2@V?$allocator@U?$pair@$$CBV?$basic_string@DU?$char_traits@D@std@@V?$allocator@D@2@@std@@PBU_GUID@@@std@@@2@$0A@@std@@@2@PAU342@@Z 00444410 f i cinder:ImageTargetFileWic.obj
 0001:00043430       ??E?$_Tree_unchecked_const_iterator@V?$_Tree_val@V?$_Tmap_traits@V?$basic_string@DU?$char_traits@D@std@@V?$allocator@D@2@@std@@PBU_GUID@@U?$less@V?$basic_string@DU?$char_traits@D@std@@V?$allocator@D@2@@std@@@2@V?$allocator@U?$pair@$$CBV?$basic_string@DU?$char_traits@D@std@@V?$allocator@D@2@@std@@PBU_GUID@@@std@@@2@$0A@@std@@@std@@U_Iterator_base0@2@@std@@QAEAAV01@XZ 00444430 f i cinder:ImageTargetFileWic.obj
 0001:00043480       ??F?$_Tree_unchecked_const_iterator@V?$_Tree_val@V?$_Tmap_traits@V?$basic_string@DU?$char_traits@D@std@@V?$allocator@D@2@@std@@PBU_GUID@@U?$less@V?$basic_string@DU?$char_traits@D@std@@V?$allocator@D@2@@std@@@2@V?$allocator@U?$pair@$$CBV?$basic_string@DU?$char_traits@D@std@@V?$allocator@D@2@@std@@PBU_GUID@@@std@@@2@$0A@@std@@@std@@U_Iterator_base0@2@@std@@QAEAAV01@XZ 00444480 f i cinder:ImageTargetFileWic.obj
 0001:000434e0       ?_Destroy@?$_Ref_count@VImageTargetFileWic@cinder@@@tr1@std@@EAEXXZ 004444e0 f i cinder:ImageTargetFileWic.obj
 0001:000434e0       ?_Destroy@?$_Ref_count@VImageSourceFileWic@cinder@@@tr1@std@@EAEXXZ 004444e0 f i cinder:ImageSourceFileWic.obj
 0001:00043500       ?_Destroy@?$_Ref_count_del@UIWICBitmapEncoder@@P6AXPAX@Z@tr1@std@@EAEXXZ 00444500 f i cinder:ImageTargetFileWic.obj
 0001:00043500       ?_Destroy@?$_Ref_count_del@UIWICBitmapDecoder@@P6AXPAX@Z@tr1@std@@EAEXXZ 00444500 f i cinder:ImageSourceFileWic.obj
 0001:00043500       ?_Destroy@?$_Ref_count_del@UIWICBitmapFrameDecode@@P6AXPAX@Z@tr1@std@@EAEXXZ 00444500 f i cinder:ImageSourceFileWic.obj
 0001:00043500       ?_Destroy@?$_Ref_count_del@UIWICFormatConverter@@P6AXPAX@Z@tr1@std@@EAEXXZ 00444500 f i cinder:ImageSourceFileWic.obj
 0001:00043500       ?_Destroy@?$_Ref_count_del@EP6AXPAE@Z@tr1@std@@EAEXXZ 00444500 f i cinder:Texture.obj
 0001:00043500       ?_Destroy@?$_Ref_count_del@UIWICImagingFactory@@P6AXPAX@Z@tr1@std@@EAEXXZ 00444500 f i cinder:ImageSourceFileWic.obj
 0001:00043500       ?_Destroy@?$_Ref_count_del@UIWICStream@@P6AXPAX@Z@tr1@std@@EAEXXZ 00444500 f i cinder:ImageSourceFileWic.obj
 0001:00043500       ?_Destroy@?$_Ref_count_del@UIWICBitmapFrameEncode@@P6AXPAX@Z@tr1@std@@EAEXXZ 00444500 f i cinder:ImageTargetFileWic.obj
 0001:00043500       ?_Destroy@?$_Ref_count_del@VComOStream@msw@cinder@@P6AXPAX@Z@tr1@std@@EAEXXZ 00444500 f i cinder:ImageTargetFileWic.obj
 0001:00043510       ?_Delete_this@?$_Ref_count@VDisplay@cinder@@@tr1@std@@EAEXXZ 00444510 f i cinder:Display.obj
 0001:00043510       ?_Delete_this@?$_Ref_count@UInst@ImageIoRegistrar@cinder@@@tr1@std@@EAEXXZ 00444510 f i cinder:ImageIo.obj
 0001:00043510       ?_Delete_this@?$_Ref_count@VTimeline@cinder@@@tr1@std@@EAEXXZ 00444510 f i cinder:App.obj
 0001:00043510       ?_Delete_this@?$_Ref_count@UObj@?$ChannelT@E@cinder@@@tr1@std@@EAEXXZ 00444510 f i cinder:Channel.obj
 0001:00043510       ?_Delete_this@?$_Ref_count_del@UIWICFormatConverter@@P6AXPAX@Z@tr1@std@@EAEXXZ 00444510 f i cinder:ImageSourceFileWic.obj
 0001:00043510       ?_Delete_this@?$_Ref_count_del@UIWICImagingFactory@@P6AXPAX@Z@tr1@std@@EAEXXZ 00444510 f i cinder:ImageSourceFileWic.obj
 0001:00043510       ?_Delete_this@?$_Ref_count@VImageSourceFileWic@cinder@@@tr1@std@@EAEXXZ 00444510 f i cinder:ImageSourceFileWic.obj
 0001:00043510       ?_Delete_this@?$_Ref_count_del@UIWICBitmapFrameEncode@@P6AXPAX@Z@tr1@std@@EAEXXZ 00444510 f i cinder:ImageTargetFileWic.obj
 0001:00043510       ?_Delete_this@?$_Ref_count@V?$map@V?$basic_string@DU?$char_traits@D@std@@V?$allocator@D@2@@std@@PBU_GUID@@U?$less@V?$basic_string@DU?$char_traits@D@std@@V?$allocator@D@2@@std@@@2@V?$allocator@U?$pair@$$CBV?$basic_string@DU?$char_traits@D@std@@V?$allocator@D@2@@std@@PBU_GUID@@@std@@@2@@std@@@tr1@std@@EAEXXZ 00444510 f i cinder:ImageTargetFileWic.obj
 0001:00043510       ?_Delete_this@?$_Ref_count_del@UtagTOUCHINPUT@@U?$checked_array_deleter@UtagTOUCHINPUT@@@boost@@@tr1@std@@EAEXXZ 00444510 f i cinder:AppImplMswBasic.obj
 0001:00043510       ?_Delete_this@?$_Ref_count@VImageTargetFileWic@cinder@@@tr1@std@@EAEXXZ 00444510 f i cinder:ImageTargetFileWic.obj
 0001:00043510       ?_Delete_this@?$_Ref_count_del@EP6AXPAE@Z@tr1@std@@EAEXXZ 00444510 f i cinder:Texture.obj
 0001:00043510       ?_Delete_this@?$_Ref_count_del@UIWICStream@@P6AXPAX@Z@tr1@std@@EAEXXZ 00444510 f i cinder:ImageSourceFileWic.obj
 0001:00043510       ?_Delete_this@?$_Ref_count@UObj@?$SurfaceT@E@cinder@@@tr1@std@@EAEXXZ 00444510 f i cinder:Surface.obj
 0001:00043510       ?_Delete_this@?$_Ref_count_del@VComOStream@msw@cinder@@P6AXPAX@Z@tr1@std@@EAEXXZ 00444510 f i cinder:ImageTargetFileWic.obj
 0001:00043510       ?_Delete_this@?$_Ref_count@VRenderer@app@cinder@@@tr1@std@@EAEXXZ 00444510 f i cinder:App.obj
 0001:00043510       ?_Delete_this@?$_Ref_count_del@UIWICBitmapDecoder@@P6AXPAX@Z@tr1@std@@EAEXXZ 00444510 f i cinder:ImageSourceFileWic.obj
 0001:00043510       ?_Delete_this@?$_Ref_count_del@UIWICBitmapFrameDecode@@P6AXPAX@Z@tr1@std@@EAEXXZ 00444510 f i cinder:ImageSourceFileWic.obj
 0001:00043510       ?_Delete_this@?$_Ref_count_del@UIWICBitmapEncoder@@P6AXPAX@Z@tr1@std@@EAEXXZ 00444510 f i cinder:ImageTargetFileWic.obj
 0001:00043520       ?setupPixelFormat@ImageTargetFileWic@cinder@@IAEXABU_GUID@@@Z 00444520 f   cinder:ImageTargetFileWic.obj
 0001:00043770       ??1?$_Tree_val@V?$_Tmap_traits@HU?$pair@P6A?AV?$shared_ptr@VImageTarget@cinder@@@tr1@std@@V?$shared_ptr@VDataTarget@cinder@@@23@V?$shared_ptr@VImageSource@cinder@@@23@VOptions@ImageTarget@cinder@@ABV?$basic_string@DU?$char_traits@D@std@@V?$allocator@D@2@@3@@ZV93@@std@@U?$less@H@2@V?$allocator@U?$pair@$$CBHU?$pair@P6A?AV?$shared_ptr@VImageTarget@cinder@@@tr1@std@@V?$shared_ptr@VDataTarget@cinder@@@23@V?$shared_ptr@VImageSource@cinder@@@23@VOptions@ImageTarget@cinder@@ABV?$basic_string@DU?$char_traits@D@std@@V?$allocator@D@2@@3@@ZV93@@std@@@std@@@2@$00@std@@@std@@QAE@XZ 00444770 f i cinder:ImageIo.obj
 0001:00043770       ??1?$_Tree_val@V?$_Tmap_traits@HP6A?AV?$shared_ptr@VImageSource@cinder@@@tr1@std@@V?$shared_ptr@VDataSource@cinder@@@23@VOptions@ImageSource@cinder@@@ZU?$less@H@3@V?$allocator@U?$pair@$$CBHP6A?AV?$shared_ptr@VImageSource@cinder@@@tr1@std@@V?$shared_ptr@VDataSource@cinder@@@23@VOptions@ImageSource@cinder@@@Z@std@@@3@$0A@@std@@@std@@QAE@XZ 00444770 f i cinder:ImageIo.obj
 0001:00043770       ??1?$_Tree_val@V?$_Tmap_traits@V?$basic_string@DU?$char_traits@D@std@@V?$allocator@D@2@@std@@PBU_GUID@@U?$less@V?$basic_string@DU?$char_traits@D@std@@V?$allocator@D@2@@std@@@2@V?$allocator@U?$pair@$$CBV?$basic_string@DU?$char_traits@D@std@@V?$allocator@D@2@@std@@PBU_GUID@@@std@@@2@$0A@@std@@@std@@QAE@XZ 00444770 f i cinder:ImageTargetFileWic.obj
 0001:00043770       ??1?$_Tree_val@V?$_Tmap_traits@PAXV?$shared_ptr@VTimelineItem@cinder@@@tr1@std@@U?$less@PAX@3@V?$allocator@U?$pair@QAXV?$shared_ptr@VTimelineItem@cinder@@@tr1@std@@@std@@@3@$00@std@@@std@@QAE@XZ 00444770 f i cinder:Timeline.obj
 0001:00043770       ??1?$_Tree_val@V?$_Tmap_traits@V?$basic_string@DU?$char_traits@D@std@@V?$allocator@D@2@@std@@V?$multimap@HP6A?AV?$shared_ptr@VImageSource@cinder@@@tr1@std@@V?$shared_ptr@VDataSource@cinder@@@23@VOptions@ImageSource@cinder@@@ZU?$less@H@3@V?$allocator@U?$pair@$$CBHP6A?AV?$shared_ptr@VImageSource@cinder@@@tr1@std@@V?$shared_ptr@VDataSource@cinder@@@23@VOptions@ImageSource@cinder@@@Z@std@@@3@@2@U?$less@V?$basic_string@DU?$char_traits@D@std@@V?$allocator@D@2@@std@@@2@V?$allocator@U?$pair@$$CBV?$basic_string@DU?$char_traits@D@std@@V?$allocator@D@2@@std@@V?$multimap@HP6A?AV?$shared_ptr@VImageSource@cinder@@@tr1@std@@V?$shared_ptr@VDataSource@cinder@@@23@VOptions@ImageSource@cinder@@@ZU?$less@H@3@V?$allocator@U?$pair@$$CBHP6A?AV?$shared_ptr@VImageSource@cinder@@@tr1@std@@V?$shared_ptr@VDataSource@cinder@@@23@VOptions@ImageSource@cinder@@@Z@std@@@3@@2@@std@@@2@$0A@@std@@@std@@QAE@XZ 00444770 f i cinder:ImageIo.obj
 0001:00043770       ??1?$_Tree_val@V?$_Tmap_traits@KV?$Vec2@M@cinder@@U?$less@K@std@@V?$allocator@U?$pair@$$CBKV?$Vec2@M@cinder@@@std@@@4@$0A@@std@@@std@@QAE@XZ 00444770 f i cinder:AppImplMswBasic.obj
 0001:00043770       ??1?$_Tree_val@V?$_Tmap_traits@HP6A?AV?$shared_ptr@VImageSource@cinder@@@tr1@std@@V?$shared_ptr@VDataSource@cinder@@@23@VOptions@ImageSource@cinder@@@ZU?$less@H@3@V?$allocator@U?$pair@$$CBHP6A?AV?$shared_ptr@VImageSource@cinder@@@tr1@std@@V?$shared_ptr@VDataSource@cinder@@@23@VOptions@ImageSource@cinder@@@Z@std@@@3@$00@std@@@std@@QAE@XZ 00444770 f i cinder:ImageIo.obj
 0001:00043770       ??1?$_Tree_val@V?$_Tmap_traits@V?$basic_string@DU?$char_traits@D@std@@V?$allocator@D@2@@std@@V?$multimap@HU?$pair@P6A?AV?$shared_ptr@VImageTarget@cinder@@@tr1@std@@V?$shared_ptr@VDataTarget@cinder@@@23@V?$shared_ptr@VImageSource@cinder@@@23@VOptions@ImageTarget@cinder@@ABV?$basic_string@DU?$char_traits@D@std@@V?$allocator@D@2@@3@@ZV93@@std@@U?$less@H@2@V?$allocator@U?$pair@$$CBHU?$pair@P6A?AV?$shared_ptr@VImageTarget@cinder@@@tr1@std@@V?$shared_ptr@VDataTarget@cinder@@@23@V?$shared_ptr@VImageSource@cinder@@@23@VOptions@ImageTarget@cinder@@ABV?$basic_string@DU?$char_traits@D@std@@V?$allocator@D@2@@3@@ZV93@@std@@@std@@@2@@2@U?$less@V?$basic_string@DU?$char_traits@D@std@@V?$allocator@D@2@@std@@@2@V?$allocator@U?$pair@$$CBV?$basic_string@DU?$char_traits@D@std@@V?$allocator@D@2@@std@@V?$multimap@HU?$pair@P6A?AV?$shared_ptr@VImageTarget@cinder@@@tr1@std@@V?$shared_ptr@VDataTarget@cinder@@@23@V?$shared_ptr@VImageSource@cinder@@@23@VOptions@ImageTarget@cinder@@ABV?$basic_string@DU?$char_traits@D@std@@V?$allocator@D@2@@3@@ZV93@@std@@U?$less@H@2@V?$allocator@U?$pair@$$CBHU?$pair@P6A?AV?$shared_ptr@VImageTarget@cinder@@@tr1@std@@V?$shared_ptr@VDataTarget@cinder@@@23@V?$shared_ptr@VImageSource@cinder@@@23@VOptions@ImageTarget@cinder@@ABV?$basic_string@DU?$char_traits@D@std@@V?$allocator@D@2@@3@@ZV93@@std@@@std@@@2@@2@@std@@@2@$0A@@std@@@std@@QAE@XZ 00444770 f i cinder:ImageIo.obj
 0001:00043780       ?_Lrotate@?$_Tree@V?$_Tmap_traits@V?$basic_string@DU?$char_traits@D@std@@V?$allocator@D@2@@std@@PBU_GUID@@U?$less@V?$basic_string@DU?$char_traits@D@std@@V?$allocator@D@2@@std@@@2@V?$allocator@U?$pair@$$CBV?$basic_string@DU?$char_traits@D@std@@V?$allocator@D@2@@std@@PBU_GUID@@@std@@@2@$0A@@std@@@std@@IAEXPAU_Node@?$_Tree_nod@V?$_Tmap_traits@V?$basic_string@DU?$char_traits@D@std@@V?$allocator@D@2@@std@@PBU_GUID@@U?$less@V?$basic_string@DU?$char_traits@D@std@@V?$allocator@D@2@@std@@@2@V?$allocator@U?$pair@$$CBV?$basic_string@DU?$char_traits@D@std@@V?$allocator@D@2@@std@@PBU_GUID@@@std@@@2@$0A@@std@@@2@@Z 00444780 f i cinder:ImageTargetFileWic.obj
 0001:000437e0       ?_Rrotate@?$_Tree@V?$_Tmap_traits@V?$basic_string@DU?$char_traits@D@std@@V?$allocator@D@2@@std@@PBU_GUID@@U?$less@V?$basic_string@DU?$char_traits@D@std@@V?$allocator@D@2@@std@@@2@V?$allocator@U?$pair@$$CBV?$basic_string@DU?$char_traits@D@std@@V?$allocator@D@2@@std@@PBU_GUID@@@std@@@2@$0A@@std@@@std@@IAEXPAU_Node@?$_Tree_nod@V?$_Tmap_traits@V?$basic_string@DU?$char_traits@D@std@@V?$allocator@D@2@@std@@PBU_GUID@@U?$less@V?$basic_string@DU?$char_traits@D@std@@V?$allocator@D@2@@std@@@2@V?$allocator@U?$pair@$$CBV?$basic_string@DU?$char_traits@D@std@@V?$allocator@D@2@@std@@PBU_GUID@@@std@@@2@$0A@@std@@@2@@Z 004447e0 f i cinder:ImageTargetFileWic.obj
 0001:00043840       ?getRowPointer@ImageTargetFileWic@cinder@@UAEPAXH@Z 00444840 f   cinder:ImageTargetFileWic.obj
 0001:00043860       ?finalize@ImageTargetFileWic@cinder@@UAEXXZ 00444860 f   cinder:ImageTargetFileWic.obj
 0001:00043910       ?_Lbound@?$_Tree@V?$_Tmap_traits@V?$basic_string@DU?$char_traits@D@std@@V?$allocator@D@2@@std@@PBU_GUID@@U?$less@V?$basic_string@DU?$char_traits@D@std@@V?$allocator@D@2@@std@@@2@V?$allocator@U?$pair@$$CBV?$basic_string@DU?$char_traits@D@std@@V?$allocator@D@2@@std@@PBU_GUID@@@std@@@2@$0A@@std@@@std@@IAEPAU_Node@?$_Tree_nod@V?$_Tmap_traits@V?$basic_string@DU?$char_traits@D@std@@V?$allocator@D@2@@std@@PBU_GUID@@U?$less@V?$basic_string@DU?$char_traits@D@std@@V?$allocator@D@2@@std@@@2@V?$allocator@U?$pair@$$CBV?$basic_string@DU?$char_traits@D@std@@V?$allocator@D@2@@std@@PBU_GUID@@@std@@@2@$0A@@std@@@2@ABV?$basic_string@DU?$char_traits@D@std@@V?$allocator@D@2@@2@@Z 00444910 f i cinder:ImageTargetFileWic.obj
 0001:000439a0       ??$_Resetp@VImageTargetFileWic@cinder@@@?$shared_ptr@VImageTarget@cinder@@@tr1@std@@AAEXPAVImageTargetFileWic@cinder@@@Z 004449a0 f i cinder:ImageTargetFileWic.obj
 0001:00043a40       ??$_Resetp@UIWICBitmapEncoder@@P6AXPAX@Z@?$shared_ptr@UIWICBitmapEncoder@@@tr1@std@@AAEXPAUIWICBitmapEncoder@@P6AXPAX@Z@Z 00444a40 f i cinder:ImageTargetFileWic.obj
 0001:00043ae0       ??$_Resetp@VComOStream@msw@cinder@@P6AXPAX@Z@?$shared_ptr@VComOStream@msw@cinder@@@tr1@std@@AAEXPAVComOStream@msw@cinder@@P6AXPAX@Z@Z 00444ae0 f i cinder:ImageTargetFileWic.obj
 0001:00043b80       ??$_Resetp@UIWICBitmapFrameEncode@@P6AXPAX@Z@?$shared_ptr@UIWICBitmapFrameEncode@@@tr1@std@@AAEXPAUIWICBitmapFrameEncode@@P6AXPAX@Z@Z 00444b80 f i cinder:ImageTargetFileWic.obj
 0001:00043c20       ??0ComOStream@msw@cinder@@QAE@V?$shared_ptr@VOStream@cinder@@@tr1@std@@@Z 00444c20 f i cinder:ImageTargetFileWic.obj
 0001:00043cc0       ?Read@ComOStream@msw@cinder@@UAGJPAXKPAK@Z 00444cc0 f i cinder:ImageTargetFileWic.obj
 0001:00043cd0       ?SetSize@ComOStream@msw@cinder@@UAGJT_ULARGE_INTEGER@@@Z 00444cd0 f i cinder:ImageTargetFileWic.obj
 0001:00043cd0       ?Stat@ComOStream@msw@cinder@@UAGJPAUtagSTATSTG@@K@Z 00444cd0 f i cinder:ImageTargetFileWic.obj
 0001:00043ce0       ?Revert@ComOStream@msw@cinder@@UAGJXZ 00444ce0 f i cinder:ImageTargetFileWic.obj
 0001:00043cf0       ?UnlockRegion@ComOStream@msw@cinder@@UAGJT_ULARGE_INTEGER@@0K@Z 00444cf0 f i cinder:ImageTargetFileWic.obj
 0001:00043cf0       ?CopyTo@ComOStream@msw@cinder@@UAGJPAUIStream@@T_ULARGE_INTEGER@@PAT5@2@Z 00444cf0 f i cinder:ImageTargetFileWic.obj
 0001:00043cf0       ?LockRegion@ComOStream@msw@cinder@@UAGJT_ULARGE_INTEGER@@0K@Z 00444cf0 f i cinder:ImageTargetFileWic.obj
 0001:00043d00       ?Clone@ComOStream@msw@cinder@@UAGJPAPAUIStream@@@Z 00444d00 f i cinder:ImageTargetFileWic.obj
 0001:00043d00       ?Commit@ComOStream@msw@cinder@@UAGJK@Z 00444d00 f i cinder:ImageTargetFileWic.obj
 0001:00043d10       ??$makeComShared@UIWICBitmapEncoder@@@msw@cinder@@YA?AV?$shared_ptr@UIWICBitmapEncoder@@@tr1@std@@PAUIWICBitmapEncoder@@@Z 00444d10 f i cinder:ImageTargetFileWic.obj
 0001:00043d40       ??$makeComShared@VComOStream@msw@cinder@@@msw@cinder@@YA?AV?$shared_ptr@VComOStream@msw@cinder@@@tr1@std@@PAVComOStream@01@@Z 00444d40 f i cinder:ImageTargetFileWic.obj
 0001:00043d70       ??$makeComShared@UIWICBitmapFrameEncode@@@msw@cinder@@YA?AV?$shared_ptr@UIWICBitmapFrameEncode@@@tr1@std@@PAUIWICBitmapFrameEncode@@@Z 00444d70 f i cinder:ImageTargetFileWic.obj
 0001:00043da0       ?_Insert@?$_Tree@V?$_Tmap_traits@V?$basic_string@DU?$char_traits@D@std@@V?$allocator@D@2@@std@@PBU_GUID@@U?$less@V?$basic_string@DU?$char_traits@D@std@@V?$allocator@D@2@@std@@@2@V?$allocator@U?$pair@$$CBV?$basic_string@DU?$char_traits@D@std@@V?$allocator@D@2@@std@@PBU_GUID@@@std@@@2@$0A@@std@@@std@@IAE?AV?$_Tree_iterator@V?$_Tree_val@V?$_Tmap_traits@V?$basic_string@DU?$char_traits@D@std@@V?$allocator@D@2@@std@@PBU_GUID@@U?$less@V?$basic_string@DU?$char_traits@D@std@@V?$allocator@D@2@@std@@@2@V?$allocator@U?$pair@$$CBV?$basic_string@DU?$char_traits@D@std@@V?$allocator@D@2@@std@@PBU_GUID@@@std@@@2@$0A@@std@@@std@@@2@_NPAU_Node@?$_Tree_nod@V?$_Tmap_traits@V?$basic_string@DU?$char_traits@D@std@@V?$allocator@D@2@@std@@PBU_GUID@@U?$less@V?$basic_string@DU?$char_traits@D@std@@V?$allocator@D@2@@std@@@2@V?$allocator@U?$pair@$$CBV?$basic_string@DU?$char_traits@D@std@@V?$allocator@D@2@@std@@PBU_GUID@@@std@@@2@$0A@@std@@@2@1@Z 00444da0 f i cinder:ImageTargetFileWic.obj
 0001:00043ff0       ?erase@?$_Tree@V?$_Tmap_traits@V?$basic_string@DU?$char_traits@D@std@@V?$allocator@D@2@@std@@PBU_GUID@@U?$less@V?$basic_string@DU?$char_traits@D@std@@V?$allocator@D@2@@std@@@2@V?$allocator@U?$pair@$$CBV?$basic_string@DU?$char_traits@D@std@@V?$allocator@D@2@@std@@PBU_GUID@@@std@@@2@$0A@@std@@@std@@QAE?AV?$_Tree_iterator@V?$_Tree_val@V?$_Tmap_traits@V?$basic_string@DU?$char_traits@D@std@@V?$allocator@D@2@@std@@PBU_GUID@@U?$less@V?$basic_string@DU?$char_traits@D@std@@V?$allocator@D@2@@std@@@2@V?$allocator@U?$pair@$$CBV?$basic_string@DU?$char_traits@D@std@@V?$allocator@D@2@@std@@PBU_GUID@@@std@@@2@$0A@@std@@@std@@@2@V?$_Tree_const_iterator@V?$_Tree_val@V?$_Tmap_traits@V?$basic_string@DU?$char_traits@D@std@@V?$allocator@D@2@@std@@PBU_GUID@@U?$less@V?$basic_string@DU?$char_traits@D@std@@V?$allocator@D@2@@std@@@2@V?$allocator@U?$pair@$$CBV?$basic_string@DU?$char_traits@D@std@@V?$allocator@D@2@@std@@PBU_GUID@@@std@@@2@$0A@@std@@@std@@@2@@Z 00444ff0 f i cinder:ImageTargetFileWic.obj
 0001:00044270       ?_Erase@?$_Tree@V?$_Tmap_traits@V?$basic_string@DU?$char_traits@D@std@@V?$allocator@D@2@@std@@PBU_GUID@@U?$less@V?$basic_string@DU?$char_traits@D@std@@V?$allocator@D@2@@std@@@2@V?$allocator@U?$pair@$$CBV?$basic_string@DU?$char_traits@D@std@@V?$allocator@D@2@@std@@PBU_GUID@@@std@@@2@$0A@@std@@@std@@IAEXPAU_Node@?$_Tree_nod@V?$_Tmap_traits@V?$basic_string@DU?$char_traits@D@std@@V?$allocator@D@2@@std@@PBU_GUID@@U?$less@V?$basic_string@DU?$char_traits@D@std@@V?$allocator@D@2@@std@@@2@V?$allocator@U?$pair@$$CBV?$basic_string@DU?$char_traits@D@std@@V?$allocator@D@2@@std@@PBU_GUID@@@std@@@2@$0A@@std@@@2@@Z 00445270 f i cinder:ImageTargetFileWic.obj
 0001:000442d0       ?_Linsert@?$_Tree@V?$_Tmap_traits@V?$basic_string@DU?$char_traits@D@std@@V?$allocator@D@2@@std@@PBU_GUID@@U?$less@V?$basic_string@DU?$char_traits@D@std@@V?$allocator@D@2@@std@@@2@V?$allocator@U?$pair@$$CBV?$basic_string@DU?$char_traits@D@std@@V?$allocator@D@2@@std@@PBU_GUID@@@std@@@2@$0A@@std@@@std@@QAE?AU?$pair@V?$_Tree_iterator@V?$_Tree_val@V?$_Tmap_traits@V?$basic_string@DU?$char_traits@D@std@@V?$allocator@D@2@@std@@PBU_GUID@@U?$less@V?$basic_string@DU?$char_traits@D@std@@V?$allocator@D@2@@std@@@2@V?$allocator@U?$pair@$$CBV?$basic_string@DU?$char_traits@D@std@@V?$allocator@D@2@@std@@PBU_GUID@@@std@@@2@$0A@@std@@@std@@@std@@_N@2@PAU_Node@?$_Tree_nod@V?$_Tmap_traits@V?$basic_string@DU?$char_traits@D@std@@V?$allocator@D@2@@std@@PBU_GUID@@U?$less@V?$basic_string@DU?$char_traits@D@std@@V?$allocator@D@2@@std@@@2@V?$allocator@U?$pair@$$CBV?$basic_string@DU?$char_traits@D@std@@V?$allocator@D@2@@std@@PBU_GUID@@@std@@@2@$0A@@std@@@2@_N@Z 004452d0 f i cinder:ImageTargetFileWic.obj
 0001:00044490       ?_Insert@?$_Tree@V?$_Tmap_traits@V?$basic_string@DU?$char_traits@D@std@@V?$allocator@D@2@@std@@PBU_GUID@@U?$less@V?$basic_string@DU?$char_traits@D@std@@V?$allocator@D@2@@std@@@2@V?$allocator@U?$pair@$$CBV?$basic_string@DU?$char_traits@D@std@@V?$allocator@D@2@@std@@PBU_GUID@@@std@@@2@$0A@@std@@@std@@QAE?AV?$_Tree_iterator@V?$_Tree_val@V?$_Tmap_traits@V?$basic_string@DU?$char_traits@D@std@@V?$allocator@D@2@@std@@PBU_GUID@@U?$less@V?$basic_string@DU?$char_traits@D@std@@V?$allocator@D@2@@std@@@2@V?$allocator@U?$pair@$$CBV?$basic_string@DU?$char_traits@D@std@@V?$allocator@D@2@@std@@PBU_GUID@@@std@@@2@$0A@@std@@@std@@@2@V?$_Tree_const_iterator@V?$_Tree_val@V?$_Tmap_traits@V?$basic_string@DU?$char_traits@D@std@@V?$allocator@D@2@@std@@PBU_GUID@@U?$less@V?$basic_string@DU?$char_traits@D@std@@V?$allocator@D@2@@std@@@2@V?$allocator@U?$pair@$$CBV?$basic_string@DU?$char_traits@D@std@@V?$allocator@D@2@@std@@PBU_GUID@@@std@@@2@$0A@@std@@@std@@@2@PAU_Node@?$_Tree_nod@V?$_Tmap_traits@V?$basic_string@DU?$char_traits@D@std@@V?$allocator@D@2@@std@@PBU_GUID@@U?$less@V?$basic_string@DU?$char_traits@D@std@@V?$allocator@D@2@@std@@@2@V?$allocator@U?$pair@$$CBV?$basic_string@DU?$char_traits@D@std@@V?$allocator@D@2@@std@@PBU_GUID@@@std@@@2@$0A@@std@@@2@@Z 00445490 f i cinder:ImageTargetFileWic.obj
 0001:00044650       ??$_Buynode@U?$pair@$$CBV?$basic_string@DU?$char_traits@D@std@@V?$allocator@D@2@@std@@PBU_GUID@@@std@@@?$_Tree_val@V?$_Tmap_traits@V?$basic_string@DU?$char_traits@D@std@@V?$allocator@D@2@@std@@PBU_GUID@@U?$less@V?$basic_string@DU?$char_traits@D@std@@V?$allocator@D@2@@std@@@2@V?$allocator@U?$pair@$$CBV?$basic_string@DU?$char_traits@D@std@@V?$allocator@D@2@@std@@PBU_GUID@@@std@@@2@$0A@@std@@@std@@QAEPAU_Node@?$_Tree_nod@V?$_Tmap_traits@V?$basic_string@DU?$char_traits@D@std@@V?$allocator@D@2@@std@@PBU_GUID@@U?$less@V?$basic_string@DU?$char_traits@D@std@@V?$allocator@D@2@@std@@@2@V?$allocator@U?$pair@$$CBV?$basic_string@DU?$char_traits@D@std@@V?$allocator@D@2@@std@@PBU_GUID@@@std@@@2@$0A@@std@@@1@$$QAU?$pair@$$CBV?$basic_string@DU?$char_traits@D@std@@V?$allocator@D@2@@std@@PBU_GUID@@@1@@Z 00445650 f i cinder:ImageTargetFileWic.obj
 0001:00044730       ?erase@?$_Tree@V?$_Tmap_traits@V?$basic_string@DU?$char_traits@D@std@@V?$allocator@D@2@@std@@PBU_GUID@@U?$less@V?$basic_string@DU?$char_traits@D@std@@V?$allocator@D@2@@std@@@2@V?$allocator@U?$pair@$$CBV?$basic_string@DU?$char_traits@D@std@@V?$allocator@D@2@@std@@PBU_GUID@@@std@@@2@$0A@@std@@@std@@QAE?AV?$_Tree_iterator@V?$_Tree_val@V?$_Tmap_traits@V?$basic_string@DU?$char_traits@D@std@@V?$allocator@D@2@@std@@PBU_GUID@@U?$less@V?$basic_string@DU?$char_traits@D@std@@V?$allocator@D@2@@std@@@2@V?$allocator@U?$pair@$$CBV?$basic_string@DU?$char_traits@D@std@@V?$allocator@D@2@@std@@PBU_GUID@@@std@@@2@$0A@@std@@@std@@@2@V?$_Tree_const_iterator@V?$_Tree_val@V?$_Tmap_traits@V?$basic_string@DU?$char_traits@D@std@@V?$allocator@D@2@@std@@PBU_GUID@@U?$less@V?$basic_string@DU?$char_traits@D@std@@V?$allocator@D@2@@std@@@2@V?$allocator@U?$pair@$$CBV?$basic_string@DU?$char_traits@D@std@@V?$allocator@D@2@@std@@PBU_GUID@@@std@@@2@$0A@@std@@@std@@@2@0@Z 00445730 f i cinder:ImageTargetFileWic.obj
 0001:000447f0       ??A?$map@V?$basic_string@DU?$char_traits@D@std@@V?$allocator@D@2@@std@@PBU_GUID@@U?$less@V?$basic_string@DU?$char_traits@D@std@@V?$allocator@D@2@@std@@@2@V?$allocator@U?$pair@$$CBV?$basic_string@DU?$char_traits@D@std@@V?$allocator@D@2@@std@@PBU_GUID@@@std@@@2@@std@@QAEAAPBU_GUID@@ABV?$basic_string@DU?$char_traits@D@std@@V?$allocator@D@2@@1@@Z 004457f0 f i cinder:ImageTargetFileWic.obj
 0001:000448d0       ?_Destroy@?$_Ref_count@V?$map@V?$basic_string@DU?$char_traits@D@std@@V?$allocator@D@2@@std@@PBU_GUID@@U?$less@V?$basic_string@DU?$char_traits@D@std@@V?$allocator@D@2@@std@@@2@V?$allocator@U?$pair@$$CBV?$basic_string@DU?$char_traits@D@std@@V?$allocator@D@2@@std@@PBU_GUID@@@std@@@2@@std@@@tr1@std@@EAEXXZ 004458d0 f i cinder:ImageTargetFileWic.obj
 0001:00044940       ??$_Resetp@V?$map@V?$basic_string@DU?$char_traits@D@std@@V?$allocator@D@2@@std@@PBU_GUID@@U?$less@V?$basic_string@DU?$char_traits@D@std@@V?$allocator@D@2@@std@@@2@V?$allocator@U?$pair@$$CBV?$basic_string@DU?$char_traits@D@std@@V?$allocator@D@2@@std@@PBU_GUID@@@std@@@2@@std@@@?$shared_ptr@V?$map@V?$basic_string@DU?$char_traits@D@std@@V?$allocator@D@2@@std@@PBU_GUID@@U?$less@V?$basic_string@DU?$char_traits@D@std@@V?$allocator@D@2@@std@@@2@V?$allocator@U?$pair@$$CBV?$basic_string@DU?$char_traits@D@std@@V?$allocator@D@2@@std@@PBU_GUID@@@std@@@2@@std@@@tr1@std@@AAEXPAV?$map@V?$basic_string@DU?$char_traits@D@std@@V?$allocator@D@2@@std@@PBU_GUID@@U?$less@V?$basic_string@DU?$char_traits@D@std@@V?$allocator@D@2@@std@@@2@V?$allocator@U?$pair@$$CBV?$basic_string@DU?$char_traits@D@std@@V?$allocator@D@2@@std@@PBU_GUID@@@std@@@2@@2@@Z 00445940 f i cinder:ImageTargetFileWic.obj
 0001:00044a00       ?getExtensionMap@?A0xc7a9d0a7@cinder@@YAAAV?$map@V?$basic_string@DU?$char_traits@D@std@@V?$allocator@D@2@@std@@PBU_GUID@@U?$less@V?$basic_string@DU?$char_traits@D@std@@V?$allocator@D@2@@std@@@2@V?$allocator@U?$pair@$$CBV?$basic_string@DU?$char_traits@D@std@@V?$allocator@D@2@@std@@PBU_GUID@@@std@@@2@@std@@XZ 00445a00 f   cinder:ImageTargetFileWic.obj
 0001:00044b40       ??0ImageTargetFileWic@cinder@@IAE@V?$shared_ptr@VDataTarget@cinder@@@tr1@std@@V?$shared_ptr@VImageSource@cinder@@@34@VOptions@ImageTarget@1@ABV?$basic_string@DU?$char_traits@D@std@@V?$allocator@D@2@@4@@Z 00445b40 f   cinder:ImageTargetFileWic.obj
 0001:00045290       ??1ImageTargetFileWic@cinder@@UAE@XZ 00446290 f i cinder:ImageTargetFileWic.obj
 0001:000453b0       ??_EImageTargetFileWic@cinder@@UAEPAXI@Z 004463b0 f i cinder:ImageTargetFileWic.obj
 0001:000453b0       ??_GImageTargetFileWic@cinder@@UAEPAXI@Z 004463b0 f i cinder:ImageTargetFileWic.obj
 0001:000453e0       ?createRef@ImageTargetFileWic@cinder@@SA?AV?$shared_ptr@VImageTarget@cinder@@@tr1@std@@V?$shared_ptr@VDataTarget@cinder@@@45@V?$shared_ptr@VImageSource@cinder@@@45@VOptions@ImageTarget@2@ABV?$basic_string@DU?$char_traits@D@std@@V?$allocator@D@2@@5@@Z 004463e0 f   cinder:ImageTargetFileWic.obj
 0001:00045520       ?registerSelf@ImageTargetFileWic@cinder@@SAXXZ 00446520 f   cinder:ImageTargetFileWic.obj
 0001:00045a20       ?getFilePath@DataSource@cinder@@QAEABVpath@filesystem3@boost@@XZ 00446a20 f   cinder:DataSource.obj
 0001:00045a20       ?getFilePath@DataTarget@cinder@@QBEABVpath@filesystem3@boost@@XZ 00446a20 f   cinder:DataTarget.obj
 0001:00045a30       _adler32                   00446a30 f   cinder:adler32.obj
 0001:00045f60       _crc32                     00446f60 f   cinder:crc32.obj
 0001:000480e0       __tr_stored_block          004490e0 f   cinder:trees.obj
 0001:00048190       __tr_flush_block           00449190 f   cinder:trees.obj
 0001:0004838f       ??1out_of_range@std@@UAE@XZ 0044938f f i libcpmt:xthrow.obj
 0001:0004838f       ??1bad_function_call@tr1@std@@UAE@XZ 0044938f f i libcpmt:badfunction.obj
 0001:0004838f       ??1length_error@std@@UAE@XZ 0044938f f i libcpmt:xthrow.obj
 0001:00048394       ?_Xlength_error@std@@YAXPBD@Z 00449394 f   libcpmt:xthrow.obj
 0001:000483c4       ??0length_error@std@@QAE@ABV01@@Z 004493c4 f i libcpmt:xthrow.obj
 0001:000483e1       ?_Xout_of_range@std@@YAXPBD@Z 004493e1 f   libcpmt:xthrow.obj
 0001:00048411       ??0out_of_range@std@@QAE@ABV01@@Z 00449411 f i libcpmt:xthrow.obj
 0001:0004842e       ??_Ebad_function_call@tr1@std@@UAEPAXI@Z 0044942e f i libcpmt:badfunction.obj
 0001:0004842e       ??_Glength_error@std@@UAEPAXI@Z 0044942e f i libcpmt:xthrow.obj
 0001:0004842e       ??_Gout_of_range@std@@UAEPAXI@Z 0044942e f i libcpmt:xthrow.obj
 0001:0004842e       ??_Elength_error@std@@UAEPAXI@Z 0044942e f i libcpmt:xthrow.obj
 0001:0004842e       ??_Gbad_function_call@tr1@std@@UAEPAXI@Z 0044942e f i libcpmt:badfunction.obj
 0001:0004842e       ??_Eout_of_range@std@@UAEPAXI@Z 0044942e f i libcpmt:xthrow.obj
 0001:0004844f       ?what@bad_function_call@tr1@std@@UBEPBDXZ 0044944f f i libcpmt:badfunction.obj
 0001:00048455       ?_Xfunc@tr1@std@@YAXXZ     00449455 f   libcpmt:badfunction.obj
 0001:0004847b       ??0bad_function_call@tr1@std@@QAE@ABV012@@Z 0044947b f i libcpmt:badfunction.obj
 0001:00048498       __Tolower                  00449498 f   libcpmt:_tolower.obj
 0001:000485a5       __Getctype                 004495a5 f   libcpmt:_tolower.obj
 0001:00048605       ??0_Init_locks@std@@QAE@XZ 00449605 f   libcpmt:xlock.obj
 0001:00048636       ??1_Init_locks@std@@QAE@XZ 00449636 f   libcpmt:xlock.obj
 0001:0004865f       ??0_Lockit@std@@QAE@H@Z    0044965f f   libcpmt:xlock.obj
 0001:00048687       ??1_Lockit@std@@QAE@XZ     00449687 f   libcpmt:xlock.obj
 0001:0004869e       ??1_Fac_node@std@@QAE@XZ   0044969e f i libcpmt:locale0.obj
 0001:000486b3       ?_Facet_Register@facet@locale@std@@CAXPAV123@@Z 004496b3 f   libcpmt:locale0.obj
 0001:000486dd       __Deletegloballocale       004496dd f   libcpmt:locale0.obj
 0001:0004872a       ?_Getgloballocale@locale@std@@CAPAV_Locimp@12@XZ 0044972a f   libcpmt:locale0.obj
 0001:00048730       ?_Setgloballocale@locale@std@@CAXPAX@Z 00449730 f   libcpmt:locale0.obj
 0001:0004875a       ?_Locimp_dtor@_Locimp@locale@std@@CAXPAV123@@Z 0044975a f   libcpmt:locale0.obj
 0001:000487ba       ??1_Fac_tidy_reg_t@std@@QAE@XZ 004497ba f i libcpmt:locale0.obj
 0001:00048808       ?_Locinfo_dtor@_Locinfo@std@@SAXPAV12@@Z 00449808 f   libcpmt:locale0.obj
 0001:00048823       ??4?$_Yarn@D@std@@QAEAAV01@PBD@Z 00449823 f i libcpmt:locale0.obj
 0001:0004887b       ?_Locinfo_ctor@_Locinfo@std@@SAXPAV12@PBD@Z 0044987b f   libcpmt:locale0.obj
 0001:000488c8       ??0_Locimp@locale@std@@AAE@_N@Z 004498c8 f i libcpmt:locale0.obj
 0001:00048907       ??1_Locimp@locale@std@@MAE@XZ 00449907 f i libcpmt:locale0.obj
 0001:0004894a       ??_G_Locimp@locale@std@@MAEPAXI@Z 0044994a f i libcpmt:locale0.obj
 0001:0004894a       ??_E_Locimp@locale@std@@MAEPAXI@Z 0044994a f i libcpmt:locale0.obj
 0001:0004896b       ?_Init@locale@std@@CAPAV_Locimp@12@XZ 0044996b f   libcpmt:locale0.obj
 0001:000489fa       ??8error_condition@std@@QBE_NABV01@@Z 004499fa f i libcpmt:syserror.obj
 0001:00048a1b       ?default_error_condition@error_category@std@@UBE?AVerror_condition@2@H@Z 00449a1b f i libcpmt:syserror.obj
 0001:00048a1b       ?default_error_condition@_System_error_category@std@@UBE?AVerror_condition@2@H@Z 00449a1b f i libcpmt:syserror.obj
 0001:00048a2f       ?equivalent@error_category@std@@UBE_NHABVerror_condition@2@@Z 00449a2f f i libcpmt:syserror.obj
 0001:00048a50       ?equivalent@error_category@std@@UBE_NABVerror_code@2@H@Z 00449a50 f i libcpmt:syserror.obj
 0001:00048a6f       ?name@_Generic_error_category@std@@UBEPBDXZ 00449a6f f i libcpmt:syserror.obj
 0001:00048a6f       ?name@_Iostream_error_category@std@@UBEPBDXZ 00449a6f f i libcpmt:syserror.obj
 0001:00048a73       ?name@_System_error_category@std@@UBEPBDXZ 00449a73 f i libcpmt:syserror.obj
 0001:00048a77       ??_G_Generic_error_category@std@@UAEPAXI@Z 00449a77 f i libcpmt:syserror.obj
 0001:00048a77       ??_Eerror_category@std@@UAEPAXI@Z 00449a77 f i libcpmt:syserror.obj
 0001:00048a77       ??_E_Iostream_error_category@std@@UAEPAXI@Z 00449a77 f i libcpmt:syserror.obj
 0001:00048a77       ??_E_Generic_error_category@std@@UAEPAXI@Z 00449a77 f i libcpmt:syserror.obj
 0001:00048a77       ??_Gerror_category@std@@UAEPAXI@Z 00449a77 f i libcpmt:syserror.obj
 0001:00048a77       ??_G_System_error_category@std@@UAEPAXI@Z 00449a77 f i libcpmt:syserror.obj
 0001:00048a77       ??_E_System_error_category@std@@UAEPAXI@Z 00449a77 f i libcpmt:syserror.obj
 0001:00048a77       ??_G_Iostream_error_category@std@@UAEPAXI@Z 00449a77 f i libcpmt:syserror.obj
 0001:00048a99       ?message@_Generic_error_category@std@@UBE?AV?$basic_string@DU?$char_traits@D@std@@V?$allocator@D@2@@2@H@Z 00449a99 f i libcpmt:syserror.obj
 0001:00048abc       ?message@_Iostream_error_category@std@@UBE?AV?$basic_string@DU?$char_traits@D@std@@V?$allocator@D@2@@2@H@Z 00449abc f i libcpmt:syserror.obj
 0001:00048aec       __Toupper                  00449aec f   libcpmt:_toupper.obj
 0001:00048bfe       ??_U@YAPAXI@Z              00449bfe f   libcpmt:newaop.obj
 0001:00048c09       __Mtxinit                  00449c09 f   libcpmt:xmtx.obj
 0001:00048c19       __Mtxdst                   00449c19 f   libcpmt:xmtx.obj
 0001:00048c29       __Mtxlock                  00449c29 f   libcpmt:xmtx.obj
 0001:00048c39       __Mtxunlock                00449c39 f   libcpmt:xmtx.obj
 0001:00048c49       ?_Atexit@@YAXP6AXXZ@Z      00449c49 f   libcpmt:iosptrs.obj
 0001:00048c7b       ??1_Init_atexit@@QAE@XZ    00449c7b f i libcpmt:iosptrs.obj
 0001:00048cb0       ??1codecvt_base@std@@UAE@XZ 00449cb0 f i libboost_filesystem-vc100-mt-s-1_48:path.obj
 0001:00048cb0       ??1facet@locale@std@@UAE@XZ 00449cb0 f i cinder:App.obj
 0001:00048cc0       ?do_max_length@codecvt_base@std@@MBEHXZ 00449cc0 f i libboost_filesystem-vc100-mt-s-1_48:path.obj
 0001:00048cc0       ?do_encoding@codecvt_base@std@@MBEHXZ 00449cc0 f i libboost_filesystem-vc100-mt-s-1_48:path.obj
 0001:00048cd0       ?do_in@?$codecvt@_WDH@std@@MBEHAAHPBD1AAPBDPA_W3AAPA_W@Z 00449cd0 f i libboost_filesystem-vc100-mt-s-1_48:path.obj
 0001:00048d80       ?do_out@?$codecvt@_WDH@std@@MBEHAAHPB_W1AAPB_WPAD3AAPAD@Z 00449d80 f i libboost_filesystem-vc100-mt-s-1_48:path.obj
 0001:00048eb0       ?do_unshift@?$codecvt@_WDH@std@@MBEHAAHPAD1AAPAD@Z 00449eb0 f i libboost_filesystem-vc100-mt-s-1_48:path.obj
 0001:00048f70       ?do_length@?$codecvt@_WDH@std@@MBEHABHPBD1I@Z 00449f70 f i libboost_filesystem-vc100-mt-s-1_48:path.obj
 0001:00049000       ?isBorderless@App@app@cinder@@UBE_NXZ 0044a000 f i cinder:App.obj
 0001:00049000       ?updateAtLoopStart@TimelineItem@cinder@@UAE_NXZ 0044a000 f i cinder:Timeline.obj
 0001:00049000       ?isAlwaysOnTop@App@app@cinder@@UBE_NXZ 0044a000 f i cinder:App.obj
 0001:00049000       ?do_always_noconv@windows_file_codecvt@@MBE_NXZ 0044a000 f i libboost_filesystem-vc100-mt-s-1_48:path.obj
 0001:00049000       ?do_always_noconv@?$codecvt@_WDH@std@@MBE_NXZ 0044a000 f i libboost_filesystem-vc100-mt-s-1_48:path.obj
 0001:00049010       ?do_max_length@?$codecvt@_WDH@std@@MBEHXZ 0044a010 f i libboost_filesystem-vc100-mt-s-1_48:path.obj
 0001:00049020       ??_Gwindows_file_codecvt@@UAEPAXI@Z 0044a020 f i libboost_filesystem-vc100-mt-s-1_48:path.obj
 0001:00049020       ??_G?$codecvt@_WDH@std@@MAEPAXI@Z 0044a020 f i libboost_filesystem-vc100-mt-s-1_48:path.obj
 0001:00049020       ??_Ewindows_file_codecvt@@UAEPAXI@Z 0044a020 f i libboost_filesystem-vc100-mt-s-1_48:path.obj
 0001:00049020       ??_E?$codecvt@_WDH@std@@MAEPAXI@Z 0044a020 f i libboost_filesystem-vc100-mt-s-1_48:path.obj
 0001:00049040       ?_Getcat@?$codecvt@_WDH@std@@SAIPAPBVfacet@locale@2@PBV42@@Z 0044a040 f i libboost_filesystem-vc100-mt-s-1_48:path.obj
 0001:00049120       ??0windows_file_codecvt@@QAE@XZ 0044a120 f i libboost_filesystem-vc100-mt-s-1_48:path.obj
 0001:000491b0       ?do_unshift@windows_file_codecvt@@MBEHAAHPAD1AAPAD@Z 0044a1b0 f i libboost_filesystem-vc100-mt-s-1_48:path.obj
 0001:000491b0       ?do_length@windows_file_codecvt@@MBEHAAHPBD1I@Z 0044a1b0 f i libboost_filesystem-vc100-mt-s-1_48:path.obj
 0001:000491c0       ?do_max_length@windows_file_codecvt@@MBEHXZ 0044a1c0 f i libboost_filesystem-vc100-mt-s-1_48:path.obj
 0001:000491c0       ?do_encoding@windows_file_codecvt@@MBEHXZ 0044a1c0 f i libboost_filesystem-vc100-mt-s-1_48:path.obj
 0001:000491d0       ??$use_facet@V?$codecvt@_WDH@std@@@std@@YAABV?$codecvt@_WDH@0@ABVlocale@0@@Z 0044a1d0 f i libboost_filesystem-vc100-mt-s-1_48:path.obj
 0001:00049320       ??0_Locimp@locale@std@@AAE@ABV012@@Z 0044a320 f i libboost_filesystem-vc100-mt-s-1_48:path.obj
 0001:000493c0       ?replace@?$basic_string@_WU?$char_traits@_W@std@@V?$allocator@_W@2@@std@@QAEAAV12@IIABV12@II@Z 0044a3c0 f i libboost_filesystem-vc100-mt-s-1_48:path.obj
 0001:00049700       ??$?0Vwindows_file_codecvt@@@locale@std@@QAE@ABV01@PBVwindows_file_codecvt@@@Z 0044a700 f i libboost_filesystem-vc100-mt-s-1_48:path.obj
 0001:000497f0       ?default_locale@?A0xb5a21abd@@YA?AVlocale@std@@XZ 0044a7f0 f   libboost_filesystem-vc100-mt-s-1_48:path.obj
 0001:000498f0       ?wchar_t_codecvt_facet@path@filesystem3@boost@@CAAAPBV?$codecvt@_WDH@std@@XZ 0044a8f0 f   libboost_filesystem-vc100-mt-s-1_48:path.obj
 0001:00049980       ?assign@?$basic_string@_WU?$char_traits@_W@std@@V?$allocator@_W@2@@std@@QAEAAV12@I_W@Z 0044a980 f i libboost_filesystem-vc100-mt-s-1_48:path.obj
 0001:00049a20       ?append@?$basic_string@_WU?$char_traits@_W@std@@V?$allocator@_W@2@@std@@QAEAAV12@ABV12@II@Z 0044aa20 f i libboost_filesystem-vc100-mt-s-1_48:path.obj
 0001:00049b20       ??$_Construct@PA_W@?$basic_string@_WU?$char_traits@_W@std@@V?$allocator@_W@2@@std@@QAEXPA_W0Uforward_iterator_tag@1@@Z 0044ab20 f i libboost_filesystem-vc100-mt-s-1_48:operations.obj
 0001:00049bf0       ?message@error_code@system@boost@@QBE?AV?$basic_string@DU?$char_traits@D@std@@V?$allocator@D@2@@std@@XZ 0044abf0 f i libboost_filesystem-vc100-mt-s-1_48:operations.obj
 0001:00049c20       ??1system_error@system@boost@@UAE@XZ 0044ac20 f i libboost_filesystem-vc100-mt-s-1_48:operations.obj
 0001:00049c60       ??_Gsystem_error@system@boost@@UAEPAXI@Z 0044ac60 f i libboost_filesystem-vc100-mt-s-1_48:operations.obj
 0001:00049c60       ??_Esystem_error@system@boost@@UAEPAXI@Z 0044ac60 f i libboost_filesystem-vc100-mt-s-1_48:operations.obj
 0001:00049cb0       ?what@system_error@system@boost@@UBEPBDXZ 0044acb0 f i libboost_filesystem-vc100-mt-s-1_48:operations.obj
 0001:00049da0       ??0system_error@system@boost@@QAE@ABV012@@Z 0044ada0 f i libboost_filesystem-vc100-mt-s-1_48:operations.obj
 0001:00049e20       ?replace@?$basic_string@DU?$char_traits@D@std@@V?$allocator@D@2@@std@@QAEAAV12@IIABV12@II@Z 0044ae20 f i libboost_filesystem-vc100-mt-s-1_48:path_traits.obj
 0001:0004a140       ?reserve@?$basic_string@DU?$char_traits@D@std@@V?$allocator@D@2@@std@@QAEXI@Z 0044b140 f i libboost_filesystem-vc100-mt-s-1_48:path_traits.obj
 0001:0004a180       ??$_Construct@PAD@?$basic_string@DU?$char_traits@D@std@@V?$allocator@D@2@@std@@QAEXPAD0Uforward_iterator_tag@1@@Z 0044b180 f i libboost_filesystem-vc100-mt-s-1_48:path_traits.obj
 0001:0004a2f0       ??$_Replace@PA_W@?$basic_string@_WU?$char_traits@_W@std@@V?$allocator@_W@2@@std@@QAEAAV01@V?$_String_const_iterator@_WU?$char_traits@_W@std@@V?$allocator@_W@2@@1@0PA_W1Uinput_iterator_tag@1@@Z 0044b2f0 f i libboost_filesystem-vc100-mt-s-1_48:path_traits.obj
 0001:0004a3d0       ??$_Replace@PAD@?$basic_string@DU?$char_traits@D@std@@V?$allocator@D@2@@std@@QAEAAV01@V?$_String_const_iterator@DU?$char_traits@D@std@@V?$allocator@D@2@@1@0PAD1Uinput_iterator_tag@1@@Z 0044b3d0 f i libboost_filesystem-vc100-mt-s-1_48:path_traits.obj
 0001:0004a4a0       ?convert_aux@?A0x32510ff6@@YAXPBD0PA_W1AAV?$basic_string@_WU?$char_traits@_W@std@@V?$allocator@_W@2@@std@@ABV?$codecvt@_WDH@3@@Z 0044b4a0 f   libboost_filesystem-vc100-mt-s-1_48:path_traits.obj
 0001:0004a5a0       ?convert_aux@?A0x32510ff6@@YAXPB_W0PAD1AAV?$basic_string@DU?$char_traits@D@std@@V?$allocator@D@2@@std@@ABV?$codecvt@_WDH@3@@Z 0044b5a0 f   libboost_filesystem-vc100-mt-s-1_48:path_traits.obj
 0001:0004a690       ?convert@path_traits@filesystem3@boost@@YAXPBD0AAV?$basic_string@_WU?$char_traits@_W@std@@V?$allocator@_W@2@@std@@ABV?$codecvt@_WDH@5@@Z 0044b690 f   libboost_filesystem-vc100-mt-s-1_48:path_traits.obj
 0001:0004a7b0       ?convert@path_traits@filesystem3@boost@@YAXPB_W0AAV?$basic_string@DU?$char_traits@D@std@@V?$allocator@D@2@@std@@ABV?$codecvt@_WDH@5@@Z 0044b7b0 f   libboost_filesystem-vc100-mt-s-1_48:path_traits.obj
 0001:0004a8d0       ?do_in@windows_file_codecvt@@MBEHAAHPBD1AAPBDPA_W3AAPA_W@Z 0044b8d0 f   libboost_filesystem-vc100-mt-s-1_48:windows_file_codecvt.obj
 0001:0004a930       ?do_out@windows_file_codecvt@@MBEHAAHPB_W1AAPB_WPAD3AAPAD@Z 0044b930 f   libboost_filesystem-vc100-mt-s-1_48:windows_file_codecvt.obj
 0001:0004a9a0       ?default_error_condition@error_category@system@boost@@UBE?AVerror_condition@23@H@Z 0044b9a0 f i libboost_filesystem-vc100-mt-s-1_48:codecvt_error_category.obj
 0001:0004a9b0       ?equivalent@error_category@system@boost@@UBE_NHABVerror_condition@23@@Z 0044b9b0 f i libboost_filesystem-vc100-mt-s-1_48:codecvt_error_category.obj
 0001:0004a9f0       ?equivalent@error_category@system@boost@@UBE_NABVerror_code@23@H@Z 0044b9f0 f i libboost_filesystem-vc100-mt-s-1_48:codecvt_error_category.obj
 0001:0004aa10       ?name@codecvt_error_cat@?A0xe993e2e0@@UBEPBDXZ 0044ba10 f   libboost_filesystem-vc100-mt-s-1_48:codecvt_error_category.obj
 0001:0004aa20       ??_Gerror_category@system@boost@@UAEPAXI@Z 0044ba20 f i libboost_filesystem-vc100-mt-s-1_48:codecvt_error_category.obj
 0001:0004aa20       ??_Esystem_error_category@?A0x0367132b@@UAEPAXI@Z 0044ba20 f i libboost_system-vc100-mt-s-1_48:error_code.obj
 0001:0004aa20       ??_Gsystem_error_category@?A0x0367132b@@UAEPAXI@Z 0044ba20 f i libboost_system-vc100-mt-s-1_48:error_code.obj
 0001:0004aa20       ??_Ggeneric_error_category@?A0x0367132b@@UAEPAXI@Z 0044ba20 f i libboost_system-vc100-mt-s-1_48:error_code.obj
 0001:0004aa20       ??_Gcodecvt_error_cat@?A0xe993e2e0@@UAEPAXI@Z 0044ba20 f i libboost_filesystem-vc100-mt-s-1_48:codecvt_error_category.obj
 0001:0004aa20       ??_Egeneric_error_category@?A0x0367132b@@UAEPAXI@Z 0044ba20 f i libboost_system-vc100-mt-s-1_48:error_code.obj
 0001:0004aa20       ??_Ecodecvt_error_cat@?A0xe993e2e0@@UAEPAXI@Z 0044ba20 f i libboost_filesystem-vc100-mt-s-1_48:codecvt_error_category.obj
 0001:0004aa20       ??_Eerror_category@system@boost@@UAEPAXI@Z 0044ba20 f i libboost_filesystem-vc100-mt-s-1_48:codecvt_error_category.obj
 0001:0004aa40       ?codecvt_error_category@filesystem3@boost@@YAABVerror_category@system@2@XZ 0044ba40 f   libboost_filesystem-vc100-mt-s-1_48:codecvt_error_category.obj
 0001:0004aab0       ?message@codecvt_error_cat@?A0xe993e2e0@@UBE?AV?$basic_string@DU?$char_traits@D@std@@V?$allocator@D@2@@std@@H@Z 0044bab0 f   libboost_filesystem-vc100-mt-s-1_48:codecvt_error_category.obj
 0001:0004ab60       ??1local_free_on_destruction@detail@system@boost@@QAE@XZ 0044bb60 f i libboost_system-vc100-mt-s-1_48:error_code.obj
 0001:0004ab70       ?name@generic_error_category@?A0x0367132b@@UBEPBDXZ 0044bb70 f   libboost_system-vc100-mt-s-1_48:error_code.obj
 0001:0004ab80       ?name@system_error_category@?A0x0367132b@@UBEPBDXZ 0044bb80 f   libboost_system-vc100-mt-s-1_48:error_code.obj
 0001:0004ab90       ?system_category@system@boost@@YAABVerror_category@12@XZ 0044bb90 f   libboost_system-vc100-mt-s-1_48:error_code.obj
 0001:0004ac00       ?generic_category@system@boost@@YAABVerror_category@12@XZ 0044bc00 f   libboost_system-vc100-mt-s-1_48:error_code.obj
 0001:0004ac70       ?make_error_condition@errc@system@boost@@YA?AVerror_condition@23@W4errc_t@123@@Z 0044bc70 f i libboost_system-vc100-mt-s-1_48:error_code.obj
 0001:0004acf0       ?default_error_condition@system_error_category@?A0x0367132b@@UBE?AVerror_condition@system@boost@@H@Z 0044bcf0 f   libboost_system-vc100-mt-s-1_48:error_code.obj
 0001:0004b670       ?message@generic_error_category@?A0x0367132b@@UBE?AV?$basic_string@DU?$char_traits@D@std@@V?$allocator@D@2@@std@@H@Z 0044c670 f   libboost_system-vc100-mt-s-1_48:error_code.obj
 0001:0004b7f0       ?message@system_error_category@?A0x0367132b@@UBE?AV?$basic_string@DU?$char_traits@D@std@@V?$allocator@D@2@@std@@H@Z 0044c7f0 f   libboost_system-vc100-mt-s-1_48:error_code.obj
 0001:0004b996       @__security_check_cookie@4 0044c996 f   LIBCMT:secchk.obj
 0001:0004b9a5       ??0exception@std@@QAE@XZ   0044c9a5 f   LIBCMT:stdexcpt.obj
 0001:0004b9b6       ??0exception@std@@QAE@ABQBDH@Z 0044c9b6 f   LIBCMT:stdexcpt.obj
 0001:0004b9d3       ?what@exception@std@@UBEPBDXZ 0044c9d3 f   LIBCMT:stdexcpt.obj
 0001:0004b9e0       ?_Copy_str@exception@std@@AAEXPBD@Z 0044c9e0 f   LIBCMT:stdexcpt.obj
 0001:0004ba20       ?_Tidy@exception@std@@AAEXXZ 0044ca20 f   LIBCMT:stdexcpt.obj
 0001:0004ba3e       ??0exception@std@@QAE@ABQBD@Z 0044ca3e f   LIBCMT:stdexcpt.obj
 0001:0004ba65       ??4exception@std@@QAEAAV01@ABV01@@Z 0044ca65 f   LIBCMT:stdexcpt.obj
 0001:0004ba9a       ??0bad_cast@std@@QAE@PBD@Z 0044ca9a f   LIBCMT:stdexcpt.obj
 0001:0004bab8       ??1bad_cast@std@@UAE@XZ    0044cab8 f   LIBCMT:stdexcpt.obj
 0001:0004bab8       ??1exception@std@@UAE@XZ   0044cab8 f   LIBCMT:stdexcpt.obj
 0001:0004bac3       ??0exception@std@@QAE@ABV01@@Z 0044cac3 f   LIBCMT:stdexcpt.obj
 0001:0004bae8       ??_Gexception@std@@UAEPAXI@Z 0044cae8 f i LIBCMT:stdexcpt.obj
 0001:0004bae8       ??_Ebad_cast@std@@UAEPAXI@Z 0044cae8 f i LIBCMT:stdexcpt.obj
 0001:0004bae8       ??_Gbad_cast@std@@UAEPAXI@Z 0044cae8 f i LIBCMT:stdexcpt.obj
 0001:0004bae8       ??_Eexception@std@@UAEPAXI@Z 0044cae8 f i LIBCMT:stdexcpt.obj
 0001:0004bb0f       ??0bad_cast@std@@QAE@ABV01@@Z 0044cb0f f   LIBCMT:stdexcpt.obj
 0001:0004bb2c       ??3@YAXPAX@Z               0044cb2c f   LIBCMT:delete.obj
 0001:0004bb37       ??1type_info@@UAE@XZ       0044cb37 f   LIBCMT:typinfo.obj
 0001:0004bb47       ??_Gtype_info@@UAEPAXI@Z   0044cb47 f i LIBCMT:typinfo.obj
 0001:0004bb47       ??_Etype_info@@UAEPAXI@Z   0044cb47 f i LIBCMT:typinfo.obj
 0001:0004bb68       ??8type_info@@QBE_NABV0@@Z 0044cb68 f   LIBCMT:typinfo.obj
 0001:0004bb88       ??2@YAPAXI@Z               0044cb88 f   LIBCMT:new.obj
 0001:0004bd9e       _WinMainCRTStartup         0044cd9e f   LIBCMT:wincrt0.obj
 0001:0004bda8       __cfltcvt_init             0044cda8 f   LIBCMT:_fpinit_.obj
 0001:0004be08       __fpmath                   0044ce08 f   LIBCMT:_fpinit_.obj
 0001:0004be21       __purecall                 0044ce21 f   LIBCMT:purevirt.obj
 0001:0004be4b       __CxxThrowException@8      0044ce4b f   LIBCMT:throw.obj
 0001:0004be97       ?_JumpToContinuation@@YGXPAXPAUEHRegistrationNode@@@Z 0044ce97 f   LIBCMT:_trnsctrl_.obj
 0001:0004bec9       ?_CallMemberFunction2@@YGXPAX00H@Z 0044cec9 f   LIBCMT:_trnsctrl_.obj
 0001:0004bec9       ?_CallMemberFunction0@@YGXPAX0@Z 0044cec9 f   LIBCMT:_trnsctrl_.obj
 0001:0004bec9       ?_CallMemberFunction1@@YGXPAX00@Z 0044cec9 f   LIBCMT:_trnsctrl_.obj
 0001:0004bed0       ?_UnwindNestedFrames@@YGXPAUEHRegistrationNode@@PAUEHExceptionRecord@@@Z 0044ced0 f   LIBCMT:_trnsctrl_.obj
 0001:0004bf24       ___CxxFrameHandler3        0044cf24 f   LIBCMT:_trnsctrl_.obj
 0001:0004bf8d       ?_CallSETranslator@@YAHPAUEHExceptionRecord@@PAUEHRegistrationNode@@PAX2PBU_s_FuncInfo@@H1@Z 0044cf8d f   LIBCMT:_trnsctrl_.obj
 0001:0004c103       ?_GetRangeOfTrysToCheck@@YAPBU_s_TryBlockMapEntry@@PBU_s_FuncInfo@@HHPAI1@Z 0044d103 f   LIBCMT:_trnsctrl_.obj
 0001:0004c176       __CreateFrameInfo          0044d176 f   LIBCMT:_trnsctrl_.obj
 0001:0004c1a2       __IsExceptionObjectToBeDestroyed 0044d1a2 f   LIBCMT:_trnsctrl_.obj
 0001:0004c1c9       __FindAndUnlinkFrame       0044d1c9 f   LIBCMT:_trnsctrl_.obj
 0001:0004c21b       ?_CallCatchBlock2@@YAPAXPAUEHRegistrationNode@@PBU_s_FuncInfo@@PAXHK@Z 0044d21b f   LIBCMT:_trnsctrl_.obj
 0001:0004c280       _memcpy                    0044d280 f   LIBCMT:memcpy.obj
 0001:0004c5f0       _memmove                   0044d5f0 f   LIBCMT:memmove.obj
 0001:0004c951       _free                      0044d951 f   LIBCMT:free.obj
 0001:0004c98b       _malloc                    0044d98b f   LIBCMT:malloc.obj
 0001:0004ca1f       ??_V@YAXPAX@Z              0044da1f f   LIBCMT:delete2.obj
 0001:0004ca2a       _sprintf                   0044da2a f   LIBCMT:sprintf.obj
 0001:0004caae       _sprintf_s                 0044daae f   LIBCMT:sprintf.obj
 0001:0004cad0       _strncpy                   0044dad0 f   LIBCMT:strncpy.obj
 0001:0004cc00       __alloca_probe             0044dc00     LIBCMT:chkstk.obj
 0001:0004cc00       __chkstk                   0044dc00 f   LIBCMT:chkstk.obj
 0001:0004cc30       _acos                      0044dc30 f   LIBCMT:_acos_.obj
 0001:0004cc70       __CIacos                   0044dc70 f   LIBCMT:_acos_.obj
 0001:0004ccab       __CIacos_default           0044dcab f   LIBCMT:_acos_.obj
 0001:0004ccbf       __acos_default             0044dcbf     LIBCMT:_acos_.obj
 0001:0004cd80       _cos                       0044dd80 f   LIBCMT:_cos_.obj
 0001:0004cdc0       __CIcos                    0044ddc0 f   LIBCMT:_cos_.obj
 0001:0004cdfb       __CIcos_default            0044ddfb f   LIBCMT:_cos_.obj
 0001:0004ce0f       __cos_default              0044de0f     LIBCMT:_cos_.obj
 0001:0004ceb0       _sin                       0044deb0 f   LIBCMT:_sin_.obj
 0001:0004cef0       __CIsin                    0044def0 f   LIBCMT:_sin_.obj
 0001:0004cf2b       __CIsin_default            0044df2b f   LIBCMT:_sin_.obj
 0001:0004cf3f       __sin_default              0044df3f     LIBCMT:_sin_.obj
 0001:0004cfe0       __CIsqrt                   0044dfe0 f   LIBCMT:_sqrt_.obj
 0001:0004cff4       _sqrt                      0044dff4     LIBCMT:_sqrt_.obj
 0001:0004d0a0       _floor                     0044e0a0 f   LIBCMT:_floor_pentium4_.obj
 0001:0004d0e0       __floor_pentium4           0044e0e0 f   LIBCMT:_floor_pentium4_.obj
 0001:0004d1d0       __ftol2_sse                0044e1d0 f   LIBCMT:ftol2.obj
 0001:0004d1d9       __ftol2_pentium4           0044e1d9 f   LIBCMT:ftol2.obj
 0001:0004d1ec       __ftol2_sse_excpt          0044e1ec f   LIBCMT:ftol2.obj
 0001:0004d206       __ftol2                    0044e206 f   LIBCMT:ftol2.obj
 0001:0004d331       ___onexitinit              0044e331 f   LIBCMT:onexit.obj
 0001:0004d362       __onexit                   0044e362 f   LIBCMT:onexit.obj
 0001:0004d39e       _atexit                    0044e39e f   LIBCMT:onexit.obj
 0001:0004d3b5       _strncmp                   0044e3b5 f   LIBCMT:strncmp.obj
 0001:0004d480       _strcspn                   0044e480 f   LIBCMT:strcspn.obj
 0001:0004d4c6       ?__ArrayUnwind@@YGXPAXIHP6EX0@Z@Z 0044e4c6 f   LIBCMT:ehvecdtr.obj
 0001:0004d524       ??_M@YGXPAXIHP6EX0@Z@Z     0044e524 f   LIBCMT:ehvecdtr.obj
 0001:0004d587       ??_L@YGXPAXIHP6EX0@Z1@Z    0044e587 f   LIBCMT:ehvecctr.obj
 0001:0004d5f0       _strrchr                   0044e5f0 f   LIBCMT:strrchr.obj
 0001:0004d620       _memset                    0044e620 f   LIBCMT:memset.obj
 0001:0004d69a       _strcpy_s                  0044e69a f   LIBCMT:strcpy_s.obj
 0001:0004d6f9       __vsnprintf_helper         0044e6f9 f   LIBCMT:vsnprnc.obj
 0001:0004d7c3       __vsprintf_s_l             0044e7c3 f   LIBCMT:vsnprnc.obj
 0001:0004d83a       _realloc                   0044e83a f   LIBCMT:realloc.obj
 0001:0004d8f0       _ceil                      0044e8f0 f   LIBCMT:_ceil_pentium4_.obj
 0001:0004d930       __ceil_pentium4            0044e930 f   LIBCMT:_ceil_pentium4_.obj
 0001:0004da10       _tan                       0044ea10 f   LIBCMT:_tan_.obj
 0001:0004da50       __CItan                    0044ea50 f   LIBCMT:_tan_.obj
 0001:0004da8b       __CItan_default            0044ea8b f   LIBCMT:_tan_.obj
 0001:0004da9f       __tan_default              0044ea9f     LIBCMT:_tan_.obj
 0001:0004db3d       ??0_LocaleUpdate@@QAE@PAUlocaleinfo_struct@@@Z 0044eb3d f i LIBCMT:tolower.obj
 0001:0004dbc4       __tolower_l                0044ebc4 f   LIBCMT:tolower.obj
 0001:0004dcd9       _tolower                   0044ecd9 f   LIBCMT:tolower.obj
 0001:0004dd05       __strdup                   0044ed05 f   LIBCMT:strdup.obj
 0001:0004dd57       _wcscat_s                  0044ed57 f   LIBCMT:wcscat_s.obj
 0001:0004ddcc       _strcat_s                  0044edcc f   LIBCMT:strcat_s.obj
 0001:0004de40       _fmod                      0044ee40 f   LIBCMT:_87fmod_.obj
 0001:0004de4a       __CIfmod                   0044ee4a f   LIBCMT:_87fmod_.obj
 0001:0004de62       __fclose_nolock            0044ee62 f   LIBCMT:fclose.obj
 0001:0004decf       _fclose                    0044eecf f   LIBCMT:fclose.obj
 0001:0004df50       _pow                       0044ef50 f   LIBCMT:_pow_.obj
 0001:0004df90       __CIpow                    0044ef90 f   LIBCMT:_pow_.obj
 0001:0004dfcb       __CIpow_default            0044efcb f   LIBCMT:_pow_.obj
 0001:0004dfe4       __pow_default              0044efe4     LIBCMT:_pow_.obj
 0001:0004e1e0       _longjmp                   0044f1e0 f   LIBCMT:longjmp.obj
 0001:0004e2a0       __setjmp3                  0044f2a0 f   LIBCMT:setjmp3.obj
 0001:0004e31b       __freea                    0044f31b f i LIBCMT:a_map.obj
 0001:0004e522       ___crtLCMapStringA         0044f522 f   LIBCMT:a_map.obj
 0001:0004e568       ___pctype_func             0044f568 f   LIBCMT:ctype.obj
 0001:0004e591       __isupper_l                0044f591 f i LIBCMT:_ctype.obj
 0001:0004e5e2       _isupper                   0044f5e2 f i LIBCMT:_ctype.obj
 0001:0004e610       __islower_l                0044f610 f i LIBCMT:_ctype.obj
 0001:0004e661       _islower                   0044f661 f i LIBCMT:_ctype.obj
 0001:0004e68f       __isdigit_l                0044f68f f i LIBCMT:_ctype.obj
 0001:0004e6e0       _isdigit                   0044f6e0 f i LIBCMT:_ctype.obj
 0001:0004e70e       __isspace_l                0044f70e f i LIBCMT:_ctype.obj
 0001:0004e75f       _isspace                   0044f75f f i LIBCMT:_ctype.obj
 0001:0004e78d       ___init_ctype              0044f78d f   LIBCMT:initctyp.obj
 0001:0004eb34       ____mb_cur_max_func        0044fb34 f   LIBCMT:initctyp.obj
 0001:0004eb5d       ____mb_cur_max_l_func      0044fb5d f   LIBCMT:initctyp.obj
 0001:0004eb79       ____lc_codepage_func       0044fb79 f   LIBCMT:initctyp.obj
 0001:0004eb9f       ____lc_collate_cp_func     0044fb9f f   LIBCMT:initctyp.obj
 0001:0004ebc5       ____lc_handle_func         0044fbc5 f   LIBCMT:initctyp.obj
 0001:0004ebeb       __malloc_crt               0044fbeb f   LIBCMT:crtheap.obj
 0001:0004ec30       __calloc_crt               0044fc30 f   LIBCMT:crtheap.obj
 0001:0004ec7c       __realloc_crt              0044fc7c f   LIBCMT:crtheap.obj
 0001:0004ecca       __recalloc_crt             0044fcca f   LIBCMT:crtheap.obj
 0001:0004ed1c       __EH_prolog3               0044fd1c f   LIBCMT:ehprolg3.obj
 0001:0004ed4f       __EH_prolog3_catch         0044fd4f f   LIBCMT:ehprolg3.obj
 0001:0004ed85       __EH_prolog3_GS            0044fd85 f   LIBCMT:ehprolg3.obj
 0001:0004edbb       __EH_epilog3               0044fdbb f   LIBCMT:ehprolg3.obj
 0001:0004edcf       __EH_epilog3_GS            0044fdcf f   LIBCMT:ehprolg3.obj
 0001:0004ee04       __free_locale              0044fe04 f   LIBCMT:setlocal.obj
 0001:0004eec6       __strcats                  0044fec6 f   LIBCMT:setlocal.obj
 0001:0004ef07       ___lc_strtolc              0044ff07 f   LIBCMT:setlocal.obj
 0001:0004f026       ___lc_lctostr              00450026 f   LIBCMT:setlocal.obj
 0001:0004f1f6       __expandlocale             004501f6 f   LIBCMT:setlocal.obj
 0001:0004f96d       __create_locale            0045096d f   LIBCMT:setlocal.obj
 0001:0004fa62       _setlocale                 00450a62 f   LIBCMT:setlocal.obj
 0001:0004fbe0       _strlen                    00450be0 f   LIBCMT:strlen.obj
 0001:0004fc6b       __get_sys_err_msg          00450c6b f i LIBCMT:strerror.obj
 0001:0004fc93       _strerror                  00450c93 f   LIBCMT:strerror.obj
 0001:0004fcfd       _abort                     00450cfd f   LIBCMT:abort.obj
 0001:0004fd30       __set_abort_behavior       00450d30 f   LIBCMT:abort.obj
 0001:0004fd60       __alldiv                   00450d60 f   LIBCMT:lldiv.obj
 0001:0004fe10       __allmul                   00450e10 f   LIBCMT:llmul.obj
 0001:0004fe44       ___report_gsfailure        00450e44 f   LIBCMT:gs_report.obj
 0001:0004ff4a       ?_Type_info_dtor@type_info@@CAXPAV1@@Z 00450f4a f   LIBCMT:typname.obj
 0001:0004ffc0       _strcmp                    00450fc0 f   LIBCMT:strcmp.obj
 0001:00050048       __initp_heap_handler       00451048 f   LIBCMT:handler.obj
 0001:00050057       __callnewh                 00451057 f   LIBCMT:handler.obj
 0001:0005007f       ?__CxxUnhandledExceptionFilter@@YGJPAU_EXCEPTION_POINTERS@@@Z 0045107f f   LIBCMT:unhandld.obj
 0001:000500c1       ___CxxSetUnhandledExceptionFilter 004510c1 f   LIBCMT:unhandld.obj
 0001:000500cf       ___crtCorExitProcess       004510cf f   LIBCMT:crt0dat.obj
 0001:000500fa       ___crtExitProcess          004510fa f   LIBCMT:crt0dat.obj
 0001:00050112       __lockexit                 00451112 f   LIBCMT:crt0dat.obj
 0001:0005011b       __unlockexit               0045111b f   LIBCMT:crt0dat.obj
 0001:00050124       __init_pointers            00451124 f   LIBCMT:crt0dat.obj
 0001:00050157       __initterm_e               00451157 f   LIBCMT:crt0dat.obj
 0001:0005017b       __cinit                    0045117b f   LIBCMT:crt0dat.obj
 0001:00050352       _exit                      00451352 f   LIBCMT:crt0dat.obj
 0001:00050368       __exit                     00451368 f   LIBCMT:crt0dat.obj
 0001:0005037e       __cexit                    0045137e f   LIBCMT:crt0dat.obj
 0001:0005038d       __c_exit                   0045138d f   LIBCMT:crt0dat.obj
 0001:0005039c       __amsg_exit                0045139c f   LIBCMT:crt0dat.obj
 0001:000503ba       __GET_RTERRMSG             004513ba f   LIBCMT:crt0msg.obj
 0001:000503e0       __NMSG_WRITE               004513e0 f   LIBCMT:crt0msg.obj
 0001:0005058f       __FF_MSGBANNER             0045158f f   LIBCMT:crt0msg.obj
 0001:000505c8       __XcptFilter               004515c8 f   LIBCMT:winxfltr.obj
 0001:00050712       __wincmdln                 00451712 f   LIBCMT:wincmdln.obj
 0001:00050771       __setenvp                  00451771 f   LIBCMT:stdenvp.obj
 0001:000509e7       __setargv                  004519e7 f   LIBCMT:stdargv.obj
 0001:00050aa2       ___crtGetEnvironmentStringsA 00451aa2 f   LIBCMT:a_env.obj
 0001:00050b39       __ioinit                   00451b39 f   LIBCMT:ioinit.obj
 0001:00050d7e       __RTC_Initialize           00451d7e f   LIBCMT:_initsect_.obj
 0001:00050da4       __RTC_Terminate            00451da4 f   LIBCMT:_initsect_.obj
 0001:00050dca       __encoded_null             00451dca f   LIBCMT:tidtable.obj
 0001:00050dd3       ___crtTlsAlloc@4           00451dd3 f   LIBCMT:tidtable.obj
 0001:00050ddc       ___set_flsgetvalue         00451ddc f   LIBCMT:tidtable.obj
 0001:00050e10       __mtterm                   00451e10 f   LIBCMT:tidtable.obj
 0001:00050e4d       __initptd                  00451e4d f   LIBCMT:tidtable.obj
 0001:00050f01       __getptd_noexit            00451f01 f   LIBCMT:tidtable.obj
 0001:00050f7a       __getptd                   00451f7a f   LIBCMT:tidtable.obj
 0001:00050f94       __freefls@4                00451f94 f   LIBCMT:tidtable.obj
 0001:000510c3       __mtinit                   004520c3 f   LIBCMT:tidtable.obj
 0001:0005123e       __heap_init                0045223e f   LIBCMT:heapinit.obj
 0001:00051260       __SEH_prolog4              00452260 f   LIBCMT:sehprolg4.obj
 0001:000512a5       __SEH_epilog4              004522a5 f   LIBCMT:sehprolg4.obj
 0001:000512c0       __except_handler4          004522c0 f   LIBCMT:chandler4.obj
 0001:0005144f       ___security_init_cookie    0045244f f   LIBCMT:gs_support.obj
 0001:000514ea       __forcdecpt_l              004524ea f   LIBCMT:cvt.obj
 0001:0005155e       __cropzeros_l              0045255e f   LIBCMT:cvt.obj
 0001:000515e0       __positive                 004525e0 f   LIBCMT:cvt.obj
 0001:000515fc       __fassign_l                004525fc f   LIBCMT:cvt.obj
 0001:0005163e       __fassign                  0045263e f   LIBCMT:cvt.obj
 0001:00051677       __forcdecpt                00452677 f   LIBCMT:cvt.obj
 0001:0005168a       __cropzeros                0045268a f   LIBCMT:cvt.obj
 0001:000517fe       __cftoe_l                  004527fe f   LIBCMT:cvt.obj
 0001:000518c5       __cftoe                    004528c5 f   LIBCMT:cvt.obj
 0001:000518e5       __cftoa_l                  004528e5 f   LIBCMT:cvt.obj
 0001:00051d5e       __cftof_l                  00452d5e f   LIBCMT:cvt.obj
 0001:00051e1f       __cftog_l                  00452e1f f   LIBCMT:cvt.obj
 0001:00051f0c       __cfltcvt_l                00452f0c f   LIBCMT:cvt.obj
 0001:00051f94       __cfltcvt                  00452f94 f   LIBCMT:cvt.obj
 0001:00051fb7       __initp_misc_cfltcvt_tab   00452fb7 f   LIBCMT:cmiscdat.obj
 0001:00051fda       __setdefaultprecision      00452fda f   LIBCMT:fp8.obj
 0001:00052002       ___getlocaleinfo           00453002 f   LIBCMT:inithelp.obj
 0001:000521ae       __initp_misc_purevirt      004531ae f   LIBCMT:inithelp.obj
 0001:000521bd       ??1bad_exception@std@@UAE@XZ 004531bd f i LIBCMT:frame.obj
 0001:000521c8       ??_Gbad_exception@std@@UAEPAXI@Z 004531c8 f i LIBCMT:frame.obj
 0001:000521c8       ??_Ebad_exception@std@@UAEPAXI@Z 004531c8 f i LIBCMT:frame.obj
 0001:000521ef       ___TypeMatch               004531ef f   LIBCMT:frame.obj
 0001:0005224e       ___FrameUnwindFilter       0045324e f   LIBCMT:frame.obj
 0001:0005229d       ___FrameUnwindToState      0045329d f   LIBCMT:frame.obj
 0001:000523be       ___DestructExceptionObject 004533be f   LIBCMT:frame.obj
 0001:00052413       ___AdjustPointer           00453413 f   LIBCMT:frame.obj
 0001:00052697       ___BuildCatchObjectHelper  00453697 f   LIBCMT:frame.obj
 0001:00052816       ___BuildCatchObject        00453816 f   LIBCMT:frame.obj
 0001:00052d92       ??0bad_exception@std@@QAE@ABV01@@Z 00453d92 f i LIBCMT:frame.obj
 0001:00052daf       ___InternalCxxFrameHandler 00453daf f   LIBCMT:frame.obj
 0001:00052e95       ?terminate@@YAXXZ          00453e95 f   LIBCMT:hooks.obj
 0001:00052ece       ?unexpected@@YAXXZ         00453ece f   LIBCMT:hooks.obj
 0001:00052ee1       ?_inconsistency@@YAXXZ     00453ee1 f   LIBCMT:hooks.obj
 0001:00052f19       __initp_eh_hooks           00453f19 f   LIBCMT:hooks.obj
 0001:00052f30       __CallSettingFrame@12      00453f30 f   LIBCMT:lowhelpr.obj
 0001:00052f57       __NLG_Return               00453f57     LIBCMT:lowhelpr.obj
 0001:00052f7c       __VEC_memcpy               00453f7c f   LIBCMT:p4_memcpy.obj
 0001:0005307f       ___sse2_available_init     0045407f f   LIBCMT:cpu_disp.obj
 0001:0005308f       __get_errno_from_oserr     0045408f f   LIBCMT:dosmap.obj
 0001:000530d1       __errno                    004540d1 f   LIBCMT:dosmap.obj
 0001:000530e4       ___doserrno                004540e4 f   LIBCMT:dosmap.obj
 0001:000530f7       __dosmaperr                004540f7 f   LIBCMT:dosmap.obj
 0001:0005311a       __flsbuf                   0045411a f   LIBCMT:_flsbuf.obj
 0001:000532b1       __output_l                 004542b1 f   LIBCMT:output.obj
 0001:00053e5d       __initp_misc_invarg        00454e5d f   LIBCMT:invarg.obj
 0001:00053e6c       __call_reportfault         00454e6c f   LIBCMT:invarg.obj
 0001:00053f95       __invoke_watson            00454f95 f   LIBCMT:invarg.obj
 0001:00053fba       __invalid_parameter        00454fba f   LIBCMT:invarg.obj
 0001:00053fe7       __invalid_parameter_noinfo 00454fe7 f   LIBCMT:invarg.obj
 0001:00053ff7       __sse2_mathfcns_init       00454ff7 f   LIBCMT:_mathfcns_.obj
 0001:00054010       __CIacos_pentium4          00455010 f   LIBCMT:_acos_pentium4_.obj
 0001:00054028       __acos_pentium4            00455028     LIBCMT:_acos_pentium4_.obj
 0001:00054570       __trandisp1                00455570 f   LIBCMT:_87disp_.obj
 0001:000545d7       __trandisp2                004555d7 f   LIBCMT:_87disp_.obj
 0001:00054663       __rttospopde               00455663     LIBCMT:_87disp_.obj
 0001:00054668       __rttospop                 00455668     LIBCMT:_87disp_.obj
 0001:0005466a       __rtnospop                 0045566a     LIBCMT:_87disp_.obj
 0001:0005466c       __rttosnpop                0045566c     LIBCMT:_87disp_.obj
 0001:0005466d       __rtnospopde               0045566d     LIBCMT:_87disp_.obj
 0001:00054674       __rtzeropop                00455674     LIBCMT:_87disp_.obj
 0001:00054676       __rtzeronpop               00455676     LIBCMT:_87disp_.obj
 0001:0005467b       __rtonepop                 0045567b     LIBCMT:_87disp_.obj
 0001:0005467d       __rtonenpop                0045567d     LIBCMT:_87disp_.obj
 0001:00054682       __tosnan1                  00455682     LIBCMT:_87disp_.obj
 0001:000546ad       __nosnan2                  004556ad     LIBCMT:_87disp_.obj
 0001:000546af       __tosnan2                  004556af     LIBCMT:_87disp_.obj
 0001:000546d7       __nan2                     004556d7     LIBCMT:_87disp_.obj
 0001:00054716       __rtindfpop                00455716     LIBCMT:_87disp_.obj
 0001:00054718       __rtindfnpop               00455718     LIBCMT:_87disp_.obj
 0001:00054729       __rttosnpopde              00455729     LIBCMT:_87disp_.obj
 0001:00054733       __rtchsifneg               00455733     LIBCMT:_87disp_.obj
 0001:00054740       __startTwoArgErrorHandling 00455740 f   LIBCMT:_genexcep_.obj
 0001:00054757       __startOneArgErrorHandling 00455757 f   LIBCMT:_genexcep_.obj
 0001:000547a0       __twoToTOS                 004557a0 f   LIBCMT:_common_.obj
 0001:000547b5       __load_CW                  004557b5 f   LIBCMT:_common_.obj
 0001:000547cc       __convertTOStoQNaN         004557cc f   LIBCMT:_common_.obj
 0001:000547e5       __fload_withFB             004557e5 f   LIBCMT:_common_.obj
 0001:00054828       __checkTOS_withFB          00455828 f   LIBCMT:_common_.obj
 0001:0005483e       __fast_exit                0045583e f   LIBCMT:_common_.obj
 0001:0005484b       __math_exit                0045584b f   LIBCMT:_common_.obj
 0001:00054875       __check_overflow_exit      00455875 f   LIBCMT:_common_.obj
 0001:00054889       __check_range_exit         00455889 f   LIBCMT:_common_.obj
 0001:00054930       __CIcos_pentium4           00455930 f   LIBCMT:_cos_pentium4_.obj
 0001:00054948       __cos_pentium4             00455948     LIBCMT:_cos_pentium4_.obj
 0001:00054ae0       __CIsin_pentium4           00455ae0 f   LIBCMT:_sin_pentium4_.obj
 0001:00054af8       __sin_pentium4             00455af8     LIBCMT:_sin_pentium4_.obj
 0001:00054ca8       ___libm_error_support      00455ca8 f   LIBCMT:_libm_error_.obj
 0001:00054f74       __floor_default            00455f74 f   LIBCMT:_floor_.obj
 0001:0005504c       __msize                    0045604c f   LIBCMT:msize.obj
 0001:0005507f       __VEC_memzero              0045607f f   LIBCMT:p4_memset.obj
 0001:00055186       __output_s_l               00456186 f   LIBCMT:outputs.obj
 0001:00055d56       __ceil_default             00456d56 f   LIBCMT:_ceil_.obj
 0001:00055e30       __CItan_pentium4           00456e30 f   LIBCMT:_tan_pentium4_.obj
 0001:00055e48       __tan_pentium4             00456e48     LIBCMT:_tan_pentium4_.obj
 0001:000562b3       ___updatetmbcinfo          004572b3 f   LIBCMT:mbctype.obj
 0001:000563d3       __setmbcp_nolock           004573d3 f   LIBCMT:mbctype.obj
 0001:000565bc       __setmbcp                  004575bc f   LIBCMT:mbctype.obj
 0001:00056756       ___initmbctable            00457756 f   LIBCMT:mbctype.obj
 0001:00056774       ___addlocaleref            00457774 f   LIBCMT:localref.obj
 0001:00056803       ___removelocaleref         00457803 f   LIBCMT:localref.obj
 0001:0005689c       ___freetlocinfo            0045789c f   LIBCMT:localref.obj
 0001:000569e7       __updatetlocinfoEx_nolock  004579e7 f   LIBCMT:localref.obj
 0001:00056a34       ___updatetlocinfo          00457a34 f   LIBCMT:localref.obj
 0001:00056aad       __isleadbyte_l             00457aad f i LIBCMT:_wctype.obj
 0001:00056ae5       _isleadbyte                00457ae5 f i LIBCMT:_wctype.obj
 0001:00056af8       __isctype_l                00457af8 f   LIBCMT:isctype.obj
 0001:00056bb0       __cintrindisp2             00457bb0 f   LIBCMT:_87cdisp_.obj
 0001:00056bee       __cintrindisp1             00457bee f   LIBCMT:_87cdisp_.obj
 0001:00056c2b       __ctrandisp2               00457c2b f   LIBCMT:_87cdisp_.obj
 0001:00056dba       __ctrandisp1               00457dba f   LIBCMT:_87cdisp_.obj
 0001:00056ded       __fload                    00457ded f   LIBCMT:_87cdisp_.obj
 0001:00056e29       __fileno                   00457e29 f   LIBCMT:fileno.obj
 0001:00056e4f       ___iob_func                00457e4f f   LIBCMT:_file.obj
 0001:00056e55       ___initstdio               00457e55 f   LIBCMT:_file.obj
 0001:00056f06       ___endstdio                00457f06 f   LIBCMT:_file.obj
 0001:00056f26       __lock_file                00457f26 f   LIBCMT:_file.obj
 0001:00056f67       __lock_file2               00457f67 f   LIBCMT:_file.obj
 0001:00056f99       __unlock_file              00457f99 f   LIBCMT:_file.obj
 0001:00056fd5       __unlock_file2             00457fd5 f   LIBCMT:_file.obj
 0001:00057004       __flush                    00458004 f   LIBCMT:fflush.obj
 0001:0005706c       __fflush_nolock            0045806c f   LIBCMT:fflush.obj
 0001:0005718e       __flushall                 0045818e f   LIBCMT:fflush.obj
 0001:00057197       __write_nolock             00458197 f   LIBCMT:write.obj
 0001:00057894       __write                    00458894 f   LIBCMT:write.obj
 0001:00057968       __close_nolock             00458968 f   LIBCMT:close.obj
 0001:00057a04       __close                    00458a04 f   LIBCMT:close.obj
 0001:00057ac8       __freebuf                  00458ac8 f   LIBCMT:_freebuf.obj
 0001:00057af9       _memcpy_s                  00458af9 f   LIBCMT:memcpy_s.obj
 0001:00057b70       __local_unwind4            00458b70 f   LIBCMT:exsup4.obj
 0001:00057c46       __seh_longjmp_unwind4@4    00458c46 f   LIBCMT:exsup4.obj
 0001:00057c62       @_EH4_CallFilterFunc@8     00458c62 f   LIBCMT:exsup4.obj
 0001:00057c79       @_EH4_TransferToHandler@8  00458c79 f   LIBCMT:exsup4.obj
 0001:00057c92       @_EH4_GlobalUnwind2@8      00458c92 f   LIBCMT:exsup4.obj
 0001:00057cab       @_EH4_LocalUnwind@16       00458cab f   LIBCMT:exsup4.obj
 0001:00057cd0       __CIpow_pentium4           00458cd0 f   LIBCMT:_pow_pentium4_.obj
 0001:00057ce9       __pow_pentium4             00458ce9     LIBCMT:_pow_pentium4_.obj
 0001:00058841       __fFEXP                    00459841     LIBCMT:_87tran_.obj
 0001:00058898       __rtinfpopse               00459898     LIBCMT:_87tran_.obj
 0001:0005889a       __rtinfnpopse              0045989a     LIBCMT:_87tran_.obj
 0001:000588aa       __fFLN                     004598aa     LIBCMT:_87tran_.obj
 0001:0005895f       __rtinfpop                 0045995f     LIBCMT:_87tran_.obj
 0001:00058961       __rtinfnpop                00459961     LIBCMT:_87tran_.obj
 0001:0005897e       __ffexpm1                  0045997e     LIBCMT:_87tran_.obj
 0001:00058a27       __d_inttype                00459a27 f   LIBCMT:_powhlp_.obj
 0001:00058a91       __powhlp                   00459a91 f   LIBCMT:_powhlp_.obj
 0001:00058bc0       __global_unwind2           00459bc0 f   LIBCMT:exsup.obj
 0001:00058c25       __local_unwind2            00459c25 f   LIBCMT:exsup.obj
 0001:00058ca9       __abnormal_termination     00459ca9 f   LIBCMT:exsup.obj
 0001:00058ccc       __NLG_Notify1              00459ccc f   LIBCMT:exsup.obj
 0001:00058cd5       __NLG_Notify               00459cd5 f   LIBCMT:exsup.obj
 0001:00058cec       __NLG_Dispatch             00459cec     LIBCMT:exsup.obj
 0001:00058cec       __NLG_Dispatch2            00459cec     LIBCMT:exsup.obj
 0001:00058cf4       __NLG_Call                 00459cf4 f   LIBCMT:exsup.obj
 0001:00058cf6       __NLG_Return2              00459cf6     LIBCMT:exsup.obj
 0001:00058cf7       __rt_probe_read4@4         00459cf7 f   LIBCMT:sehsupp.obj
 0001:00058d50       __alloca_probe_16          00459d50 f   LIBCMT:alloca16.obj
 0001:00058d66       __alloca_probe_8           00459d66     LIBCMT:alloca16.obj
 0001:00058e63       ___crtGetStringTypeA       00459e63 f   LIBCMT:a_str.obj
 0001:00058ea3       __calloc_impl              00459ea3 f   LIBCMT:calloc_impl.obj
 0001:00058f25       __recalloc                 00459f25 f   LIBCMT:recalloc.obj
 0001:00059792       ___free_lc_time            0045a792 f   LIBCMT:inittime.obj
 0001:00059b09       ___init_time               0045ab09 f   LIBCMT:inittime.obj
 0001:00059b86       ___free_lconv_num          0045ab86 f   LIBCMT:initnum.obj
 0001:00059bef       ___init_numeric            0045abef f   LIBCMT:initnum.obj
 0001:00059ddf       ___free_lconv_mon          0045addf f   LIBCMT:initmon.obj
 0001:00059edd       ___init_monetary           0045aedd f   LIBCMT:initmon.obj
 0001:0005a23d       ___init_dummy              0045b23d f   LIBCMT:setlocal.obj
 0001:0005a23d       ___init_collate            0045b23d f   LIBCMT:initcoll.obj
 0001:0005a23d       __matherr                  0045b23d f   LIBCMT:_matherr_.obj
 0001:0005a240       _localeconv                0045b240 f   LIBCMT:lconv.obj
 0001:0005a266       __mtinitlocks              0045b266 f   LIBCMT:mlock.obj
 0001:0005a2b0       __mtdeletelocks            0045b2b0 f   LIBCMT:mlock.obj
 0001:0005a307       __unlock                   0045b307 f   LIBCMT:mlock.obj
 0001:0005a31e       __mtinitlocknum            0045b31e f   LIBCMT:mlock.obj
 0001:0005a3e0       __lock                     0045b3e0 f   LIBCMT:mlock.obj
 0001:0005a413       _strncpy_s                 0045b413 f   LIBCMT:strncpy_s.obj
 0001:0005aa55       ___get_qualified_locale    0045ba55 f   LIBCMT:getqloc.obj
 0001:0005ac46       _memcmp                    0045bc46 f   LIBCMT:memcmp.obj
 0001:0005c1a0       _strpbrk                   0045d1a0 f   LIBCMT:strpbrk.obj
 0001:0005c1e0       ___sys_nerr                0045d1e0 f   LIBCMT:syserr.obj
 0001:0005c1e6       ___sys_errlist             0045d1e6 f   LIBCMT:syserr.obj
 0001:0005c1ec       __initp_misc_winsig        0045d1ec f   LIBCMT:winsig.obj
 0001:0005c241       ___get_sigabrt             0045d241 f   LIBCMT:winsig.obj
 0001:0005c24e       _raise                     0045d24e f   LIBCMT:winsig.obj
 0001:0005c3f1       __crt_debugger_hook        0045d3f1 f   LIBCMT:dbghook.obj
 0001:0005c3f9       __initp_misc_rand_s        0045d3f9 f   LIBCMT:rand_s.obj
 0001:0005c410       __ValidateImageBase        0045d410 f   LIBCMT:pesect.obj
 0001:0005c450       __FindPESection            0045d450 f   LIBCMT:pesect.obj
 0001:0005c4a0       __IsNonwritableInCurrentImage 0045d4a0 f   LIBCMT:pesect.obj
 0001:0005c55c       ___crtMessageBoxW          0045d55c f   LIBCMT:crtmboxw.obj
 0001:0005c6c8       _wcsncpy_s                 0045d6c8 f   LIBCMT:wcsncpy_s.obj
 0001:0005c795       _wcslen                    0045d795 f   LIBCMT:wcslen.obj
 0001:0005c7b0       _wcscpy_s                  0045d7b0 f   LIBCMT:wcscpy_s.obj
 0001:0005c813       __set_error_mode           0045d813 f   LIBCMT:errmode.obj
 0001:0005c8a5       __ismbblead                0045d8a5 f   LIBCMT:ismbbyte.obj
 0001:0005c8bd       __atodbl_l                 0045d8bd f   LIBCMT:atodbl.obj
 0001:0005c965       __atoflt_l                 0045d965 f   LIBCMT:atodbl.obj
 0001:0005ca0d       __fptostr                  0045da0d f   LIBCMT:_fptostr.obj
 0001:0005cac0       ___dtold                   0045dac0 f   LIBCMT:_cfout_.obj
 0001:0005cb73       __fltout2                  0045db73 f   LIBCMT:_cfout_.obj
 0001:0005cc10       __alldvrm                  0045dc10 f   LIBCMT:lldvrm.obj
 0001:0005ccf0       __aullshr                  0045dcf0 f   LIBCMT:ullshr.obj
 0001:0005cd0f       __fptrap                   0045dd0f f   LIBCMT:crt0fp.obj
 0001:0005cd18       __controlfp_s              0045dd18 f   LIBCMT:_contrlfp_.obj
 0001:0005ce51       ___crtGetLocaleInfoA       0045de51 f   LIBCMT:a_loc.obj
 0001:0005ce8b       ?_ValidateRead@@YAHPBXI@Z  0045de8b f   LIBCMT:validate.obj
 0001:0005ce8b       ?_ValidateExecute@@YAHP6GHXZ@Z 0045de8b f   LIBCMT:validate.obj
 0001:0005ce8b       ?_ValidateWrite@@YAHPAXI@Z 0045de8b f   LIBCMT:validate.obj
 0001:0005ce9d       __lseeki64_nolock          0045de9d f   LIBCMT:lseeki64.obj
 0001:0005cf22       __lseeki64                 0045df22 f   LIBCMT:lseeki64.obj
 0001:0005d00c       __getbuf                   0045e00c f   LIBCMT:_getbuf.obj
 0001:0005d055       __isatty                   0045e055 f   LIBCMT:isatty.obj
 0001:0005d0ab       __get_printf_count_output  0045e0ab f   LIBCMT:printf.obj
 0001:0005d0c1       __wctomb_s_l               0045e0c1 f   LIBCMT:wctomb.obj
 0001:0005d216       _wctomb_s                  0045e216 f   LIBCMT:wctomb.obj
 0001:0005d240       __aulldvrm                 0045e240 f   LIBCMT:ulldvrm.obj
 0001:0005d2d5       __87except                 0045e2d5 f   LIBCMT:_87except_.obj
 0001:0005d414       __raise_exc_ex             0045e414 f   LIBCMT:_fpexcept_.obj
 0001:0005d6f0       __raise_exc                0045e6f0 f   LIBCMT:_fpexcept_.obj
 0001:0005d713       __handle_exc               0045e713 f   LIBCMT:_fpexcept_.obj
 0001:0005d8f7       __set_errno_from_matherr   0045e8f7 f   LIBCMT:_fpexcept_.obj
 0001:0005d924       __errcode                  0045e924 f   LIBCMT:_fpexcept_.obj
 0001:0005d958       __umatherr                 0045e958 f   LIBCMT:_fpexcept_.obj
 0001:0005d9f8       __handle_qnan1             0045e9f8 f   LIBCMT:_fpexcept_.obj
 0001:0005da4d       __handle_qnan2             0045ea4d f   LIBCMT:_fpexcept_.obj
 0001:0005daae       __except1                  0045eaae f   LIBCMT:_fpexcept_.obj
 0001:0005db78       __except2                  0045eb78 f   LIBCMT:_fpexcept_.obj
 0001:0005dc52       __frnd                     0045ec52 f   LIBCMT:_frnd_.obj
 0001:0005dc66       __set_exp                  0045ec66 f   LIBCMT:_util_.obj
 0001:0005dc93       __sptype                   0045ec93 f   LIBCMT:_util_.obj
 0001:0005dcf9       __decomp                   0045ecf9 f   LIBCMT:_util_.obj
 0001:0005ddbc       __statfp                   0045edbc f   LIBCMT:_fpctrl_.obj
 0001:0005ddcc       __clrfp                    0045edcc f   LIBCMT:_fpctrl_.obj
 0001:0005dddd       __ctrlfp                   0045eddd f   LIBCMT:_fpctrl_.obj
 0001:0005de08       __set_statfp               0045ee08 f   LIBCMT:_fpctrl_.obj
 0001:0005de60       ___set_fpsr_sse2           0045ee60 f   LIBCMT:_fpctrl_.obj
 0001:0005e0fd       _strtol                    0045f0fd f   LIBCMT:strtol.obj
 0001:0005e128       __free_osfhnd              0045f128 f   LIBCMT:osfinfo.obj
 0001:0005e1ae       __get_osfhandle            0045f1ae f   LIBCMT:osfinfo.obj
 0001:0005e217       ___lock_fhandle            0045f217 f   LIBCMT:osfinfo.obj
 0001:0005e2b6       __unlock_fhandle           0045f2b6 f   LIBCMT:osfinfo.obj
 0001:0005e2dd       __fcloseall                0045f2dd f   LIBCMT:closeall.obj
 0001:0005e379       __commit                   0045f379 f   LIBCMT:commit.obj
 0001:0005e452       __putwch_nolock            0045f452 f   LIBCMT:putwch.obj
 0001:0005e494       __mbtowc_l                 0045f494 f   LIBCMT:mbtowc.obj
 0001:0005e5aa       _mbtowc                    0045f5aa f   LIBCMT:mbtowc.obj
 0001:0005e5c4       __copysign                 0045f5c4 f   LIBCMT:_ieeemisc_.obj
 0001:0005e5ec       __fpclass                  0045f5ec f   LIBCMT:_ieeemisc_.obj
 0001:0005e689       ___ascii_stricmp           0045f689 f   LIBCMT:stricmp.obj
 0001:0005e6c2       __stricmp_l                0045f6c2 f   LIBCMT:stricmp.obj
 0001:0005e782       __stricmp                  0045f782 f   LIBCMT:stricmp.obj
 0001:0005e7c9       _atol                      0045f7c9 f   LIBCMT:atox.obj
 0001:0005e7df       __strnicmp_l               0045f7df f   LIBCMT:strnicmp.obj
 0001:0005e8c1       __strnicmp                 0045f8c1 f   LIBCMT:strnicmp.obj
 0001:0005e9ce       __itoa_s                   0045f9ce f   LIBCMT:xtoas.obj
 0001:0005eae4       __ui64toa_s                0045fae4 f   LIBCMT:xtoas.obj
 0001:0005eb03       __ld12tod                  0045fb03 f   LIBCMT:_intrncvt_.obj
 0001:0005f054       __ld12tof                  00460054 f   LIBCMT:_intrncvt_.obj
 0001:0005f5a5       ___strgtold12_l            004605a5 f   LIBCMT:_strgtold_.obj
 0001:0005fc81       _$I10_OUTPUT               00460c81 f   LIBCMT:_x10fout_.obj
 0001:000606a7       __control87                004616a7 f i LIBCMT:_ieee87_.obj
 0001:000609b9       ___initconout              004619b9 f   LIBCMT:initcon.obj
 0001:000609d8       ___termconout              004619d8 f   LIBCMT:initcon.obj
 0001:000609ef       _ldexp                     004619ef f   LIBCMT:_ldexp_.obj
 0001:00060bb0       ___ascii_strnicmp          00461bb0 f   LIBCMT:_strnicm.obj
 0001:00060c11       ___mtold12                 00461c11 f   LIBCMT:_mantold_.obj
 0001:00060df6       _GdiplusStartup@12         00461df6 f   gdiplus:gdiplus.dll
 0001:00060e00       ??1thread_resource_error@boost@@UAE@XZ 00461e00 f i libboost_thread-vc100-mt-s-1_48:thread.obj
 0001:00060e10       ?what@thread_resource_error@boost@@UBEPBDXZ 00461e10 f i libboost_thread-vc100-mt-s-1_48:thread.obj
 0001:00060e20       ??_Gthread_resource_error@boost@@UAEPAXI@Z 00461e20 f i libboost_thread-vc100-mt-s-1_48:thread.obj
 0001:00060e20       ??_Ethread_resource_error@boost@@UAEPAXI@Z 00461e20 f i libboost_thread-vc100-mt-s-1_48:thread.obj
 0001:00060e20       ??_Ethread_exception@boost@@UAEPAXI@Z 00461e20 f i libboost_thread-vc100-mt-s-1_48:thread.obj
 0001:00060e20       ??_Gthread_exception@boost@@UAEPAXI@Z 00461e20 f i libboost_thread-vc100-mt-s-1_48:thread.obj
 0001:00060e50       ??4handle_manager@win32@detail@boost@@QAEAAV0123@PAX@Z 00461e50 f i libboost_thread-vc100-mt-s-1_48:thread.obj
 0001:00060e90       ??1handle_manager@win32@detail@boost@@QAE@XZ 00461e90 f i libboost_thread-vc100-mt-s-1_48:thread.obj
 0001:00060eb0       ??_Gthread_data_base@detail@boost@@UAEPAXI@Z 00461eb0 f i libboost_thread-vc100-mt-s-1_48:thread.obj
 0001:00060eb0       ??_Gexternally_launched_thread@?A0x3c55b58b@boost@@UAEPAXI@Z 00461eb0 f i libboost_thread-vc100-mt-s-1_48:thread.obj
 0001:00060eb0       ??_Ethread_data_base@detail@boost@@UAEPAXI@Z 00461eb0 f i libboost_thread-vc100-mt-s-1_48:thread.obj
 0001:00060eb0       ??_Eexternally_launched_thread@?A0x3c55b58b@boost@@UAEPAXI@Z 00461eb0 f i libboost_thread-vc100-mt-s-1_48:thread.obj
 0001:00060f40       ?create_current_thread_tls_key@?A0x3c55b58b@boost@@YAXXZ 00461f40 f   libboost_thread-vc100-mt-s-1_48:thread.obj
 0001:00060f60       ?get_tss_data@detail@boost@@YAPAXPBX@Z 00461f60 f   libboost_thread-vc100-mt-s-1_48:thread.obj
 0001:00060fa0       ?on_process_exit@boost@@YAXXZ 00461fa0 f   libboost_thread-vc100-mt-s-1_48:thread.obj
 0001:00060fc0       ??$int_to_string@H@detail@boost@@YAXHPAD@Z 00461fc0 f i libboost_thread-vc100-mt-s-1_48:thread.obj
 0001:00061040       ??$int_to_string@K@detail@boost@@YAXKPAD@Z 00462040 f i libboost_thread-vc100-mt-s-1_48:thread.obj
 0001:000610c0       ??$heap_delete@Uexternally_launched_thread@?A0x3c55b58b@boost@@@detail@boost@@YAXPAUexternally_launched_thread@?A0x3c55b58b@1@@Z 004620c0 f i libboost_thread-vc100-mt-s-1_48:thread.obj
 0001:000610f0       ??0thread_exception@boost@@QAE@ABV01@@Z 004620f0 f i libboost_thread-vc100-mt-s-1_48:thread.obj
 0001:00061120       ?open_once_event@detail@boost@@YAPAXPADPAX@Z 00462120 f i libboost_thread-vc100-mt-s-1_48:thread.obj
 0001:00061180       ?create_once_event@detail@boost@@YAPAXPADPAX@Z 00462180 f i libboost_thread-vc100-mt-s-1_48:thread.obj
 0001:000611e0       ??1?$intrusive_ptr@Uthread_data_base@detail@boost@@@boost@@QAE@XZ 004621e0 f i libboost_thread-vc100-mt-s-1_48:thread.obj
 0001:00061210       ??$call_once@P6AXXZ@boost@@YAXAAUonce_flag@0@P6AXXZ@Z 00462210 f i libboost_thread-vc100-mt-s-1_48:thread.obj
 0001:00061440       ??0thread_resource_error@boost@@QAE@ABV01@@Z 00462440 f i libboost_thread-vc100-mt-s-1_48:thread.obj
 0001:00061470       ??0tss_data_node@detail@boost@@QAE@PBXV?$shared_ptr@Utss_cleanup_function@detail@boost@@@2@PAXPAU012@@Z 00462470 f i libboost_thread-vc100-mt-s-1_48:thread.obj
 0001:000614f0       ??0?$error_info_injector@Vthread_resource_error@boost@@@exception_detail@boost@@QAE@ABU012@@Z 004624f0 f i libboost_thread-vc100-mt-s-1_48:thread.obj
 0001:00061590       ??_E?$error_info_injector@Vthread_resource_error@boost@@@exception_detail@boost@@WBA@AEPAXI@Z 00462590 f i libboost_thread-vc100-mt-s-1_48:thread.obj
 0001:000615a0       ??1?$error_info_injector@Vthread_resource_error@boost@@@exception_detail@boost@@UAE@XZ 004625a0 f i libboost_thread-vc100-mt-s-1_48:thread.obj
 0001:000615e0       ??1?$clone_impl@U?$error_info_injector@Vthread_resource_error@boost@@@exception_detail@boost@@@exception_detail@boost@@UAE@XZ 004625e0 f i libboost_thread-vc100-mt-s-1_48:thread.obj
 0001:00061630       ??4?$shared_ptr@Utss_cleanup_function@detail@boost@@@boost@@QAEAAV01@ABV01@@Z 00462630 f i libboost_thread-vc100-mt-s-1_48:thread.obj
 0001:00061690       ??_E?$error_info_injector@Vthread_resource_error@boost@@@exception_detail@boost@@UAEPAXI@Z 00462690 f i libboost_thread-vc100-mt-s-1_48:thread.obj
 0001:00061690       ??_G?$error_info_injector@Vthread_resource_error@boost@@@exception_detail@boost@@UAEPAXI@Z 00462690 f i libboost_thread-vc100-mt-s-1_48:thread.obj
 0001:000616f0       ??$enable_error_info@Vthread_resource_error@boost@@@boost@@YA?AU?$error_info_injector@Vthread_resource_error@boost@@@exception_detail@0@ABVthread_resource_error@0@@Z 004626f0 f i libboost_thread-vc100-mt-s-1_48:thread.obj
 0001:00061750       ??_E?$clone_impl@U?$error_info_injector@Vthread_resource_error@boost@@@exception_detail@boost@@@exception_detail@boost@@WBA@AEPAXI@Z 00462750 f i libboost_thread-vc100-mt-s-1_48:thread.obj
 0001:00061760       ??_E?$clone_impl@U?$error_info_injector@Vthread_resource_error@boost@@@exception_detail@boost@@@exception_detail@boost@@WCE@AEPAXI@Z 00462760 f i libboost_thread-vc100-mt-s-1_48:thread.obj
 0001:00061770       ??0?$clone_impl@U?$error_info_injector@Vthread_resource_error@boost@@@exception_detail@boost@@@exception_detail@boost@@QAE@ABV012@@Z 00462770 f i libboost_thread-vc100-mt-s-1_48:thread.obj
 0001:000617a0       ??_G?$clone_impl@U?$error_info_injector@Vthread_resource_error@boost@@@exception_detail@boost@@@exception_detail@boost@@UAEPAXI@Z 004627a0 f i libboost_thread-vc100-mt-s-1_48:thread.obj
 0001:000617a0       ??_E?$clone_impl@U?$error_info_injector@Vthread_resource_error@boost@@@exception_detail@boost@@@exception_detail@boost@@UAEPAXI@Z 004627a0 f i libboost_thread-vc100-mt-s-1_48:thread.obj
 0001:00061800       ?clone@?$clone_impl@U?$error_info_injector@Vthread_resource_error@boost@@@exception_detail@boost@@@exception_detail@boost@@EBEPBVclone_base@23@XZ 00462800 f i libboost_thread-vc100-mt-s-1_48:thread.obj
 0001:00061880       ?rethrow@?$clone_impl@U?$error_info_injector@Vthread_resource_error@boost@@@exception_detail@boost@@@exception_detail@boost@@EBEXXZ 00462880 f i libboost_thread-vc100-mt-s-1_48:thread.obj
 0001:000618c0       ??$enable_current_exception@U?$error_info_injector@Vthread_resource_error@boost@@@exception_detail@boost@@@boost@@YA?AV?$clone_impl@U?$error_info_injector@Vthread_resource_error@boost@@@exception_detail@boost@@@exception_detail@0@ABU?$error_info_injector@Vthread_resource_error@boost@@@20@@Z 004628c0 f i libboost_thread-vc100-mt-s-1_48:thread.obj
 0001:00061950       ??$throw_exception@Vthread_resource_error@boost@@@boost@@YAXABVthread_resource_error@0@@Z 00462950 f i libboost_thread-vc100-mt-s-1_48:thread.obj
 0001:000619b0       ??0thread_data_base@detail@boost@@QAE@XZ 004629b0 f i libboost_thread-vc100-mt-s-1_48:thread.obj
 0001:00061a50       ?run_thread_exit_callbacks@?A0x3c55b58b@boost@@YAXXZ 00462a50 f   libboost_thread-vc100-mt-s-1_48:thread.obj
 0001:00061c00       ?on_thread_exit@boost@@YAXXZ 00462c00 f   libboost_thread-vc100-mt-s-1_48:thread.obj
 0001:00061c10       ??$heap_new@Uexternally_launched_thread@?A0x3c55b58b@boost@@@detail@boost@@YAPAUexternally_launched_thread@?A0x3c55b58b@1@XZ 00462c10 f i libboost_thread-vc100-mt-s-1_48:thread.obj
 0001:00061cd0       ??$heap_new@Utss_data_node@detail@boost@@AAPBXAAV?$shared_ptr@Utss_cleanup_function@detail@boost@@@3@AAPAXAAPAU123@@detail@boost@@YAPAUtss_data_node@01@AAPBXAAV?$shared_ptr@Utss_cleanup_function@detail@boost@@@1@AAPAXAAPAU201@@Z 00462cd0 f i libboost_thread-vc100-mt-s-1_48:thread.obj
 0001:00061dc0       ?make_external_thread_data@?A0x3c55b58b@boost@@YAXXZ 00462dc0 f   libboost_thread-vc100-mt-s-1_48:thread.obj
 0001:00061e70       ?set_tss_data@detail@boost@@YAXPBXV?$shared_ptr@Utss_cleanup_function@detail@boost@@@2@PAX_N@Z 00462e70 f   libboost_thread-vc100-mt-s-1_48:thread.obj
 0001:00061ff0       ?dll_callback@?A0xea98d0bd@@YGHPAXK0@Z 00462ff0 f   libboost_thread-vc100-mt-s-1_48:tss_pe.obj
 0001:00062018       _RtlUnwind@16              00463018 f   kernel32:KERNEL32.dll
 0001:0006201e       __Wcrtomb                  0046301e f   libcpmt:xwctomb.obj
 0001:000620a5       __Getcvt                   004630a5 f   libcpmt:xwctomb.obj
 0001:000620bb       ??$_Maklocstr@D@std@@YAPADPBDPADABU_Cvtvec@@@Z 004630bb f i libcpmt:locale.obj
 0001:000620eb       ?_Locimp_Addfac@_Locimp@locale@std@@CAXPAV123@PAVfacet@23@I@Z 004630eb f   libcpmt:locale.obj
 0001:000621e5       _ldexpf                    004631e5 f i libcpmt:locale.obj
 0001:00062205       ?_Hexdig@?$num_get@DV?$istreambuf_iterator@DU?$char_traits@D@std@@@std@@@std@@ABAHDDDD@Z 00463205 f i libcpmt:locale.obj
 0001:00062258       ?sgetc@?$basic_streambuf@DU?$char_traits@D@std@@@std@@QAEHXZ 00463258 f i libcpmt:locale.obj
 0001:00062278       ?_Ffmt@?$num_put@DV?$ostreambuf_iterator@DU?$char_traits@D@std@@@std@@@std@@ABAPADPADDH@Z 00463278 f i libcpmt:locale.obj
 0001:00062278       ?_Ffmt@?$num_put@_WV?$ostreambuf_iterator@_WU?$char_traits@_W@std@@@std@@@std@@ABAPADPADDH@Z 00463278 f i libcpmt:wlocale.obj
 0001:00062278       ?_Ffmt@?$num_put@GV?$ostreambuf_iterator@GU?$char_traits@G@std@@@std@@@std@@ABAPADPADDH@Z 00463278 f i libcpmt:wlocale.obj
 0001:000622df       ?do_in@?$codecvt@DDH@std@@MBEHAAHPBD1AAPBDPAD3AAPAD@Z 004632df f i libcpmt:locale.obj
 0001:000622df       ?do_out@?$codecvt@DDH@std@@MBEHAAHPBD1AAPBDPAD3AAPAD@Z 004632df f i libcpmt:locale.obj
 0001:000622fb       ?do_unshift@?$codecvt@DDH@std@@MBEHAAHPAD1AAPAD@Z 004632fb f i libcpmt:locale.obj
 0001:0006230f       ?do_length@?$codecvt@DDH@std@@MBEHABHPBD1I@Z 0046330f f i libcpmt:locale.obj
 0001:00062326       ?sbumpc@?$basic_streambuf@DU?$char_traits@D@std@@@std@@QAEHXZ 00463326 f i libcpmt:locale.obj
 0001:00062353       ?sputc@?$basic_streambuf@DU?$char_traits@D@std@@@std@@QAEHD@Z 00463353 f i libcpmt:locale.obj
 0001:00062394       ?_Init@?$numpunct@D@std@@IAEXABV_Locinfo@2@_N@Z 00463394 f i libcpmt:locale.obj
 0001:00062464       ??4?$ostreambuf_iterator@DU?$char_traits@D@std@@@std@@QAEAAV01@D@Z 00463464 f i libcpmt:locale.obj
 0001:0006248a       ?_Inc@?$istreambuf_iterator@DU?$char_traits@D@std@@@std@@AAEXXZ 0046348a f i libcpmt:locale.obj
 0001:000624ae       ?_Peek@?$istreambuf_iterator@DU?$char_traits@D@std@@@std@@ABEDXZ 004634ae f i libcpmt:locale.obj
 0001:000624d4       ?equal@?$istreambuf_iterator@DU?$char_traits@D@std@@@std@@QBE_NABV12@@Z 004634d4 f i libcpmt:locale.obj
 0001:00062513       ?_Getcat@?$num_get@DV?$istreambuf_iterator@DU?$char_traits@D@std@@@std@@@std@@SAIPAPBVfacet@locale@2@PBV42@@Z 00463513 f i libcpmt:locale.obj
 0001:0006259d       ?_Getcat@?$num_put@DV?$ostreambuf_iterator@DU?$char_traits@D@std@@@std@@@std@@SAIPAPBVfacet@locale@2@PBV42@@Z 0046359d f i libcpmt:locale.obj
 0001:00062627       ?do_decimal_point@?$numpunct@D@std@@MBEDXZ 00463627 f i libcpmt:locale.obj
 0001:00062627       ?do_decimal_point@?$_Mpunct@D@std@@MBEDXZ 00463627 f i libcpmt:xlocale.obj
 0001:0006262b       ?do_thousands_sep@?$_Mpunct@D@std@@MBEDXZ 0046362b f i libcpmt:xlocale.obj
 0001:0006262b       ?do_thousands_sep@?$numpunct@D@std@@MBEDXZ 0046362b f i libcpmt:locale.obj
 0001:0006262f       ??_E?$numpunct@D@std@@MAEPAXI@Z 0046362f f i libcpmt:locale.obj
 0001:0006262f       ??_G?$numpunct@D@std@@MAEPAXI@Z 0046362f f i libcpmt:locale.obj
 0001:0006265c       ?_Getcat@?$numpunct@D@std@@SAIPAPBVfacet@locale@2@PBV42@@Z 0046365c f i libcpmt:locale.obj
 0001:000626e6       ?_Getcat@?$codecvt@DDH@std@@SAIPAPBVfacet@locale@2@PBV42@@Z 004636e6 f i libcpmt:locale.obj
 0001:00062765       ?_Putc@?$num_put@DV?$ostreambuf_iterator@DU?$char_traits@D@std@@@std@@@std@@ABA?AV?$ostreambuf_iterator@DU?$char_traits@D@std@@@2@V32@PBDI@Z 00463765 f i libcpmt:locale.obj
 0001:00062765       ?_Put@?$num_put@DV?$ostreambuf_iterator@DU?$char_traits@D@std@@@std@@@std@@ABA?AV?$ostreambuf_iterator@DU?$char_traits@D@std@@@2@V32@PBDI@Z 00463765 f i libcpmt:locale.obj
 0001:0006279b       ?_Rep@?$num_put@DV?$ostreambuf_iterator@DU?$char_traits@D@std@@@std@@@std@@ABA?AV?$ostreambuf_iterator@DU?$char_traits@D@std@@@2@V32@DI@Z 0046379b f i libcpmt:locale.obj
 0001:000627c6       ?_Putgrouped@?$num_put@DV?$ostreambuf_iterator@DU?$char_traits@D@std@@@std@@@std@@ABA?AV?$ostreambuf_iterator@DU?$char_traits@D@std@@@2@V32@PBDID@Z 004637c6 f i libcpmt:locale.obj
 0001:00062857       ??$use_facet@V?$num_get@DV?$istreambuf_iterator@DU?$char_traits@D@std@@@std@@@std@@@std@@YAABV?$num_get@DV?$istreambuf_iterator@DU?$char_traits@D@std@@@std@@@0@ABVlocale@0@@Z 00463857 f i libcpmt:locale.obj
 0001:000628f4       ??$use_facet@V?$num_put@DV?$ostreambuf_iterator@DU?$char_traits@D@std@@@std@@@std@@@std@@YAABV?$num_put@DV?$ostreambuf_iterator@DU?$char_traits@D@std@@@std@@@0@ABVlocale@0@@Z 004638f4 f i libcpmt:locale.obj
 0001:00062991       ??$use_facet@V?$numpunct@D@std@@@std@@YAABV?$numpunct@D@0@ABVlocale@0@@Z 00463991 f i libcpmt:locale.obj
 0001:00062a2e       ??$use_facet@V?$codecvt@DDH@std@@@std@@YAABV?$codecvt@DDH@0@ABVlocale@0@@Z 00463a2e f i libcpmt:locale.obj
 0001:00062acb       ?_Makeloc@_Locimp@locale@std@@CAPAV123@ABV_Locinfo@3@HPAV123@PBV23@@Z 00463acb f   libcpmt:locale.obj
 0001:00062d39       ?_Locimp_ctor@_Locimp@locale@std@@CAXPAV123@ABV123@@Z 00463d39 f   libcpmt:locale.obj
 0001:00062e3e       ?grouping@?$numpunct@_W@std@@QBE?AV?$basic_string@DU?$char_traits@D@std@@V?$allocator@D@2@@2@XZ 00463e3e f i libcpmt:wlocale.obj
 0001:00062e3e       ?grouping@?$_Mpunct@_W@std@@QBE?AV?$basic_string@DU?$char_traits@D@std@@V?$allocator@D@2@@2@XZ 00463e3e f i libcpmt:wlocale.obj
 0001:00062e3e       ?grouping@?$numpunct@D@std@@QBE?AV?$basic_string@DU?$char_traits@D@std@@V?$allocator@D@2@@2@XZ 00463e3e f i libcpmt:locale.obj
 0001:00062e3e       ?grouping@?$numpunct@G@std@@QBE?AV?$basic_string@DU?$char_traits@D@std@@V?$allocator@D@2@@2@XZ 00463e3e f i libcpmt:wlocale.obj
 0001:00062e3e       ?grouping@?$_Mpunct@G@std@@QBE?AV?$basic_string@DU?$char_traits@D@std@@V?$allocator@D@2@@2@XZ 00463e3e f i libcpmt:wlocale.obj
 0001:00062e3e       ?grouping@?$_Mpunct@D@std@@QBE?AV?$basic_string@DU?$char_traits@D@std@@V?$allocator@D@2@@2@XZ 00463e3e f i libcpmt:xlocale.obj
 0001:00062e57       ?_Iput@?$num_put@DV?$ostreambuf_iterator@DU?$char_traits@D@std@@@std@@@std@@ABA?AV?$ostreambuf_iterator@DU?$char_traits@D@std@@@2@V32@AAVios_base@2@DPADI@Z 00463e57 f i libcpmt:locale.obj
 0001:00063057       ?insert@?$basic_string@DU?$char_traits@D@std@@V?$allocator@D@2@@std@@QAEAAV12@IID@Z 00464057 f i libcpmt:locale.obj
 0001:000630f9       ?do_put@?$num_put@DV?$ostreambuf_iterator@DU?$char_traits@D@std@@@std@@@std@@MBE?AV?$ostreambuf_iterator@DU?$char_traits@D@std@@@2@V32@AAVios_base@2@DJ@Z 004640f9 f i libcpmt:locale.obj
 0001:00063167       ?do_put@?$num_put@DV?$ostreambuf_iterator@DU?$char_traits@D@std@@@std@@@std@@MBE?AV?$ostreambuf_iterator@DU?$char_traits@D@std@@@2@V32@AAVios_base@2@DK@Z 00464167 f i libcpmt:locale.obj
 0001:000631d5       ?do_put@?$num_put@DV?$ostreambuf_iterator@DU?$char_traits@D@std@@@std@@@std@@MBE?AV?$ostreambuf_iterator@DU?$char_traits@D@std@@@2@V32@AAVios_base@2@D_J@Z 004641d5 f i libcpmt:locale.obj
 0001:00063246       ?do_put@?$num_put@DV?$ostreambuf_iterator@DU?$char_traits@D@std@@@std@@@std@@MBE?AV?$ostreambuf_iterator@DU?$char_traits@D@std@@@2@V32@AAVios_base@2@D_K@Z 00464246 f i libcpmt:locale.obj
 0001:000632b7       ?do_put@?$num_put@DV?$ostreambuf_iterator@DU?$char_traits@D@std@@@std@@@std@@MBE?AV?$ostreambuf_iterator@DU?$char_traits@D@std@@@2@V32@AAVios_base@2@DPBX@Z 004642b7 f i libcpmt:locale.obj
 0001:00063314       ?_Getifld@?$num_get@DV?$istreambuf_iterator@DU?$char_traits@D@std@@@std@@@std@@ABAHPADAAV?$istreambuf_iterator@DU?$char_traits@D@std@@@2@1HABVlocale@2@@Z 00464314 f i libcpmt:locale.obj
 0001:00063636       ?_Getffldx@?$num_get@DV?$istreambuf_iterator@DU?$char_traits@D@std@@@std@@@std@@ABAHPADAAV?$istreambuf_iterator@DU?$char_traits@D@std@@@2@1AAVios_base@2@PAH@Z 00464636 f i libcpmt:locale.obj
 0001:00063c03       ??$_Getloctxt@DV?$istreambuf_iterator@DU?$char_traits@D@std@@@std@@@std@@YAHAAV?$istreambuf_iterator@DU?$char_traits@D@std@@@0@0IPBD@Z 00464c03 f i libcpmt:locale.obj
 0001:00063d68       ?do_get@?$num_get@DV?$istreambuf_iterator@DU?$char_traits@D@std@@@std@@@std@@MBE?AV?$istreambuf_iterator@DU?$char_traits@D@std@@@2@V32@0AAVios_base@2@AAHAAG@Z 00464d68 f i libcpmt:locale.obj
 0001:00063e37       ?do_get@?$num_get@DV?$istreambuf_iterator@DU?$char_traits@D@std@@@std@@@std@@MBE?AV?$istreambuf_iterator@DU?$char_traits@D@std@@@2@V32@0AAVios_base@2@AAHAAI@Z 00464e37 f i libcpmt:locale.obj
 0001:00063f02       ?do_get@?$num_get@DV?$istreambuf_iterator@DU?$char_traits@D@std@@@std@@@std@@MBE?AV?$istreambuf_iterator@DU?$char_traits@D@std@@@2@V32@0AAVios_base@2@AAHAAJ@Z 00464f02 f i libcpmt:locale.obj
 0001:00063fb0       ?do_get@?$num_get@DV?$istreambuf_iterator@DU?$char_traits@D@std@@@std@@@std@@MBE?AV?$istreambuf_iterator@DU?$char_traits@D@std@@@2@V32@0AAVios_base@2@AAHAAK@Z 00464fb0 f i libcpmt:locale.obj
 0001:0006405e       ?do_get@?$num_get@DV?$istreambuf_iterator@DU?$char_traits@D@std@@@std@@@std@@MBE?AV?$istreambuf_iterator@DU?$char_traits@D@std@@@2@V32@0AAVios_base@2@AAHAA_J@Z 0046505e f i libcpmt:locale.obj
 0001:00064115       ?do_get@?$num_get@DV?$istreambuf_iterator@DU?$char_traits@D@std@@@std@@@std@@MBE?AV?$istreambuf_iterator@DU?$char_traits@D@std@@@2@V32@0AAVios_base@2@AAHAA_K@Z 00465115 f i libcpmt:locale.obj
 0001:000641cc       ?do_get@?$num_get@DV?$istreambuf_iterator@DU?$char_traits@D@std@@@std@@@std@@MBE?AV?$istreambuf_iterator@DU?$char_traits@D@std@@@2@V32@0AAVios_base@2@AAHAAPAX@Z 004651cc f i libcpmt:locale.obj
 0001:00064282       ?_Getffld@?$num_get@DV?$istreambuf_iterator@DU?$char_traits@D@std@@@std@@@std@@ABAHPADAAV?$istreambuf_iterator@DU?$char_traits@D@std@@@2@1AAVios_base@2@PAH@Z 00465282 f i libcpmt:locale.obj
 0001:0006482f       ?_Fput@?$num_put@DV?$ostreambuf_iterator@DU?$char_traits@D@std@@@std@@@std@@ABA?AV?$ostreambuf_iterator@DU?$char_traits@D@std@@@2@V32@AAVios_base@2@DPBDIIII@Z 0046582f f i libcpmt:locale.obj
 0001:00064cc0       ?do_get@?$num_get@DV?$istreambuf_iterator@DU?$char_traits@D@std@@@std@@@std@@MBE?AV?$istreambuf_iterator@DU?$char_traits@D@std@@@2@V32@0AAVios_base@2@AAHAA_N@Z 00465cc0 f i libcpmt:locale.obj
 0001:00064e6f       ?do_get@?$num_get@DV?$istreambuf_iterator@DU?$char_traits@D@std@@@std@@@std@@MBE?AV?$istreambuf_iterator@DU?$char_traits@D@std@@@2@V32@0AAVios_base@2@AAHAAM@Z 00465e6f f i libcpmt:locale.obj
 0001:00064f2f       ?do_get@?$num_get@DV?$istreambuf_iterator@DU?$char_traits@D@std@@@std@@@std@@MBE?AV?$istreambuf_iterator@DU?$char_traits@D@std@@@2@V32@0AAVios_base@2@AAHAAN@Z 00465f2f f i libcpmt:locale.obj
 0001:00064ff1       ?do_get@?$num_get@DV?$istreambuf_iterator@DU?$char_traits@D@std@@@std@@@std@@MBE?AV?$istreambuf_iterator@DU?$char_traits@D@std@@@2@V32@0AAVios_base@2@AAHAAO@Z 00465ff1 f i libcpmt:locale.obj
 0001:000650b3       ?do_put@?$num_put@DV?$ostreambuf_iterator@DU?$char_traits@D@std@@@std@@@std@@MBE?AV?$ostreambuf_iterator@DU?$char_traits@D@std@@@2@V32@AAVios_base@2@DN@Z 004660b3 f i libcpmt:locale.obj
 0001:00065273       ?do_put@?$num_put@DV?$ostreambuf_iterator@DU?$char_traits@D@std@@@std@@@std@@MBE?AV?$ostreambuf_iterator@DU?$char_traits@D@std@@@2@V32@AAVios_base@2@DO@Z 00466273 f i libcpmt:locale.obj
 0001:0006541d       ?do_truename@?$numpunct@D@std@@MBE?AV?$basic_string@DU?$char_traits@D@std@@V?$allocator@D@2@@2@XZ 0046641d f i libcpmt:locale.obj
 0001:0006541d       ?do_positive_sign@?$_Mpunct@D@std@@MBE?AV?$basic_string@DU?$char_traits@D@std@@V?$allocator@D@2@@2@XZ 0046641d f i libcpmt:xlocale.obj
 0001:00065439       ?do_put@?$num_put@DV?$ostreambuf_iterator@DU?$char_traits@D@std@@@std@@@std@@MBE?AV?$ostreambuf_iterator@DU?$char_traits@D@std@@@2@V32@AAVios_base@2@D_N@Z 00466439 f i libcpmt:locale.obj
 0001:000655d6       __GetLocaleForCP           004665d6 f   libcpmt:xmbtowc.obj
 0001:000656c4       __Mbrtowc                  004666c4 f   libcpmt:xmbtowc.obj
 0001:00065837       ?_Gettnames@_Locinfo@std@@QBE?AV_Timevec@2@XZ 00466837 f i libcpmt:wlocale.obj
 0001:00065851       ??$_Maklocchr@G@std@@YAGDPAGABU_Cvtvec@@@Z 00466851 f i libcpmt:wlocale.obj
 0001:00065851       ??$_Maklocchr@_W@std@@YA_WDPA_WABU_Cvtvec@@@Z 00466851 f i libcpmt:wlocale.obj
 0001:0006587f       ??$_Maklocstr@_W@std@@YAPA_WPBDPA_WABU_Cvtvec@@@Z 0046687f f i libcpmt:wlocale.obj
 0001:0006587f       ??$_Maklocstr@G@std@@YAPAGPBDPAGABU_Cvtvec@@@Z 0046687f f i libcpmt:wlocale.obj
 0001:0006591b       ?_Init@?$ctype@_W@std@@IAEXABV_Locinfo@2@@Z 0046691b f i libcpmt:wlocale.obj
 0001:0006591b       ?_Init@?$ctype@G@std@@IAEXABV_Locinfo@2@@Z 0046691b f i libcpmt:wlocale.obj
 0001:0006594d       ??1time_base@std@@UAE@XZ   0046694d f i libcpmt:wlocale.obj
 0001:0006594d       ??1money_base@std@@UAE@XZ  0046694d f i libcpmt:wlocale.obj
 0001:00065954       ?_Tidy@?$numpunct@D@std@@AAEXXZ 00466954 f i libcpmt:locale.obj
 0001:00065954       ?_Tidy@?$numpunct@_W@std@@AAEXXZ 00466954 f i libcpmt:wlocale.obj
 0001:00065954       ?_Tidy@?$numpunct@G@std@@AAEXXZ 00466954 f i libcpmt:wlocale.obj
 0001:00065976       ?_Init@?$time_put@DV?$ostreambuf_iterator@DU?$char_traits@D@std@@@std@@@std@@IAEXABV_Locinfo@2@@Z 00466976 f i libcpmt:xlocale.obj
 0001:00065976       ?_Init@?$time_put@_WV?$ostreambuf_iterator@_WU?$char_traits@_W@std@@@std@@@std@@IAEXABV_Locinfo@2@@Z 00466976 f i libcpmt:wlocale.obj
 0001:00065976       ?_Init@?$time_put@GV?$ostreambuf_iterator@GU?$char_traits@G@std@@@std@@@std@@IAEXABV_Locinfo@2@@Z 00466976 f i libcpmt:wlocale.obj
 0001:000659ab       ?_Makpat@?$_Mpunct@D@std@@AAEXAAUpattern@money_base@2@III@Z 004669ab f i libcpmt:xlocale.obj
 0001:000659ab       ?_Makpat@?$_Mpunct@_W@std@@AAEXAAUpattern@money_base@2@III@Z 004669ab f i libcpmt:wlocale.obj
 0001:000659ab       ?_Makpat@?$_Mpunct@G@std@@AAEXAAUpattern@money_base@2@III@Z 004669ab f i libcpmt:wlocale.obj
 0001:000659f7       ?do_in@?$codecvt@GDH@std@@MBEHAAHPBD1AAPBDPAG3AAPAG@Z 004669f7 f i libcpmt:wlocale.obj
 0001:00065a8d       ?do_out@?$codecvt@GDH@std@@MBEHAAHPBG1AAPBGPAD3AAPAD@Z 00466a8d f i libcpmt:wlocale.obj
 0001:00065b8c       ?do_unshift@?$codecvt@GDH@std@@MBEHAAHPAD1AAPAD@Z 00466b8c f i libcpmt:wlocale.obj
 0001:00065c1b       ?do_length@?$codecvt@GDH@std@@MBEHABHPBD1I@Z 00466c1b f i libcpmt:wlocale.obj
 0001:00065c8c       ?do_always_noconv@?$codecvt@GDH@std@@MBE_NXZ 00466c8c f i libcpmt:wlocale.obj
 0001:00065c8f       ?do_max_length@?$codecvt@GDH@std@@MBEHXZ 00466c8f f i libcpmt:wlocale.obj
 0001:00065c93       ??1?$ctype@_W@std@@MAE@XZ  00466c93 f i libcpmt:wlocale.obj
 0001:00065cb5       ?do_is@?$ctype@G@std@@MBE_NFG@Z 00466cb5 f i libcpmt:wlocale.obj
 0001:00065cb5       ?do_is@?$ctype@_W@std@@MBE_NF_W@Z 00466cb5 f i libcpmt:wlocale.obj
 0001:00065cd6       ?do_is@?$ctype@G@std@@MBEPBGPBG0PAF@Z 00466cd6 f i libcpmt:wlocale.obj
 0001:00065cd6       ?do_is@?$ctype@_W@std@@MBEPB_WPB_W0PAF@Z 00466cd6 f i libcpmt:wlocale.obj
 0001:00065cf4       ?do_tolower@?$ctype@_W@std@@MBE_W_W@Z 00466cf4 f i libcpmt:wlocale.obj
 0001:00065cf4       ?do_tolower@?$ctype@G@std@@MBEGG@Z 00466cf4 f i libcpmt:wlocale.obj
 0001:00065d0b       ?do_toupper@?$ctype@_W@std@@MBE_W_W@Z 00466d0b f i libcpmt:wlocale.obj
 0001:00065d0b       ?do_toupper@?$ctype@G@std@@MBEGG@Z 00466d0b f i libcpmt:wlocale.obj
 0001:00065d22       ?do_widen@?$ctype@_W@std@@MBEPBDPBD0PA_W@Z 00466d22 f i libcpmt:wlocale.obj
 0001:00065d22       ?do_widen@?$ctype@G@std@@MBEPBDPBD0PAG@Z 00466d22 f i libcpmt:wlocale.obj
 0001:00065d57       ??_E?$ctype@_W@std@@MAEPAXI@Z 00466d57 f i libcpmt:wlocale.obj
 0001:00065d57       ??_G?$ctype@_W@std@@MAEPAXI@Z 00466d57 f i libcpmt:wlocale.obj
 0001:00065d78       ??1?$ctype@G@std@@MAE@XZ   00466d78 f i libcpmt:wlocale.obj
 0001:00065d9a       ?do_scan_is@?$ctype@G@std@@MBEPBGFPBG0@Z 00466d9a f i libcpmt:wlocale.obj
 0001:00065d9a       ?do_scan_is@?$ctype@_W@std@@MBEPB_WFPB_W0@Z 00466d9a f i libcpmt:wlocale.obj
 0001:00065dca       ?do_scan_not@?$ctype@_W@std@@MBEPB_WFPB_W0@Z 00466dca f i libcpmt:wlocale.obj
 0001:00065dca       ?do_scan_not@?$ctype@G@std@@MBEPBGFPBG0@Z 00466dca f i libcpmt:wlocale.obj
 0001:00065dfa       ?do_tolower@?$ctype@G@std@@MBEPBGPAGPBG@Z 00466dfa f i libcpmt:wlocale.obj
 0001:00065dfa       ?do_tolower@?$ctype@_W@std@@MBEPB_WPA_WPB_W@Z 00466dfa f i libcpmt:wlocale.obj
 0001:00065e2b       ?do_toupper@?$ctype@G@std@@MBEPBGPAGPBG@Z 00466e2b f i libcpmt:wlocale.obj
 0001:00065e2b       ?do_toupper@?$ctype@_W@std@@MBEPB_WPA_WPB_W@Z 00466e2b f i libcpmt:wlocale.obj
 0001:00065e5c       ?_Dowiden@?$ctype@_W@std@@IBE_WD@Z 00466e5c f i libcpmt:wlocale.obj
 0001:00065e5c       ?_Dowiden@?$ctype@G@std@@IBEGD@Z 00466e5c f i libcpmt:wlocale.obj
 0001:00065e92       ?do_widen@?$ctype@G@std@@MBEGD@Z 00466e92 f i libcpmt:wlocale.obj
 0001:00065e92       ?do_widen@?$ctype@_W@std@@MBE_WD@Z 00466e92 f i libcpmt:wlocale.obj
 0001:00065e9d       ?_Donarrow@?$ctype@G@std@@IBEDGD@Z 00466e9d f i libcpmt:wlocale.obj
 0001:00065e9d       ?_Donarrow@?$ctype@_W@std@@IBED_WD@Z 00466e9d f i libcpmt:wlocale.obj
 0001:00065ee3       ?do_narrow@?$ctype@G@std@@MBEDGD@Z 00466ee3 f i libcpmt:wlocale.obj
 0001:00065ee3       ?do_narrow@?$ctype@_W@std@@MBED_WD@Z 00466ee3 f i libcpmt:wlocale.obj
 0001:00065eee       ?do_narrow@?$ctype@G@std@@MBEPBGPBG0DPAD@Z 00466eee f i libcpmt:wlocale.obj
 0001:00065eee       ?do_narrow@?$ctype@_W@std@@MBEPB_WPB_W0DPAD@Z 00466eee f i libcpmt:wlocale.obj
 0001:00065f25       ??_E?$ctype@G@std@@MAEPAXI@Z 00466f25 f i libcpmt:wlocale.obj
 0001:00065f25       ??_G?$ctype@G@std@@MAEPAXI@Z 00466f25 f i libcpmt:wlocale.obj
 0001:00065f46       ??1?$time_put@_WV?$ostreambuf_iterator@_WU?$char_traits@_W@std@@@std@@@std@@MAE@XZ 00466f46 f i libcpmt:wlocale.obj
 0001:00065f62       ??_E?$time_put@_WV?$ostreambuf_iterator@_WU?$char_traits@_W@std@@@std@@@std@@MAEPAXI@Z 00466f62 f i libcpmt:wlocale.obj
 0001:00065f62       ??_G?$time_put@_WV?$ostreambuf_iterator@_WU?$char_traits@_W@std@@@std@@@std@@MAEPAXI@Z 00466f62 f i libcpmt:wlocale.obj
 0001:00065f83       ?_Hexdig@?$num_get@_WV?$istreambuf_iterator@_WU?$char_traits@_W@std@@@std@@@std@@ABAH_W000@Z 00466f83 f i libcpmt:wlocale.obj
 0001:00065f83       ?_Hexdig@?$num_get@GV?$istreambuf_iterator@GU?$char_traits@G@std@@@std@@@std@@ABAHGGGG@Z 00466f83 f i libcpmt:wlocale.obj
 0001:00065fda       ?_Ifmt@?$num_put@DV?$ostreambuf_iterator@DU?$char_traits@D@std@@@std@@@std@@ABAPADPADPBDH@Z 00466fda f i libcpmt:locale.obj
 0001:00065fda       ?_Ifmt@?$num_put@_WV?$ostreambuf_iterator@_WU?$char_traits@_W@std@@@std@@@std@@ABAPADPADPBDH@Z 00466fda f i libcpmt:wlocale.obj
 0001:00065fda       ?_Ifmt@?$num_put@GV?$ostreambuf_iterator@GU?$char_traits@G@std@@@std@@@std@@ABAPADPADPBDH@Z 00466fda f i libcpmt:wlocale.obj
 0001:00066052       ?do_compare@?$collate@_W@std@@MBEHPB_W000@Z 00467052 f i libcpmt:wlocale.obj
 0001:00066073       ?do_hash@?$collate@G@std@@MBEJPBG0@Z 00467073 f i libcpmt:wlocale.obj
 0001:00066073       ?do_hash@?$collate@_W@std@@MBEJPB_W0@Z 00467073 f i libcpmt:wlocale.obj
 0001:00066093       ?do_open@?$messages@_W@std@@MBEHABV?$basic_string@DU?$char_traits@D@std@@V?$allocator@D@2@@2@ABVlocale@2@@Z 00467093 f i libcpmt:wlocale.obj
 0001:00066093       ?do_open@?$messages@G@std@@MBEHABV?$basic_string@DU?$char_traits@D@std@@V?$allocator@D@2@@2@ABVlocale@2@@Z 00467093 f i libcpmt:wlocale.obj
 0001:00066093       ?do_open@?$messages@D@std@@MBEHABV?$basic_string@DU?$char_traits@D@std@@V?$allocator@D@2@@2@ABVlocale@2@@Z 00467093 f i libcpmt:xlocale.obj
 0001:00066099       ?do_close@?$messages@D@std@@MBEXH@Z 00467099 f i libcpmt:xlocale.obj
 0001:00066099       ?do_close@?$messages@_W@std@@MBEXH@Z 00467099 f i libcpmt:wlocale.obj
 0001:00066099       ?do_close@?$messages@G@std@@MBEXH@Z 00467099 f i libcpmt:wlocale.obj
 0001:0006609c       ??_E?$collate@G@std@@MAEPAXI@Z 0046709c f i libcpmt:wlocale.obj
 0001:0006609c       ??_E?$messages@G@std@@MAEPAXI@Z 0046709c f i libcpmt:wlocale.obj
 0001:0006609c       ??_E?$collate@_W@std@@MAEPAXI@Z 0046709c f i libcpmt:wlocale.obj
 0001:0006609c       ??_G?$num_get@GV?$istreambuf_iterator@GU?$char_traits@G@std@@@std@@@std@@MAEPAXI@Z 0046709c f i libcpmt:wlocale.obj
 0001:0006609c       ??_G?$num_get@_WV?$istreambuf_iterator@_WU?$char_traits@_W@std@@@std@@@std@@MAEPAXI@Z 0046709c f i libcpmt:wlocale.obj
 0001:0006609c       ??_G?$num_get@DV?$istreambuf_iterator@DU?$char_traits@D@std@@@std@@@std@@MAEPAXI@Z 0046709c f i libcpmt:locale.obj
 0001:0006609c       ??_G?$messages@_W@std@@MAEPAXI@Z 0046709c f i libcpmt:wlocale.obj
 0001:0006609c       ??_G?$num_put@_WV?$ostreambuf_iterator@_WU?$char_traits@_W@std@@@std@@@std@@MAEPAXI@Z 0046709c f i libcpmt:wlocale.obj
 0001:0006609c       ??_E?$money_get@DV?$istreambuf_iterator@DU?$char_traits@D@std@@@std@@@std@@MAEPAXI@Z 0046709c f i libcpmt:xlocale.obj
 0001:0006609c       ??_E?$num_put@_WV?$ostreambuf_iterator@_WU?$char_traits@_W@std@@@std@@@std@@MAEPAXI@Z 0046709c f i libcpmt:wlocale.obj
 0001:0006609c       ??_G?$codecvt@GDH@std@@MAEPAXI@Z 0046709c f i libcpmt:wlocale.obj
 0001:0006609c       ??_G?$collate@_W@std@@MAEPAXI@Z 0046709c f i libcpmt:wlocale.obj
 0001:0006609c       ??_E?$num_get@DV?$istreambuf_iterator@DU?$char_traits@D@std@@@std@@@std@@MAEPAXI@Z 0046709c f i libcpmt:locale.obj
 0001:0006609c       ??_E?$collate@D@std@@MAEPAXI@Z 0046709c f i libcpmt:xlocale.obj
 0001:0006609c       ??_E?$num_get@GV?$istreambuf_iterator@GU?$char_traits@G@std@@@std@@@std@@MAEPAXI@Z 0046709c f i libcpmt:wlocale.obj
 0001:0006609c       ??_G?$codecvt@DDH@std@@MAEPAXI@Z 0046709c f i libcpmt:locale.obj
 0001:0006609c       ??_G?$money_put@GV?$ostreambuf_iterator@GU?$char_traits@G@std@@@std@@@std@@MAEPAXI@Z 0046709c f i libcpmt:wlocale.obj
 0001:0006609c       ??_E?$money_put@GV?$ostreambuf_iterator@GU?$char_traits@G@std@@@std@@@std@@MAEPAXI@Z 0046709c f i libcpmt:wlocale.obj
 0001:0006609c       ??_G?$messages@D@std@@MAEPAXI@Z 0046709c f i libcpmt:xlocale.obj
 0001:0006609c       ??_E?$money_put@DV?$ostreambuf_iterator@DU?$char_traits@D@std@@@std@@@std@@MAEPAXI@Z 0046709c f i libcpmt:xlocale.obj
 0001:0006609c       ??_E?$num_put@GV?$ostreambuf_iterator@GU?$char_traits@G@std@@@std@@@std@@MAEPAXI@Z 0046709c f i libcpmt:wlocale.obj
 0001:0006609c       ??_E?$money_get@GV?$istreambuf_iterator@GU?$char_traits@G@std@@@std@@@std@@MAEPAXI@Z 0046709c f i libcpmt:wlocale.obj
 0001:0006609c       ??_G?$money_get@GV?$istreambuf_iterator@GU?$char_traits@G@std@@@std@@@std@@MAEPAXI@Z 0046709c f i libcpmt:wlocale.obj
 0001:0006609c       ??_E?$messages@D@std@@MAEPAXI@Z 0046709c f i libcpmt:xlocale.obj
 0001:0006609c       ??_E?$num_get@_WV?$istreambuf_iterator@_WU?$char_traits@_W@std@@@std@@@std@@MAEPAXI@Z 0046709c f i libcpmt:wlocale.obj
 0001:0006609c       ??_G?$num_put@DV?$ostreambuf_iterator@DU?$char_traits@D@std@@@std@@@std@@MAEPAXI@Z 0046709c f i libcpmt:locale.obj
 0001:0006609c       ??_G?$money_get@_WV?$istreambuf_iterator@_WU?$char_traits@_W@std@@@std@@@std@@MAEPAXI@Z 0046709c f i libcpmt:wlocale.obj
 0001:0006609c       ??_G?$collate@G@std@@MAEPAXI@Z 0046709c f i libcpmt:wlocale.obj
 0001:0006609c       ??_E?$num_put@DV?$ostreambuf_iterator@DU?$char_traits@D@std@@@std@@@std@@MAEPAXI@Z 0046709c f i libcpmt:locale.obj
 0001:0006609c       ??_E?$codecvt@GDH@std@@MAEPAXI@Z 0046709c f i libcpmt:wlocale.obj
 0001:0006609c       ??_G?$messages@G@std@@MAEPAXI@Z 0046709c f i libcpmt:wlocale.obj
 0001:0006609c       ??_E?$money_put@_WV?$ostreambuf_iterator@_WU?$char_traits@_W@std@@@std@@@std@@MAEPAXI@Z 0046709c f i libcpmt:wlocale.obj
 0001:0006609c       ??_G?$money_put@DV?$ostreambuf_iterator@DU?$char_traits@D@std@@@std@@@std@@MAEPAXI@Z 0046709c f i libcpmt:xlocale.obj
 0001:0006609c       ??_G?$money_put@_WV?$ostreambuf_iterator@_WU?$char_traits@_W@std@@@std@@@std@@MAEPAXI@Z 0046709c f i libcpmt:wlocale.obj
 0001:0006609c       ??_G?$money_get@DV?$istreambuf_iterator@DU?$char_traits@D@std@@@std@@@std@@MAEPAXI@Z 0046709c f i libcpmt:xlocale.obj
 0001:0006609c       ??_G?$collate@D@std@@MAEPAXI@Z 0046709c f i libcpmt:xlocale.obj
 0001:0006609c       ??_E?$codecvt@DDH@std@@MAEPAXI@Z 0046709c f i libcpmt:locale.obj
 0001:0006609c       ??_E?$money_get@_WV?$istreambuf_iterator@_WU?$char_traits@_W@std@@@std@@@std@@MAEPAXI@Z 0046709c f i libcpmt:wlocale.obj
 0001:0006609c       ??_E?$messages@_W@std@@MAEPAXI@Z 0046709c f i libcpmt:wlocale.obj
 0001:0006609c       ??_G?$num_put@GV?$ostreambuf_iterator@GU?$char_traits@G@std@@@std@@@std@@MAEPAXI@Z 0046709c f i libcpmt:wlocale.obj
 0001:000660be       ?do_thousands_sep@?$numpunct@_W@std@@MBE_WXZ 004670be f i libcpmt:wlocale.obj
 0001:000660be       ?do_thousands_sep@?$_Mpunct@G@std@@MBEGXZ 004670be f i libcpmt:wlocale.obj
 0001:000660be       ?do_thousands_sep@?$_Mpunct@_W@std@@MBE_WXZ 004670be f i libcpmt:wlocale.obj
 0001:000660be       ?do_thousands_sep@?$numpunct@G@std@@MBEGXZ 004670be f i libcpmt:wlocale.obj
 0001:000660c3       ??$_Maklocbyte@G@std@@YADGABU_Cvtvec@@@Z 004670c3 f i libcpmt:wlocale.obj
 0001:000660c3       ??$_Maklocbyte@_W@std@@YAD_WABU_Cvtvec@@@Z 004670c3 f i libcpmt:wlocale.obj
 0001:000660ed       ?sgetc@?$basic_streambuf@GU?$char_traits@G@std@@@std@@QAEGXZ 004670ed f i libcpmt:wlocale.obj
 0001:000660ed       ?sgetc@?$basic_streambuf@_WU?$char_traits@_W@std@@@std@@QAEGXZ 004670ed f i libcpmt:wlocale.obj
 0001:00066111       ??$_LStrcoll@G@std@@YAHPBG000PBU_Collvec@@@Z 00467111 f i libcpmt:wlocale.obj
 0001:00066156       ??$_LStrxfrm@G@std@@YAIPAG0PBG1PBU_Collvec@@@Z 00467156 f i libcpmt:wlocale.obj
 0001:0006618a       ?do_compare@?$collate@G@std@@MBEHPBG000@Z 0046718a f i libcpmt:wlocale.obj
 0001:000661ab       ?_Inside@?$basic_string@GU?$char_traits@G@std@@V?$allocator@G@2@@std@@QAE_NPBG@Z 004671ab f i libcpmt:wlocale.obj
 0001:000661e9       ??1?$time_put@GV?$ostreambuf_iterator@GU?$char_traits@G@std@@@std@@@std@@MAE@XZ 004671e9 f i libcpmt:wlocale.obj
 0001:00066205       ??_G?$time_put@GV?$ostreambuf_iterator@GU?$char_traits@G@std@@@std@@@std@@MAEPAXI@Z 00467205 f i libcpmt:wlocale.obj
 0001:00066205       ??_E?$time_put@GV?$ostreambuf_iterator@GU?$char_traits@G@std@@@std@@@std@@MAEPAXI@Z 00467205 f i libcpmt:wlocale.obj
 0001:00066226       ??_G?$moneypunct@_W$00@std@@MAEPAXI@Z 00467226 f i libcpmt:wlocale.obj
 0001:00066226       ??_E?$_Mpunct@_W@std@@MAEPAXI@Z 00467226 f i libcpmt:wlocale.obj
 0001:00066226       ??_G?$_Mpunct@_W@std@@MAEPAXI@Z 00467226 f i libcpmt:wlocale.obj
 0001:00066226       ??_E?$moneypunct@_W$0A@@std@@MAEPAXI@Z 00467226 f i libcpmt:wlocale.obj
 0001:00066226       ??_G?$moneypunct@_W$0A@@std@@MAEPAXI@Z 00467226 f i libcpmt:wlocale.obj
 0001:00066226       ??_E?$moneypunct@_W$00@std@@MAEPAXI@Z 00467226 f i libcpmt:wlocale.obj
 0001:00066253       ?sbumpc@?$basic_streambuf@GU?$char_traits@G@std@@@std@@QAEGXZ 00467253 f i libcpmt:wlocale.obj
 0001:00066253       ?sbumpc@?$basic_streambuf@_WU?$char_traits@_W@std@@@std@@QAEGXZ 00467253 f i libcpmt:wlocale.obj
 0001:00066284       ?sputc@?$basic_streambuf@GU?$char_traits@G@std@@@std@@QAEGG@Z 00467284 f i libcpmt:wlocale.obj
 0001:00066284       ?sputc@?$basic_streambuf@_WU?$char_traits@_W@std@@@std@@QAEG_W@Z 00467284 f i libcpmt:wlocale.obj
 0001:000662c4       ?_Init@?$numpunct@G@std@@IAEXABV_Locinfo@2@_N@Z 004672c4 f i libcpmt:wlocale.obj
 0001:000662c4       ?_Init@?$numpunct@_W@std@@IAEXABV_Locinfo@2@_N@Z 004672c4 f i libcpmt:wlocale.obj
 0001:000663f0       ??4?$ostreambuf_iterator@_WU?$char_traits@_W@std@@@std@@QAEAAV01@_W@Z 004673f0 f i libcpmt:wlocale.obj
 0001:000663f0       ??4?$ostreambuf_iterator@GU?$char_traits@G@std@@@std@@QAEAAV01@G@Z 004673f0 f i libcpmt:wlocale.obj
 0001:0006641b       ?_Putc@?$num_put@_WV?$ostreambuf_iterator@_WU?$char_traits@_W@std@@@std@@@std@@ABA?AV?$ostreambuf_iterator@_WU?$char_traits@_W@std@@@2@V32@PBDI@Z 0046741b f i libcpmt:wlocale.obj
 0001:0006641b       ?_Putc@?$num_put@GV?$ostreambuf_iterator@GU?$char_traits@G@std@@@std@@@std@@ABA?AV?$ostreambuf_iterator@GU?$char_traits@G@std@@@2@V32@PBDI@Z 0046741b f i libcpmt:wlocale.obj
 0001:00066468       ?_Put@?$money_put@GV?$ostreambuf_iterator@GU?$char_traits@G@std@@@std@@@std@@CA?AV?$ostreambuf_iterator@GU?$char_traits@G@std@@@2@V32@V?$_String_const_iterator@GU?$char_traits@G@std@@V?$allocator@G@2@@2@I@Z 00467468 f i libcpmt:wlocale.obj
 0001:00066468       ?_Put@?$money_put@_WV?$ostreambuf_iterator@_WU?$char_traits@_W@std@@@std@@@std@@CA?AV?$ostreambuf_iterator@_WU?$char_traits@_W@std@@@2@V32@V?$_String_const_iterator@_WU?$char_traits@_W@std@@V?$allocator@_W@2@@2@I@Z 00467468 f i libcpmt:wlocale.obj
 0001:0006649b       ?_Init@?$_Mpunct@G@std@@IAEXABV_Locinfo@2@_N@Z 0046749b f i libcpmt:wlocale.obj
 0001:0006649b       ?_Init@?$_Mpunct@_W@std@@IAEXABV_Locinfo@2@_N@Z 0046749b f i libcpmt:wlocale.obj
 0001:000665f5       ?_Rep@?$money_put@_WV?$ostreambuf_iterator@_WU?$char_traits@_W@std@@@std@@@std@@CA?AV?$ostreambuf_iterator@_WU?$char_traits@_W@std@@@2@V32@_WI@Z 004675f5 f i libcpmt:wlocale.obj
 0001:000665f5       ?_Rep@?$money_put@GV?$ostreambuf_iterator@GU?$char_traits@G@std@@@std@@@std@@CA?AV?$ostreambuf_iterator@GU?$char_traits@G@std@@@2@V32@GI@Z 004675f5 f i libcpmt:wlocale.obj
 0001:00066620       ?_Chassign@?$basic_string@GU?$char_traits@G@std@@V?$allocator@G@2@@std@@QAEXIIG@Z 00467620 f i libcpmt:wlocale.obj
 0001:00066661       ?_Tidy@?$basic_string@GU?$char_traits@G@std@@V?$allocator@G@2@@std@@QAEX_NI@Z 00467661 f i libcpmt:wlocale.obj
 0001:000666ac       ?_Inc@?$istreambuf_iterator@GU?$char_traits@G@std@@@std@@AAEXXZ 004676ac f i libcpmt:wlocale.obj
 0001:000666ac       ?_Inc@?$istreambuf_iterator@_WU?$char_traits@_W@std@@@std@@AAEXXZ 004676ac f i libcpmt:wlocale.obj
 0001:000666d5       ?_Peek@?$istreambuf_iterator@_WU?$char_traits@_W@std@@@std@@ABE_WXZ 004676d5 f i libcpmt:wlocale.obj
 0001:000666d5       ?_Peek@?$istreambuf_iterator@GU?$char_traits@G@std@@@std@@ABEGXZ 004676d5 f i libcpmt:wlocale.obj
 0001:00066705       ?equal@?$istreambuf_iterator@GU?$char_traits@G@std@@@std@@QBE_NABV12@@Z 00467705 f i libcpmt:wlocale.obj
 0001:00066705       ?equal@?$istreambuf_iterator@_WU?$char_traits@_W@std@@@std@@QBE_NABV12@@Z 00467705 f i libcpmt:wlocale.obj
 0001:00066744       ?_Getdays@_Locinfo@std@@QBEPBDXZ 00467744 f i libcpmt:wlocale.obj
 0001:00066776       ?_Getmonths@_Locinfo@std@@QBEPBDXZ 00467776 f i libcpmt:wlocale.obj
 0001:000667a8       ?_Getcat@?$codecvt@GDH@std@@SAIPAPBVfacet@locale@2@PBV42@@Z 004677a8 f i libcpmt:wlocale.obj
 0001:00066832       ?_Getcat@?$ctype@_W@std@@SAIPAPBVfacet@locale@2@PBV42@@Z 00467832 f i libcpmt:wlocale.obj
 0001:000668b9       ?_Getcat@?$ctype@G@std@@SAIPAPBVfacet@locale@2@PBV42@@Z 004678b9 f i libcpmt:wlocale.obj
 0001:00066940       ?_Getcat@?$time_put@_WV?$ostreambuf_iterator@_WU?$char_traits@_W@std@@@std@@@std@@SAIPAPBVfacet@locale@2@PBV42@@Z 00467940 f i libcpmt:wlocale.obj
 0001:000669c8       ?_Getcat@?$num_get@_WV?$istreambuf_iterator@_WU?$char_traits@_W@std@@@std@@@std@@SAIPAPBVfacet@locale@2@PBV42@@Z 004679c8 f i libcpmt:wlocale.obj
 0001:00066a52       ?_Getcat@?$num_put@_WV?$ostreambuf_iterator@_WU?$char_traits@_W@std@@@std@@@std@@SAIPAPBVfacet@locale@2@PBV42@@Z 00467a52 f i libcpmt:wlocale.obj
 0001:00066adc       ??_G?$numpunct@_W@std@@MAEPAXI@Z 00467adc f i libcpmt:wlocale.obj
 0001:00066adc       ??_E?$numpunct@_W@std@@MAEPAXI@Z 00467adc f i libcpmt:wlocale.obj
 0001:00066b09       ?_Getcat@?$numpunct@_W@std@@SAIPAPBVfacet@locale@2@PBV42@@Z 00467b09 f i libcpmt:wlocale.obj
 0001:00066b93       ?_Getcat@?$messages@_W@std@@SAIPAPBVfacet@locale@2@PBV42@@Z 00467b93 f i libcpmt:wlocale.obj
 0001:00066c12       ?_Getcat@?$money_get@_WV?$istreambuf_iterator@_WU?$char_traits@_W@std@@@std@@@std@@SAIPAPBVfacet@locale@2@PBV42@@Z 00467c12 f i libcpmt:wlocale.obj
 0001:00066c9c       ?_Getcat@?$money_put@_WV?$ostreambuf_iterator@_WU?$char_traits@_W@std@@@std@@@std@@SAIPAPBVfacet@locale@2@PBV42@@Z 00467c9c f i libcpmt:wlocale.obj
 0001:00066d26       ?_Getcat@?$num_get@GV?$istreambuf_iterator@GU?$char_traits@G@std@@@std@@@std@@SAIPAPBVfacet@locale@2@PBV42@@Z 00467d26 f i libcpmt:wlocale.obj
 0001:00066db0       ?_Getcat@?$num_put@GV?$ostreambuf_iterator@GU?$char_traits@G@std@@@std@@@std@@SAIPAPBVfacet@locale@2@PBV42@@Z 00467db0 f i libcpmt:wlocale.obj
 0001:00066e3a       ?do_decimal_point@?$numpunct@G@std@@MBEGXZ 00467e3a f i libcpmt:wlocale.obj
 0001:00066e3a       ?do_decimal_point@?$_Mpunct@G@std@@MBEGXZ 00467e3a f i libcpmt:wlocale.obj
 0001:00066e3a       ?do_decimal_point@?$numpunct@_W@std@@MBE_WXZ 00467e3a f i libcpmt:wlocale.obj
 0001:00066e3a       ?do_decimal_point@?$_Mpunct@_W@std@@MBE_WXZ 00467e3a f i libcpmt:wlocale.obj
 0001:00066e3f       ??_G?$numpunct@G@std@@MAEPAXI@Z 00467e3f f i libcpmt:wlocale.obj
 0001:00066e3f       ??_E?$numpunct@G@std@@MAEPAXI@Z 00467e3f f i libcpmt:wlocale.obj
 0001:00066e6c       ?_Getcat@?$numpunct@G@std@@SAIPAPBVfacet@locale@2@PBV42@@Z 00467e6c f i libcpmt:wlocale.obj
 0001:00066ef6       ?_Getcat@?$messages@G@std@@SAIPAPBVfacet@locale@2@PBV42@@Z 00467ef6 f i libcpmt:wlocale.obj
 0001:00066f75       ?_Getcat@?$money_get@GV?$istreambuf_iterator@GU?$char_traits@G@std@@@std@@@std@@SAIPAPBVfacet@locale@2@PBV42@@Z 00467f75 f i libcpmt:wlocale.obj
 0001:00066fff       ?_Getcat@?$money_put@GV?$ostreambuf_iterator@GU?$char_traits@G@std@@@std@@@std@@SAIPAPBVfacet@locale@2@PBV42@@Z 00467fff f i libcpmt:wlocale.obj
 0001:00067089       ?_Getcat@?$time_put@GV?$ostreambuf_iterator@GU?$char_traits@G@std@@@std@@@std@@SAIPAPBVfacet@locale@2@PBV42@@Z 00468089 f i libcpmt:wlocale.obj
 0001:00067111       ?_Put@?$num_put@_WV?$ostreambuf_iterator@_WU?$char_traits@_W@std@@@std@@@std@@ABA?AV?$ostreambuf_iterator@_WU?$char_traits@_W@std@@@2@V32@PB_WI@Z 00468111 f i libcpmt:wlocale.obj
 0001:00067111       ?_Put@?$num_put@GV?$ostreambuf_iterator@GU?$char_traits@G@std@@@std@@@std@@ABA?AV?$ostreambuf_iterator@GU?$char_traits@G@std@@@2@V32@PBGI@Z 00468111 f i libcpmt:wlocale.obj
 0001:00067149       ?_Rep@?$num_put@GV?$ostreambuf_iterator@GU?$char_traits@G@std@@@std@@@std@@ABA?AV?$ostreambuf_iterator@GU?$char_traits@G@std@@@2@V32@GI@Z 00468149 f i libcpmt:wlocale.obj
 0001:00067149       ?_Rep@?$num_put@_WV?$ostreambuf_iterator@_WU?$char_traits@_W@std@@@std@@@std@@ABA?AV?$ostreambuf_iterator@_WU?$char_traits@_W@std@@@2@V32@_WI@Z 00468149 f i libcpmt:wlocale.obj
 0001:00067174       ??1?$basic_string@GU?$char_traits@G@std@@V?$allocator@G@2@@std@@QAE@XZ 00468174 f i libcpmt:wlocale.obj
 0001:0006717e       ?_Init@?$time_get@_WV?$istreambuf_iterator@_WU?$char_traits@_W@std@@@std@@@std@@IAEXABV_Locinfo@2@@Z 0046817e f i libcpmt:wlocale.obj
 0001:0006717e       ?_Init@?$time_get@GV?$istreambuf_iterator@GU?$char_traits@G@std@@@std@@@std@@IAEXABV_Locinfo@2@@Z 0046817e f i libcpmt:wlocale.obj
 0001:000671f5       ?_Putgrouped@?$num_put@_WV?$ostreambuf_iterator@_WU?$char_traits@_W@std@@@std@@@std@@ABA?AV?$ostreambuf_iterator@_WU?$char_traits@_W@std@@@2@V32@PBDI_W@Z 004681f5 f i libcpmt:wlocale.obj
 0001:000671f5       ?_Putgrouped@?$num_put@GV?$ostreambuf_iterator@GU?$char_traits@G@std@@@std@@@std@@ABA?AV?$ostreambuf_iterator@GU?$char_traits@G@std@@@2@V32@PBDIG@Z 004681f5 f i libcpmt:wlocale.obj
 0001:00067287       ?erase@?$basic_string@GU?$char_traits@G@std@@V?$allocator@G@2@@std@@QAEAAV12@II@Z 00468287 f i libcpmt:wlocale.obj
 0001:00067308       ?_Copy@?$basic_string@GU?$char_traits@G@std@@V?$allocator@G@2@@std@@QAEXII@Z 00468308 f i libcpmt:wlocale.obj
 0001:000673f5       ??$use_facet@V?$ctype@_W@std@@@std@@YAABV?$ctype@_W@0@ABVlocale@0@@Z 004683f5 f i libcpmt:wlocale.obj
 0001:00067492       ??$use_facet@V?$ctype@G@std@@@std@@YAABV?$ctype@G@0@ABVlocale@0@@Z 00468492 f i libcpmt:wlocale.obj
 0001:0006752f       ??$use_facet@V?$num_get@_WV?$istreambuf_iterator@_WU?$char_traits@_W@std@@@std@@@std@@@std@@YAABV?$num_get@_WV?$istreambuf_iterator@_WU?$char_traits@_W@std@@@std@@@0@ABVlocale@0@@Z 0046852f f i libcpmt:wlocale.obj
 0001:000675cc       ??$use_facet@V?$num_put@_WV?$ostreambuf_iterator@_WU?$char_traits@_W@std@@@std@@@std@@@std@@YAABV?$num_put@_WV?$ostreambuf_iterator@_WU?$char_traits@_W@std@@@std@@@0@ABVlocale@0@@Z 004685cc f i libcpmt:wlocale.obj
 0001:00067669       ??$use_facet@V?$numpunct@_W@std@@@std@@YAABV?$numpunct@_W@0@ABVlocale@0@@Z 00468669 f i libcpmt:wlocale.obj
 0001:00067706       ??$use_facet@V?$messages@_W@std@@@std@@YAABV?$messages@_W@0@ABVlocale@0@@Z 00468706 f i libcpmt:wlocale.obj
 0001:000677a3       ??$use_facet@V?$money_get@_WV?$istreambuf_iterator@_WU?$char_traits@_W@std@@@std@@@std@@@std@@YAABV?$money_get@_WV?$istreambuf_iterator@_WU?$char_traits@_W@std@@@std@@@0@ABVlocale@0@@Z 004687a3 f i libcpmt:wlocale.obj
 0001:00067840       ??$use_facet@V?$money_put@_WV?$ostreambuf_iterator@_WU?$char_traits@_W@std@@@std@@@std@@@std@@YAABV?$money_put@_WV?$ostreambuf_iterator@_WU?$char_traits@_W@std@@@std@@@0@ABVlocale@0@@Z 00468840 f i libcpmt:wlocale.obj
 0001:000678dd       ??$use_facet@V?$time_put@_WV?$ostreambuf_iterator@_WU?$char_traits@_W@std@@@std@@@std@@@std@@YAABV?$time_put@_WV?$ostreambuf_iterator@_WU?$char_traits@_W@std@@@std@@@0@ABVlocale@0@@Z 004688dd f i libcpmt:wlocale.obj
 0001:0006797a       ??$use_facet@V?$num_get@GV?$istreambuf_iterator@GU?$char_traits@G@std@@@std@@@std@@@std@@YAABV?$num_get@GV?$istreambuf_iterator@GU?$char_traits@G@std@@@std@@@0@ABVlocale@0@@Z 0046897a f i libcpmt:wlocale.obj
 0001:00067a17       ??$use_facet@V?$num_put@GV?$ostreambuf_iterator@GU?$char_traits@G@std@@@std@@@std@@@std@@YAABV?$num_put@GV?$ostreambuf_iterator@GU?$char_traits@G@std@@@std@@@0@ABVlocale@0@@Z 00468a17 f i libcpmt:wlocale.obj
 0001:00067ab4       ??$use_facet@V?$numpunct@G@std@@@std@@YAABV?$numpunct@G@0@ABVlocale@0@@Z 00468ab4 f i libcpmt:wlocale.obj
 0001:00067b51       ??$use_facet@V?$messages@G@std@@@std@@YAABV?$messages@G@0@ABVlocale@0@@Z 00468b51 f i libcpmt:wlocale.obj
